TN:
SF:/usr/include/c++/4.4/bits/allocator.h
FN:101,_ZNSaISt13_Rb_tree_nodeI10CoordinateEEC2Ev
FN:109,_ZNSaISt13_Rb_tree_nodeI10CoordinateEED2Ev
FN:101,_ZNSaI10CoordinateEC1Ev
FN:103,_ZNSaI10CoordinateEC2ERKS0_
FN:109,_ZNSaI10CoordinateED2Ev
FN:109,_ZNSaI10CoordinateED1Ev
FN:107,_ZNSaI10CoordinateEC1ISt13_Rb_tree_nodeIS_EEERKSaIT_E
FN:101,_ZNSaIcEC1Ev
FN:103,_ZNSaIcEC1ERKS_
FN:109,_ZNSaIcED2Ev
FN:109,_ZNSaIcED1Ev
FNDA:42,_ZNSaISt13_Rb_tree_nodeI10CoordinateEEC2Ev
FNDA:0,_ZNSaI10CoordinateEC1Ev
FNDA:0,_ZNSaIcEC1Ev
FNDA:0,_ZNSaI10CoordinateEC2ERKS0_
FNDA:0,_ZNSaIcEC1ERKS_
FNDA:564,_ZNSaI10CoordinateEC1ISt13_Rb_tree_nodeIS_EEERKSaIT_E
FNDA:42,_ZNSaISt13_Rb_tree_nodeI10CoordinateEED2Ev
FNDA:0,_ZNSaI10CoordinateED2Ev
FNDA:0,_ZNSaI10CoordinateED1Ev
FNDA:0,_ZNSaIcED2Ev
FNDA:0,_ZNSaIcED1Ev
FNF:11
FNH:3
DA:101,42
DA:103,0
DA:104,0
DA:107,564
DA:109,42
LF:5
LH:3
end_of_record
SF:/usr/include/c++/4.4/bits/basic_ios.h
FN:127,_ZNKSt9basic_iosIcSt11char_traitsIcEE7rdstateEv
FN:147,_ZNSt9basic_iosIcSt11char_traitsIcEE8setstateESt12_Ios_Iostate
FN:46,_ZSt13__check_facetISt5ctypeIcEERKT_PS3_
FN:439,_ZNKSt9basic_iosIcSt11char_traitsIcEE5widenEc
FNDA:0,_ZSt13__check_facetISt5ctypeIcEERKT_PS3_
FNDA:0,_ZNKSt9basic_iosIcSt11char_traitsIcEE7rdstateEv
FNDA:0,_ZNSt9basic_iosIcSt11char_traitsIcEE8setstateESt12_Ios_Iostate
FNDA:0,_ZNKSt9basic_iosIcSt11char_traitsIcEE5widenEc
FNF:4
FNH:0
DA:46,0
DA:48,0
DA:49,0
DA:50,0
DA:127,0
DA:128,0
DA:147,0
DA:148,0
DA:439,0
DA:440,0
BA:48,0
BA:48,0
LF:10
LH:0
end_of_record
SF:/usr/include/c++/4.4/bits/basic_string.h
FN:272,_ZNKSs7_M_dataEv
FN:280,_ZNKSs6_M_repEv
FN:173,_ZNSs4_Rep12_S_empty_repEv
FN:1632,_ZNKSs13get_allocatorEv
FN:253,_ZNSs12_Alloc_hiderD1Ev
FN:224,_ZNSs4_Rep10_M_disposeERKSaIcE
FN:497,_ZNSsD1Ev
FNDA:0,_ZNSs4_Rep12_S_empty_repEv
FNDA:0,_ZNSs4_Rep10_M_disposeERKSaIcE
FNDA:0,_ZNSs12_Alloc_hiderD1Ev
FNDA:0,_ZNKSs7_M_dataEv
FNDA:0,_ZNKSs6_M_repEv
FNDA:0,_ZNSsD1Ev
FNDA:0,_ZNKSs13get_allocatorEv
FNF:7
FNH:0
DA:173,0
DA:178,0
DA:179,0
DA:224,0
DA:227,0
DA:229,0
DA:231,0
DA:232,0
DA:253,0
DA:272,0
DA:273,0
DA:280,0
DA:281,0
DA:497,0
DA:498,0
DA:1632,0
DA:1633,0
BA:227,0
BA:227,0
BA:229,0
BA:229,0
LF:17
LH:0
end_of_record
SF:/usr/include/c++/4.4/bits/char_traits.h
FN:262,_ZNSt11char_traitsIcE6lengthEPKc
FNDA:0,_ZNSt11char_traitsIcE6lengthEPKc
FNF:1
FNH:0
DA:262,0
DA:263,0
LF:2
LH:0
end_of_record
SF:/usr/include/c++/4.4/bits/ios_base.h
FN:166,_ZStorSt12_Ios_IostateS_
FNDA:0,_ZStorSt12_Ios_IostateS_
FNF:1
FNH:0
DA:166,0
DA:167,0
LF:2
LH:0
end_of_record
SF:/usr/include/c++/4.4/bits/locale_facets.h
FN:865,_ZNKSt5ctypeIcE5widenEc
FNDA:0,_ZNKSt5ctypeIcE5widenEc
FNF:1
FNH:0
DA:865,0
DA:867,0
DA:868,0
DA:869,0
DA:870,0
BA:867,0
BA:867,0
LF:5
LH:0
end_of_record
SF:/usr/include/c++/4.4/bits/stl_construct.h
FN:82,_ZSt8_DestroyI10CoordinateEvPT_
FN:90,_ZNSt12_Destroy_auxILb0EE9__destroyIP10CoordinateEEvT_S4_
FN:112,_ZSt8_DestroyIP10CoordinateEvT_S2_
FN:139,_ZSt8_DestroyIP10CoordinateS0_EvT_S2_RSaIT0_E
FN:70,_ZSt10_ConstructI10CoordinateS0_EvPT_RKT0_
FNDA:0,_ZSt10_ConstructI10CoordinateS0_EvPT_RKT0_
FNDA:0,_ZSt8_DestroyI10CoordinateEvPT_
FNDA:0,_ZNSt12_Destroy_auxILb0EE9__destroyIP10CoordinateEEvT_S4_
FNDA:0,_ZSt8_DestroyIP10CoordinateEvT_S2_
FNDA:0,_ZSt8_DestroyIP10CoordinateS0_EvT_S2_RSaIT0_E
FNF:5
FNH:0
DA:70,0
DA:74,0
DA:75,0
DA:82,0
DA:83,0
DA:90,0
DA:92,0
DA:93,0
DA:94,0
DA:112,0
DA:116,0
DA:118,0
DA:139,0
DA:142,0
DA:143,0
BA:74,0
BA:74,0
BA:92,0
BA:92,0
LF:15
LH:0
end_of_record
SF:/usr/include/c++/4.4/bits/stl_function.h
FN:475,_ZNKSt9_IdentityI10CoordinateEclERKS0_
FNDA:2786,_ZNKSt9_IdentityI10CoordinateEclERKS0_
FNF:1
FNH:1
DA:475,2786
DA:476,2786
LF:2
LH:2
end_of_record
SF:/usr/include/c++/4.4/bits/stl_iterator.h
FN:702,_ZNK9__gnu_cxx17__normal_iteratorIPK10CoordinateSt6vectorIS1_SaIS1_EEEptEv
FN:686,_ZN9__gnu_cxx17__normal_iteratorIPK10CoordinateSt6vectorIS1_SaIS1_EEEC1ERKS3_
FN:713,_ZN9__gnu_cxx17__normal_iteratorIPK10CoordinateSt6vectorIS1_SaIS1_EEEppEi
FN:750,_ZNK9__gnu_cxx17__normal_iteratorIPK10CoordinateSt6vectorIS1_SaIS1_EEE4baseEv
FN:783,_ZN9__gnu_cxxneIPK10CoordinateSt6vectorIS1_SaIS1_EEEEbRKNS_17__normal_iteratorIT_T0_EESC_
FNDA:0,_ZN9__gnu_cxx17__normal_iteratorIPK10CoordinateSt6vectorIS1_SaIS1_EEEC1ERKS3_
FNDA:0,_ZNK9__gnu_cxx17__normal_iteratorIPK10CoordinateSt6vectorIS1_SaIS1_EEEptEv
FNDA:0,_ZN9__gnu_cxx17__normal_iteratorIPK10CoordinateSt6vectorIS1_SaIS1_EEEppEi
FNDA:0,_ZNK9__gnu_cxx17__normal_iteratorIPK10CoordinateSt6vectorIS1_SaIS1_EEE4baseEv
FNDA:0,_ZN9__gnu_cxxneIPK10CoordinateSt6vectorIS1_SaIS1_EEEEbRKNS_17__normal_iteratorIT_T0_EESC_
FNF:5
FNH:0
DA:686,0
DA:702,0
DA:703,0
DA:713,0
DA:714,0
DA:750,0
DA:751,0
DA:783,0
DA:785,0
LF:9
LH:0
end_of_record
SF:/usr/include/c++/4.4/bits/stl_list.h
FN:200,_ZNSt20_List_const_iteratorISt6vectorI10CoordinateSaIS1_EEEC1Ev
FN:255,_ZNKSt20_List_const_iteratorISt6vectorI10CoordinateSaIS1_EEEneERKS4_
FN:228,_ZNSt20_List_const_iteratorISt6vectorI10CoordinateSaIS1_EEEppEi
FN:213,_ZNKSt20_List_const_iteratorISt6vectorI10CoordinateSaIS1_EEEdeEv
FN:204,_ZNSt20_List_const_iteratorISt6vectorI10CoordinateSaIS1_EEEC1EPKSt15_List_node_base
FN:698,_ZNKSt4listISt6vectorI10CoordinateSaIS1_EESaIS3_EE5beginEv
FN:716,_ZNKSt4listISt6vectorI10CoordinateSaIS1_EESaIS3_EE3endEv
FNDA:0,_ZNSt20_List_const_iteratorISt6vectorI10CoordinateSaIS1_EEEC1Ev
FNDA:0,_ZNSt20_List_const_iteratorISt6vectorI10CoordinateSaIS1_EEEC1EPKSt15_List_node_base
FNDA:0,_ZNKSt20_List_const_iteratorISt6vectorI10CoordinateSaIS1_EEEdeEv
FNDA:0,_ZNSt20_List_const_iteratorISt6vectorI10CoordinateSaIS1_EEEppEi
FNDA:0,_ZNKSt20_List_const_iteratorISt6vectorI10CoordinateSaIS1_EEEneERKS4_
FNDA:0,_ZNKSt4listISt6vectorI10CoordinateSaIS1_EESaIS3_EE5beginEv
FNDA:0,_ZNKSt4listISt6vectorI10CoordinateSaIS1_EESaIS3_EE3endEv
FNF:7
FNH:0
DA:200,0
DA:201,0
DA:204,0
DA:205,0
DA:213,0
DA:214,0
DA:228,0
DA:230,0
DA:231,0
DA:255,0
DA:256,0
DA:698,0
DA:699,0
DA:716,0
DA:717,0
LF:15
LH:0
end_of_record
SF:/usr/include/c++/4.4/bits/stl_pair.h
FN:83,_ZNSt4pairISt23_Rb_tree_const_iteratorI10CoordinateEbEC1ERKS2_RKb
FN:83,_ZNSt4pairISt17_Rb_tree_iteratorI10CoordinateEbEC1ERKS2_RKb
FNDA:282,_ZNSt4pairISt23_Rb_tree_const_iteratorI10CoordinateEbEC1ERKS2_RKb
FNDA:282,_ZNSt4pairISt17_Rb_tree_iteratorI10CoordinateEbEC1ERKS2_RKb
FNF:2
FNH:2
DA:83,564
DA:84,564
LF:2
LH:2
end_of_record
SF:/usr/include/c++/4.4/bits/stl_set.h
FN:291,_ZNKSt3setI10CoordinateNS0_10comparatorESaIS0_EE5beginEv
FN:300,_ZNKSt3setI10CoordinateNS0_10comparatorESaIS0_EE3endEv
FN:547,_ZNSt3setI10CoordinateNS0_10comparatorESaIS0_EE4findERKS0_
FN:136,_ZNSt3setI10CoordinateNS0_10comparatorESaIS0_EEC1Ev
FN:515,_ZNSt3setI10CoordinateNS0_10comparatorESaIS0_EE5clearEv
FN:88,_ZNSt3setI10CoordinateNS0_10comparatorESaIS0_EED1Ev
FN:408,_ZNSt3setI10CoordinateNS0_10comparatorESaIS0_EE6insertERKS0_
FNDA:42,_ZNSt3setI10CoordinateNS0_10comparatorESaIS0_EED1Ev
FNDA:42,_ZNSt3setI10CoordinateNS0_10comparatorESaIS0_EEC1Ev
FNDA:23,_ZNKSt3setI10CoordinateNS0_10comparatorESaIS0_EE5beginEv
FNDA:201,_ZNKSt3setI10CoordinateNS0_10comparatorESaIS0_EE3endEv
FNDA:282,_ZNSt3setI10CoordinateNS0_10comparatorESaIS0_EE6insertERKS0_
FNDA:3,_ZNSt3setI10CoordinateNS0_10comparatorESaIS0_EE5clearEv
FNDA:32,_ZNSt3setI10CoordinateNS0_10comparatorESaIS0_EE4findERKS0_
FNF:7
FNH:7
DA:88,42
DA:136,42
DA:137,42
DA:291,23
DA:292,23
DA:300,201
DA:301,201
DA:408,282
DA:411,282
DA:412,282
DA:515,3
DA:516,3
DA:547,32
DA:548,32
LF:14
LH:14
end_of_record
SF:/usr/include/c++/4.4/bits/stl_tree.h
FN:291,_ZNKSt23_Rb_tree_const_iteratorI10CoordinateEneERKS1_
FN:238,_ZNSt23_Rb_tree_const_iteratorI10CoordinateEC1Ev
FN:249,_ZNKSt23_Rb_tree_const_iteratorI10CoordinateEdeEv
FN:287,_ZNKSt23_Rb_tree_const_iteratorI10CoordinateEeqERKS1_
FN:481,_ZNSt8_Rb_treeI10CoordinateS0_St9_IdentityIS0_ENS0_10comparatorESaIS0_EE8_M_beginEv
FN:245,_ZNSt23_Rb_tree_const_iteratorI10CoordinateEC1ERKSt17_Rb_tree_iteratorIS0_E
FN:516,_ZNSt8_Rb_treeI10CoordinateS0_St9_IdentityIS0_ENS0_10comparatorESaIS0_EE8_S_rightEPSt18_Rb_tree_node_base
FN:508,_ZNSt8_Rb_treeI10CoordinateS0_St9_IdentityIS0_ENS0_10comparatorESaIS0_EE7_S_leftEPSt18_Rb_tree_node_base
FN:242,_ZNSt23_Rb_tree_const_iteratorI10CoordinateEC1EPKSt13_Rb_tree_nodeIS0_E
FN:632,_ZNKSt8_Rb_treeI10CoordinateS0_St9_IdentityIS0_ENS0_10comparatorESaIS0_EE5beginEv
FN:643,_ZNKSt8_Rb_treeI10CoordinateS0_St9_IdentityIS0_ENS0_10comparatorESaIS0_EE3endEv
FN:492,_ZNSt8_Rb_treeI10CoordinateS0_St9_IdentityIS0_ENS0_10comparatorESaIS0_EE6_M_endEv
FN:212,_ZNKSt17_Rb_tree_iteratorI10CoordinateEeqERKS1_
FN:170,_ZNSt17_Rb_tree_iteratorI10CoordinateEC1EPSt13_Rb_tree_nodeIS0_E
FN:639,_ZNSt8_Rb_treeI10CoordinateS0_St9_IdentityIS0_ENS0_10comparatorESaIS0_EE3endEv
FN:625,_ZNSt8_Rb_treeI10CoordinateS0_St9_IdentityIS0_ENS0_10comparatorESaIS0_EE5beginEv
FN:465,_ZNSt8_Rb_treeI10CoordinateS0_St9_IdentityIS0_ENS0_10comparatorESaIS0_EE11_M_leftmostEv
FN:457,_ZNSt8_Rb_treeI10CoordinateS0_St9_IdentityIS0_ENS0_10comparatorESaIS0_EE7_M_rootEv
FN:473,_ZNSt8_Rb_treeI10CoordinateS0_St9_IdentityIS0_ENS0_10comparatorESaIS0_EE12_M_rightmostEv
FN:444,_ZNSt8_Rb_treeI10CoordinateS0_St9_IdentityIS0_ENS0_10comparatorESaIS0_EE13_Rb_tree_implIS3_Lb1EE13_M_initializeEv
FN:524,_ZNSt8_Rb_treeI10CoordinateS0_St9_IdentityIS0_ENS0_10comparatorESaIS0_EE8_S_valueEPKSt18_Rb_tree_node_base
FN:528,_ZNSt8_Rb_treeI10CoordinateS0_St9_IdentityIS0_ENS0_10comparatorESaIS0_EE6_S_keyEPKSt18_Rb_tree_node_base
FN:500,_ZNSt8_Rb_treeI10CoordinateS0_St9_IdentityIS0_ENS0_10comparatorESaIS0_EE8_S_valueEPKSt13_Rb_tree_nodeIS0_E
FN:504,_ZNSt8_Rb_treeI10CoordinateS0_St9_IdentityIS0_ENS0_10comparatorESaIS0_EE6_S_keyEPKSt13_Rb_tree_nodeIS0_E
FN:981,_ZNSt8_Rb_treeI10CoordinateS0_St9_IdentityIS0_ENS0_10comparatorESaIS0_EE14_M_lower_boundEPSt13_Rb_tree_nodeIS0_ES8_RKS0_
FN:1418,_ZNSt8_Rb_treeI10CoordinateS0_St9_IdentityIS0_ENS0_10comparatorESaIS0_EE4findERKS0_
FN:349,_ZNKSt8_Rb_treeI10CoordinateS0_St9_IdentityIS0_ENS0_10comparatorESaIS0_EE21_M_get_Node_allocatorEv
FN:432,_ZNSt8_Rb_treeI10CoordinateS0_St9_IdentityIS0_ENS0_10comparatorESaIS0_EE13_Rb_tree_implIS3_Lb1EEC1Ev
FN:591,_ZNSt8_Rb_treeI10CoordinateS0_St9_IdentityIS0_ENS0_10comparatorESaIS0_EEC1Ev
FN:427,_ZNSt8_Rb_treeI10CoordinateS0_St9_IdentityIS0_ENS0_10comparatorESaIS0_EE13_Rb_tree_implIS3_Lb1EED1Ev
FN:353,_ZNKSt8_Rb_treeI10CoordinateS0_St9_IdentityIS0_ENS0_10comparatorESaIS0_EE13get_allocatorEv
FN:362,_ZNSt8_Rb_treeI10CoordinateS0_St9_IdentityIS0_ENS0_10comparatorESaIS0_EE11_M_put_nodeEPSt13_Rb_tree_nodeIS0_E
FN:381,_ZNSt8_Rb_treeI10CoordinateS0_St9_IdentityIS0_ENS0_10comparatorESaIS0_EE15_M_destroy_nodeEPSt13_Rb_tree_nodeIS0_E
FN:964,_ZNSt8_Rb_treeI10CoordinateS0_St9_IdentityIS0_ENS0_10comparatorESaIS0_EE8_M_eraseEPSt13_Rb_tree_nodeIS0_E
FN:724,_ZNSt8_Rb_treeI10CoordinateS0_St9_IdentityIS0_ENS0_10comparatorESaIS0_EE5clearEv
FN:613,_ZNSt8_Rb_treeI10CoordinateS0_St9_IdentityIS0_ENS0_10comparatorESaIS0_EED1Ev
FN:358,_ZNSt8_Rb_treeI10CoordinateS0_St9_IdentityIS0_ENS0_10comparatorESaIS0_EE11_M_get_nodeEv
FN:367,_ZNSt8_Rb_treeI10CoordinateS0_St9_IdentityIS0_ENS0_10comparatorESaIS0_EE14_M_create_nodeERKS0_
FN:197,_ZNSt17_Rb_tree_iteratorI10CoordinateEmmEv
FN:874,_ZNSt8_Rb_treeI10CoordinateS0_St9_IdentityIS0_ENS0_10comparatorESaIS0_EE10_M_insert_EPKSt18_Rb_tree_node_baseS8_RKS0_
FN:1161,_ZNSt8_Rb_treeI10CoordinateS0_St9_IdentityIS0_ENS0_10comparatorESaIS0_EE16_M_insert_uniqueERKS0_
FN:264,_ZNSt23_Rb_tree_const_iteratorI10CoordinateEppEi
FNDA:689,_ZNSt17_Rb_tree_iteratorI10CoordinateEC1EPSt13_Rb_tree_nodeIS0_E
FNDA:0,_ZNSt17_Rb_tree_iteratorI10CoordinateEmmEv
FNDA:72,_ZNKSt17_Rb_tree_iteratorI10CoordinateEeqERKS1_
FNDA:12,_ZNSt23_Rb_tree_const_iteratorI10CoordinateEC1Ev
FNDA:224,_ZNSt23_Rb_tree_const_iteratorI10CoordinateEC1EPKSt13_Rb_tree_nodeIS0_E
FNDA:314,_ZNSt23_Rb_tree_const_iteratorI10CoordinateEC1ERKSt17_Rb_tree_iteratorIS0_E
FNDA:167,_ZNKSt23_Rb_tree_const_iteratorI10CoordinateEdeEv
FNDA:146,_ZNSt23_Rb_tree_const_iteratorI10CoordinateEppEi
FNDA:20,_ZNKSt23_Rb_tree_const_iteratorI10CoordinateEeqERKS1_
FNDA:181,_ZNKSt23_Rb_tree_const_iteratorI10CoordinateEneERKS1_
FNDA:564,_ZNKSt8_Rb_treeI10CoordinateS0_St9_IdentityIS0_ENS0_10comparatorESaIS0_EE21_M_get_Node_allocatorEv
FNDA:564,_ZNKSt8_Rb_treeI10CoordinateS0_St9_IdentityIS0_ENS0_10comparatorESaIS0_EE13get_allocatorEv
FNDA:282,_ZNSt8_Rb_treeI10CoordinateS0_St9_IdentityIS0_ENS0_10comparatorESaIS0_EE11_M_get_nodeEv
FNDA:282,_ZNSt8_Rb_treeI10CoordinateS0_St9_IdentityIS0_ENS0_10comparatorESaIS0_EE11_M_put_nodeEPSt13_Rb_tree_nodeIS0_E
FNDA:282,_ZNSt8_Rb_treeI10CoordinateS0_St9_IdentityIS0_ENS0_10comparatorESaIS0_EE14_M_create_nodeERKS0_
FNDA:282,_ZNSt8_Rb_treeI10CoordinateS0_St9_IdentityIS0_ENS0_10comparatorESaIS0_EE15_M_destroy_nodeEPSt13_Rb_tree_nodeIS0_E
FNDA:42,_ZNSt8_Rb_treeI10CoordinateS0_St9_IdentityIS0_ENS0_10comparatorESaIS0_EE13_Rb_tree_implIS3_Lb1EED1Ev
FNDA:42,_ZNSt8_Rb_treeI10CoordinateS0_St9_IdentityIS0_ENS0_10comparatorESaIS0_EE13_Rb_tree_implIS3_Lb1EEC1Ev
FNDA:42,_ZNSt8_Rb_treeI10CoordinateS0_St9_IdentityIS0_ENS0_10comparatorESaIS0_EE13_Rb_tree_implIS3_Lb1EE13_M_initializeEv
FNDA:3,_ZNSt8_Rb_treeI10CoordinateS0_St9_IdentityIS0_ENS0_10comparatorESaIS0_EE7_M_rootEv
FNDA:3,_ZNSt8_Rb_treeI10CoordinateS0_St9_IdentityIS0_ENS0_10comparatorESaIS0_EE11_M_leftmostEv
FNDA:3,_ZNSt8_Rb_treeI10CoordinateS0_St9_IdentityIS0_ENS0_10comparatorESaIS0_EE12_M_rightmostEv
FNDA:359,_ZNSt8_Rb_treeI10CoordinateS0_St9_IdentityIS0_ENS0_10comparatorESaIS0_EE8_M_beginEv
FNDA:602,_ZNSt8_Rb_treeI10CoordinateS0_St9_IdentityIS0_ENS0_10comparatorESaIS0_EE6_M_endEv
FNDA:927,_ZNSt8_Rb_treeI10CoordinateS0_St9_IdentityIS0_ENS0_10comparatorESaIS0_EE8_S_valueEPKSt13_Rb_tree_nodeIS0_E
FNDA:927,_ZNSt8_Rb_treeI10CoordinateS0_St9_IdentityIS0_ENS0_10comparatorESaIS0_EE6_S_keyEPKSt13_Rb_tree_nodeIS0_E
FNDA:303,_ZNSt8_Rb_treeI10CoordinateS0_St9_IdentityIS0_ENS0_10comparatorESaIS0_EE7_S_leftEPSt18_Rb_tree_node_base
FNDA:1188,_ZNSt8_Rb_treeI10CoordinateS0_St9_IdentityIS0_ENS0_10comparatorESaIS0_EE8_S_rightEPSt18_Rb_tree_node_base
FNDA:495,_ZNSt8_Rb_treeI10CoordinateS0_St9_IdentityIS0_ENS0_10comparatorESaIS0_EE8_S_valueEPKSt18_Rb_tree_node_base
FNDA:495,_ZNSt8_Rb_treeI10CoordinateS0_St9_IdentityIS0_ENS0_10comparatorESaIS0_EE6_S_keyEPKSt18_Rb_tree_node_base
FNDA:42,_ZNSt8_Rb_treeI10CoordinateS0_St9_IdentityIS0_ENS0_10comparatorESaIS0_EEC1Ev
FNDA:42,_ZNSt8_Rb_treeI10CoordinateS0_St9_IdentityIS0_ENS0_10comparatorESaIS0_EED1Ev
FNDA:40,_ZNSt8_Rb_treeI10CoordinateS0_St9_IdentityIS0_ENS0_10comparatorESaIS0_EE5beginEv
FNDA:23,_ZNKSt8_Rb_treeI10CoordinateS0_St9_IdentityIS0_ENS0_10comparatorESaIS0_EE5beginEv
FNDA:53,_ZNSt8_Rb_treeI10CoordinateS0_St9_IdentityIS0_ENS0_10comparatorESaIS0_EE3endEv
FNDA:201,_ZNKSt8_Rb_treeI10CoordinateS0_St9_IdentityIS0_ENS0_10comparatorESaIS0_EE3endEv
FNDA:3,_ZNSt8_Rb_treeI10CoordinateS0_St9_IdentityIS0_ENS0_10comparatorESaIS0_EE5clearEv
FNDA:282,_ZNSt8_Rb_treeI10CoordinateS0_St9_IdentityIS0_ENS0_10comparatorESaIS0_EE10_M_insert_EPKSt18_Rb_tree_node_baseS8_RKS0_
FNDA:327,_ZNSt8_Rb_treeI10CoordinateS0_St9_IdentityIS0_ENS0_10comparatorESaIS0_EE8_M_eraseEPSt13_Rb_tree_nodeIS0_E
FNDA:32,_ZNSt8_Rb_treeI10CoordinateS0_St9_IdentityIS0_ENS0_10comparatorESaIS0_EE14_M_lower_boundEPSt13_Rb_tree_nodeIS0_ES8_RKS0_
FNDA:282,_ZNSt8_Rb_treeI10CoordinateS0_St9_IdentityIS0_ENS0_10comparatorESaIS0_EE16_M_insert_uniqueERKS0_
FNDA:32,_ZNSt8_Rb_treeI10CoordinateS0_St9_IdentityIS0_ENS0_10comparatorESaIS0_EE4findERKS0_
FNF:42
FNH:41
DA:170,689
DA:171,689
DA:197,0
DA:199,0
DA:200,0
DA:212,72
DA:213,72
DA:238,12
DA:239,12
DA:242,224
DA:243,224
DA:245,314
DA:246,314
DA:249,167
DA:250,167
DA:264,146
DA:266,146
DA:267,146
DA:287,20
DA:288,20
DA:291,181
DA:292,181
DA:349,564
DA:350,564
DA:353,564
DA:354,564
DA:358,282
DA:359,282
DA:362,282
DA:363,282
DA:367,282
DA:369,282
DA:371,282
DA:372,0
DA:374,0
DA:375,0
DA:377,282
DA:381,282
DA:383,282
DA:384,282
DA:385,282
DA:427,42
DA:432,42
DA:434,42
DA:435,42
DA:444,42
DA:446,42
DA:447,42
DA:448,42
DA:449,42
DA:450,42
DA:457,3
DA:458,3
DA:465,3
DA:466,3
DA:473,3
DA:474,3
DA:481,359
DA:482,359
DA:492,602
DA:493,602
DA:500,927
DA:501,927
DA:504,927
DA:505,927
DA:508,303
DA:509,303
DA:516,1188
DA:517,1188
DA:524,495
DA:525,495
DA:528,495
DA:529,495
DA:591,42
DA:613,42
DA:614,42
DA:625,40
DA:628,40
DA:632,23
DA:635,23
DA:639,53
DA:640,53
DA:643,201
DA:646,201
DA:724,3
DA:726,3
DA:727,3
DA:728,3
DA:729,3
DA:730,3
DA:731,3
DA:874,282
DA:879,282
DA:881,282
DA:883,282
DA:886,282
DA:887,282
DA:964,327
DA:968,936
DA:970,282
DA:971,282
DA:972,282
DA:973,282
DA:975,327
DA:981,32
DA:985,111
DA:986,47
DA:987,21
DA:989,26
DA:990,32
DA:1161,282
DA:1164,282
DA:1165,282
DA:1166,282
DA:1167,1444
DA:1169,880
DA:1170,880
DA:1171,880
DA:1173,282
DA:1174,282
DA:1176,40
DA:1177,40
DA:1179,0
DA:1181,242
DA:1182,242
DA:1183,0
DA:1418,32
DA:1421,32
DA:1424,32
BA:879,2
BA:879,1
BA:879,2
BA:879,2
BA:879,1
BA:879,2
BA:968,2
BA:968,2
BA:985,2
BA:985,2
BA:986,2
BA:986,2
BA:1167,2
BA:1167,2
BA:1171,1
BA:1171,2
BA:1174,2
BA:1174,2
BA:1176,2
BA:1176,1
BA:1181,2
BA:1181,1
BA:1424,2
BA:1424,2
BA:1424,1
BA:1424,2
LF:129
LH:121
end_of_record
SF:/usr/include/c++/4.4/bits/stl_uninitialized.h
FN:180,_ZNSt22__uninitialized_fill_nILb0EE20uninitialized_fill_nIP10CoordinatejS2_EEvT_T0_RKT1_
FN:218,_ZSt20uninitialized_fill_nIP10CoordinatejS0_EvT_T0_RKT1_
FN:316,_ZSt24__uninitialized_fill_n_aIP10CoordinatejS0_S0_EvT_T0_RKT1_RSaIT2_E
FNDA:0,_ZNSt22__uninitialized_fill_nILb0EE20uninitialized_fill_nIP10CoordinatejS2_EEvT_T0_RKT1_
FNDA:0,_ZSt20uninitialized_fill_nIP10CoordinatejS0_EvT_T0_RKT1_
FNDA:0,_ZSt24__uninitialized_fill_n_aIP10CoordinatejS0_S0_EvT_T0_RKT1_RSaIT2_E
FNF:3
FNH:0
DA:180,0
DA:183,0
DA:186,0
DA:187,0
DA:189,0
DA:191,0
DA:192,0
DA:194,0
DA:218,0
DA:223,0
DA:225,0
DA:316,0
DA:318,0
BA:186,0
BA:186,0
LF:13
LH:0
end_of_record
SF:/usr/include/c++/4.4/bits/stl_vector.h
FN:610,_ZNSt6vectorI10CoordinateSaIS0_EEixEj
FN:434,_ZNKSt6vectorI10CoordinateSaIS0_EE5beginEv
FN:452,_ZNKSt6vectorI10CoordinateSaIS0_EE3endEv
FN:93,_ZNSt12_Vector_baseI10CoordinateSaIS0_EE19_M_get_Tp_allocatorEv
FN:84,_ZNSt12_Vector_baseI10CoordinateSaIS0_EE12_Vector_implC1ERKS1_
FN:75,_ZNSt12_Vector_baseI10CoordinateSaIS0_EE12_Vector_implD1Ev
FN:143,_ZNSt12_Vector_baseI10CoordinateSaIS0_EE13_M_deallocateEPS0_j
FN:131,_ZNSt12_Vector_baseI10CoordinateSaIS0_EED2Ev
FN:312,_ZNSt6vectorI10CoordinateSaIS0_EED1Ev
FN:139,_ZNSt12_Vector_baseI10CoordinateSaIS0_EE11_M_allocateEj
FN:110,_ZNSt12_Vector_baseI10CoordinateSaIS0_EEC2EjRKS1_
FN:1033,_ZNSt6vectorI10CoordinateSaIS0_EE18_M_fill_initializeEjRKS0_
FN:227,_ZNSt6vectorI10CoordinateSaIS0_EEC1EjRKS0_RKS1_
FNDA:0,_ZNSt12_Vector_baseI10CoordinateSaIS0_EE12_Vector_implD1Ev
FNDA:0,_ZNSt12_Vector_baseI10CoordinateSaIS0_EE12_Vector_implC1ERKS1_
FNDA:0,_ZNSt12_Vector_baseI10CoordinateSaIS0_EE19_M_get_Tp_allocatorEv
FNDA:0,_ZNSt12_Vector_baseI10CoordinateSaIS0_EEC2EjRKS1_
FNDA:0,_ZNSt12_Vector_baseI10CoordinateSaIS0_EED2Ev
FNDA:0,_ZNSt12_Vector_baseI10CoordinateSaIS0_EE11_M_allocateEj
FNDA:0,_ZNSt12_Vector_baseI10CoordinateSaIS0_EE13_M_deallocateEPS0_j
FNDA:0,_ZNSt6vectorI10CoordinateSaIS0_EEC1EjRKS0_RKS1_
FNDA:0,_ZNSt6vectorI10CoordinateSaIS0_EED1Ev
FNDA:0,_ZNKSt6vectorI10CoordinateSaIS0_EE5beginEv
FNDA:0,_ZNKSt6vectorI10CoordinateSaIS0_EE3endEv
FNDA:0,_ZNSt6vectorI10CoordinateSaIS0_EEixEj
FNDA:0,_ZNSt6vectorI10CoordinateSaIS0_EE18_M_fill_initializeEjRKS0_
FNF:13
FNH:0
DA:75,0
DA:84,0
DA:85,0
DA:86,0
DA:93,0
DA:94,0
DA:110,0
DA:111,0
DA:113,0
DA:114,0
DA:115,0
DA:116,0
DA:131,0
DA:132,0
DA:133,0
DA:139,0
DA:140,0
DA:143,0
DA:145,0
DA:146,0
DA:147,0
DA:227,0
DA:229,0
DA:230,0
DA:312,0
DA:313,0
DA:314,0
DA:434,0
DA:435,0
DA:452,0
DA:453,0
DA:610,0
DA:611,0
DA:1033,0
DA:1035,0
DA:1037,0
DA:1038,0
BA:140,0
BA:140,0
BA:145,0
BA:145,0
LF:37
LH:0
end_of_record
SF:/usr/include/c++/4.4/ext/atomicity.h
FN:62,_ZN9__gnu_cxxL25__exchange_and_add_singleEPii
FN:45,_ZN9__gnu_cxxL18__exchange_and_addEPVii
FN:75,_ZN9__gnu_cxxL27__exchange_and_add_dispatchEPii
FNDA:0,_ZN9__gnu_cxxL18__exchange_and_addEPVii
FNDA:0,_ZN9__gnu_cxxL25__exchange_and_add_singleEPii
FNDA:0,_ZN9__gnu_cxxL27__exchange_and_add_dispatchEPii
FNF:3
FNH:0
DA:45,0
DA:46,0
DA:62,0
DA:64,0
DA:65,0
DA:66,0
DA:75,0
DA:78,0
DA:79,0
DA:81,0
BA:78,0
BA:78,0
LF:10
LH:0
end_of_record
SF:/usr/include/c++/4.4/ext/new_allocator.h
FN:66,_ZN9__gnu_cxx13new_allocatorIcEC2Ev
FN:73,_ZN9__gnu_cxx13new_allocatorIcED2Ev
FN:66,_ZN9__gnu_cxx13new_allocatorI10CoordinateEC2Ev
FN:73,_ZN9__gnu_cxx13new_allocatorI10CoordinateED2Ev
FN:73,_ZN9__gnu_cxx13new_allocatorISt13_Rb_tree_nodeI10CoordinateEED2Ev
FN:68,_ZN9__gnu_cxx13new_allocatorIcEC2ERKS1_
FN:115,_ZN9__gnu_cxx13new_allocatorI10CoordinateE7destroyEPS1_
FN:66,_ZN9__gnu_cxx13new_allocatorISt13_Rb_tree_nodeI10CoordinateEEC2Ev
FN:68,_ZN9__gnu_cxx13new_allocatorI10CoordinateEC2ERKS2_
FN:98,_ZNK9__gnu_cxx13new_allocatorI10CoordinateE8max_sizeEv
FN:98,_ZNK9__gnu_cxx13new_allocatorISt13_Rb_tree_nodeI10CoordinateEE8max_sizeEv
FN:104,_ZN9__gnu_cxx13new_allocatorI10CoordinateE9constructEPS1_RKS1_
FN:94,_ZN9__gnu_cxx13new_allocatorI10CoordinateE10deallocateEPS1_j
FN:94,_ZN9__gnu_cxx13new_allocatorISt13_Rb_tree_nodeI10CoordinateEE10deallocateEPS3_j
FN:84,_ZN9__gnu_cxx13new_allocatorI10CoordinateE8allocateEjPKv
FN:84,_ZN9__gnu_cxx13new_allocatorISt13_Rb_tree_nodeI10CoordinateEE8allocateEjPKv
FNDA:0,_ZN9__gnu_cxx13new_allocatorIcEC2Ev
FNDA:0,_ZN9__gnu_cxx13new_allocatorI10CoordinateEC2Ev
FNDA:42,_ZN9__gnu_cxx13new_allocatorISt13_Rb_tree_nodeI10CoordinateEEC2Ev
FNDA:0,_ZN9__gnu_cxx13new_allocatorIcEC2ERKS1_
FNDA:0,_ZN9__gnu_cxx13new_allocatorI10CoordinateEC2ERKS2_
FNDA:0,_ZN9__gnu_cxx13new_allocatorIcED2Ev
FNDA:0,_ZN9__gnu_cxx13new_allocatorI10CoordinateED2Ev
FNDA:42,_ZN9__gnu_cxx13new_allocatorISt13_Rb_tree_nodeI10CoordinateEED2Ev
FNDA:0,_ZN9__gnu_cxx13new_allocatorI10CoordinateE8allocateEjPKv
FNDA:282,_ZN9__gnu_cxx13new_allocatorISt13_Rb_tree_nodeI10CoordinateEE8allocateEjPKv
FNDA:0,_ZN9__gnu_cxx13new_allocatorI10CoordinateE10deallocateEPS1_j
FNDA:282,_ZN9__gnu_cxx13new_allocatorISt13_Rb_tree_nodeI10CoordinateEE10deallocateEPS3_j
FNDA:0,_ZNK9__gnu_cxx13new_allocatorI10CoordinateE8max_sizeEv
FNDA:282,_ZNK9__gnu_cxx13new_allocatorISt13_Rb_tree_nodeI10CoordinateEE8max_sizeEv
FNDA:282,_ZN9__gnu_cxx13new_allocatorI10CoordinateE9constructEPS1_RKS1_
FNDA:282,_ZN9__gnu_cxx13new_allocatorI10CoordinateE7destroyEPS1_
FNF:16
FNH:7
DA:66,42
DA:68,0
DA:73,42
DA:84,282
DA:86,282
DA:87,0
DA:89,282
DA:94,282
DA:95,282
DA:98,282
DA:99,282
DA:104,282
DA:105,282
DA:115,282
BA:86,0
BA:86,0
BA:86,1
BA:86,2
BA:105,2
BA:105,1
LF:14
LH:12
end_of_record
SF:/usr/include/c++/4.4/i486-linux-gnu/bits/gthr-default.h
FN:238,_ZL18__gthread_active_pv
FNDA:0,_ZL18__gthread_active_pv
FNF:1
FNH:0
DA:238,0
DA:242,0
LF:2
LH:0
end_of_record
SF:/usr/include/c++/4.4/iostream
DA:72,1
LF:1
LH:1
end_of_record
SF:/usr/include/c++/4.4/new
FN:101,_ZnwjPv
FN:105,_ZdlPvS_
FNDA:0,_ZnwjPv
FNDA:0,_ZdlPvS_
FNF:2
FNH:0
DA:101,0
DA:105,0
LF:2
LH:0
end_of_record
SF:/usr/include/c++/4.4/ostream
FN:108,_ZNSolsEPFRSoS_E
FN:505,_ZStlsISt11char_traitsIcEERSt13basic_ostreamIcT_ES5_PKc
FN:559,_ZSt5flushIcSt11char_traitsIcEERSt13basic_ostreamIT_T0_ES6_
FN:538,_ZSt4endlIcSt11char_traitsIcEERSt13basic_ostreamIT_T0_ES6_
FNDA:0,_ZNSolsEPFRSoS_E
FNDA:0,_ZStlsISt11char_traitsIcEERSt13basic_ostreamIcT_ES5_PKc
FNDA:0,_ZSt4endlIcSt11char_traitsIcEERSt13basic_ostreamIT_T0_ES6_
FNDA:0,_ZSt5flushIcSt11char_traitsIcEERSt13basic_ostreamIT_T0_ES6_
FNF:4
FNH:0
DA:108,0
DA:113,0
DA:505,0
DA:507,0
DA:508,0
DA:510,0
DA:512,0
DA:538,0
DA:539,0
DA:559,0
DA:560,0
BA:507,0
BA:507,0
LF:11
LH:0
end_of_record
SF:/usr/include/c++/4.4/bits/allocator.h
FN:101,_ZNSaISt13_Rb_tree_nodeI10CoordinateEEC2Ev
FN:109,_ZNSaISt13_Rb_tree_nodeI10CoordinateEED2Ev
FN:101,_ZNSaI10CoordinateEC1Ev
FN:103,_ZNSaI10CoordinateEC2ERKS0_
FN:109,_ZNSaI10CoordinateED2Ev
FN:109,_ZNSaI10CoordinateED1Ev
FN:107,_ZNSaI10CoordinateEC1ISt13_Rb_tree_nodeIS_EEERKSaIT_E
FN:101,_ZNSaIcEC1Ev
FN:103,_ZNSaIcEC1ERKS_
FN:109,_ZNSaIcED2Ev
FN:109,_ZNSaIcED1Ev
DA:101,988
DA:103,1737
DA:104,1737
DA:107,5072
DA:109,7797
DA:167,252
DA:168,252
LF:7
LH:7
end_of_record
SF:/usr/include/c++/4.4/ext/atomicity.h
FN:62,_ZN9__gnu_cxxL25__exchange_and_add_singleEPii
FN:45,_ZN9__gnu_cxxL18__exchange_and_addEPVii
FN:75,_ZN9__gnu_cxxL27__exchange_and_add_dispatchEPii
DA:45,0
DA:46,0
DA:62,0
DA:64,0
DA:65,0
DA:66,0
DA:75,0
DA:78,0
DA:79,0
DA:81,0
LF:10
LH:0
end_of_record
SF:/usr/include/c++/4.4/bits/basic_ios.h
FN:127,_ZNKSt9basic_iosIcSt11char_traitsIcEE7rdstateEv
FN:147,_ZNSt9basic_iosIcSt11char_traitsIcEE8setstateESt12_Ios_Iostate
FN:46,_ZSt13__check_facetISt5ctypeIcEERKT_PS3_
FN:439,_ZNKSt9basic_iosIcSt11char_traitsIcEE5widenEc
DA:46,0
DA:48,0
DA:49,0
DA:50,0
DA:115,0
DA:116,0
DA:127,0
DA:128,0
DA:147,0
DA:148,0
DA:191,0
DA:192,0
DA:360,0
DA:362,0
DA:364,0
DA:365,0
DA:367,0
DA:380,0
DA:382,0
DA:383,0
DA:384,0
DA:439,0
DA:440,0
LF:23
LH:0
end_of_record
SF:/usr/include/c++/4.4/bits/basic_string.h
FN:272,_ZNKSs7_M_dataEv
FN:280,_ZNKSs6_M_repEv
FN:173,_ZNSs4_Rep12_S_empty_repEv
FN:1632,_ZNKSs13get_allocatorEv
FN:253,_ZNSs12_Alloc_hiderD1Ev
FN:224,_ZNSs4_Rep10_M_disposeERKSaIcE
FN:497,_ZNSsD1Ev
DA:173,0
DA:178,0
DA:179,0
DA:183,0
DA:184,0
DA:209,0
DA:210,0
DA:224,0
DA:227,0
DA:229,0
DA:231,0
DA:232,0
DA:253,0
DA:254,0
DA:255,0
DA:272,0
DA:273,0
DA:280,0
DA:281,0
DA:294,0
DA:296,0
DA:297,0
DA:298,0
DA:406,0
DA:407,0
DA:497,0
DA:498,0
DA:505,0
DA:506,0
DA:623,0
DA:624,0
DA:775,0
DA:777,0
DA:778,0
DA:779,0
DA:780,0
DA:1632,0
DA:1633,0
DA:2147,0
DA:2150,0
DA:2541,0
DA:2543,0
LF:42
LH:0
end_of_record
SF:/home/frechilla/workspace/headless/blockem_sourceforge/src/board.h
FN:103,_ZNK5Board8GetNRowsEv
FN:109,_ZNK5Board11GetNColumnsEv
FN:55,_ZNK5Board12IsCoordEmptyERK10Coordinate
FN:91,_ZN5Board16SetPlayerInCoordERK10CoordinateRK6Player
FN:79,_ZNK5Board15IsPlayerInCoordERK10CoordinateRK6Player
FN:67,_ZN5Board10BlankCoordERK10Coordinate
FNDA:0,_ZNK5Board12IsCoordEmptyERK10Coordinate
FNDA:0,_ZN5Board10BlankCoordERK10Coordinate
FNDA:0,_ZNK5Board15IsPlayerInCoordERK10CoordinateRK6Player
FNDA:0,_ZN5Board16SetPlayerInCoordERK10CoordinateRK6Player
FNDA:0,_ZNK5Board8GetNRowsEv
FNDA:0,_ZNK5Board11GetNColumnsEv
FNF:6
FNH:0
DA:55,0
DA:58,0
DA:59,0
DA:60,0
DA:61,0
DA:63,0
DA:67,0
DA:70,0
DA:71,0
DA:72,0
DA:73,0
DA:75,0
DA:76,0
DA:79,0
DA:82,0
DA:83,0
DA:84,0
DA:85,0
DA:87,0
DA:91,0
DA:94,0
DA:95,0
DA:96,0
DA:97,0
DA:99,0
DA:100,0
DA:103,0
DA:105,0
DA:109,0
DA:111,0
BA:58,0
BA:58,0
BA:59,0
BA:59,0
BA:60,0
BA:60,0
BA:61,0
BA:61,0
BA:70,0
BA:70,0
BA:71,0
BA:71,0
BA:72,0
BA:72,0
BA:73,0
BA:73,0
BA:82,0
BA:82,0
BA:83,0
BA:83,0
BA:84,0
BA:84,0
BA:85,0
BA:85,0
BA:94,0
BA:94,0
BA:95,0
BA:95,0
BA:96,0
BA:96,0
BA:97,0
BA:97,0
LF:30
LH:0
end_of_record
SF:/usr/include/c++/4.4/bits/char_traits.h
FN:262,_ZNSt11char_traitsIcE6lengthEPKc
DA:262,0
DA:263,0
LF:2
LH:0
end_of_record
SF:/home/frechilla/workspace/headless/blockem_sourceforge/src/coordinate.h
FN:49,_ZN10CoordinateC1Ev
FN:53,_ZN10CoordinateC1Eii
FN:75,_ZNK10Coordinate10comparatorclERKS_S2_
FN:47,_ZN10CoordinateaSERKS_
FN:47,_ZN10CoordinateC1ERKS_
FN:57,_ZN10CoordinateD0Ev
FN:57,_ZN10CoordinateD1Ev
FNDA:0,_ZN10CoordinateaSERKS_
FNDA:0,_ZN10CoordinateC1ERKS_
FNDA:0,_ZN10CoordinateC1Ev
FNDA:0,_ZN10CoordinateC1Eii
FNDA:0,_ZN10CoordinateD0Ev
FNDA:0,_ZN10CoordinateD1Ev
FNDA:1422,_ZNK10Coordinate10comparatorclERKS_S2_
FNF:7
FNH:1
DA:47,0
DA:49,0
DA:51,0
DA:52,0
DA:53,0
DA:55,0
DA:56,0
DA:57,0
DA:58,0
DA:75,1422
DA:77,1422
DA:80,268
DA:83,1154
BA:58,0
BA:58,0
BA:58,0
BA:58,0
BA:77,2
BA:77,2
BA:77,2
BA:77,2
BA:77,2
BA:77,2
LF:13
LH:4
end_of_record
SF:/home/frechilla/workspace/headless/blockem_sourceforge/src/game_total_allocation.cpp
FN:310,_Z41__static_initialization_and_destruction_0ii
FN:310,_GLOBAL__I__ZN19GameTotalAllocationC2Eii
FN:86,_ZN19GameTotalAllocation12PutDownPieceERK10CoordinateRKSt6vectorIS0_SaIS0_EEi
FN:51,_ZN19GameTotalAllocation11RemovePieceERK10CoordinateRKSt6vectorIS0_SaIS0_EEi
FN:187,_ZN19GameTotalAllocation17AllocateAllPiecesEP12ePieceType_tPPSt3setI10CoordinateNS3_10comparatorESaIS3_EE
FN:121,_ZN19GameTotalAllocation5SolveERK10Coordinate
FN:47,_ZN19GameTotalAllocationD0Ev
FN:47,_ZN19GameTotalAllocationD1Ev
FN:47,_ZN19GameTotalAllocationD2Ev
FN:41,_ZN19GameTotalAllocationC1Eii
FN:41,_ZN19GameTotalAllocationC2Eii
FNDA:1,_ZN19GameTotalAllocationC1Eii
FNDA:0,_ZN19GameTotalAllocationC2Eii
FNDA:0,_ZN19GameTotalAllocationD0Ev
FNDA:1,_ZN19GameTotalAllocationD1Ev
FNDA:0,_ZN19GameTotalAllocationD2Ev
FNDA:0,_ZN19GameTotalAllocation11RemovePieceERK10CoordinateRKSt6vectorIS0_SaIS0_EEi
FNDA:21,_ZN19GameTotalAllocation12PutDownPieceERK10CoordinateRKSt6vectorIS0_SaIS0_EEi
FNDA:1,_ZN19GameTotalAllocation5SolveERK10Coordinate
FNDA:21,_ZN19GameTotalAllocation17AllocateAllPiecesEP12ePieceType_tPPSt3setI10CoordinateNS3_10comparatorESaIS3_EE
FNDA:1,_Z41__static_initialization_and_destruction_0ii
FNDA:1,_GLOBAL__I__ZN19GameTotalAllocationC2Eii
FNF:11
FNH:7
DA:41,1
DA:43,1
DA:45,1
DA:47,1
DA:49,1
DA:51,0
DA:57,0
DA:58,0
DA:60,0
DA:61,0
DA:64,0
DA:69,0
DA:72,0
DA:74,0
DA:76,0
DA:79,0
DA:83,0
DA:84,0
DA:86,21
DA:92,21
DA:93,21
DA:95,21
DA:96,21
DA:99,110
DA:104,89
DA:107,89
DA:109,89
DA:111,89
DA:114,89
DA:118,21
DA:119,21
DA:121,1
DA:123,1
DA:130,22
DA:132,21
DA:133,21
DA:137,1
DA:139,1
DA:141,1
DA:143,1
DA:146,1
DA:147,1
DA:149,1
DA:158,1
DA:159,1
DA:161,1
DA:163,0
DA:164,0
DA:167,1
DA:169,1
DA:171,1
DA:173,1
DA:176,0
DA:180,0
DA:184,0
DA:187,21
DA:193,21
DA:195,21
DA:197,1
DA:202,20
DA:203,20
DA:208,20
DA:210,20
DA:212,230
DA:214,209
DA:217,21
DA:219,21
DA:222,21
DA:223,21
DA:225,24
DA:229,23
DA:230,192
DA:239,1885
DA:248,1730
DA:250,12
DA:251,12
DA:252,12
DA:254,11
DA:255,11
DA:260,166
DA:263,11
DA:272,155
DA:273,155
DA:275,155
DA:278,20
DA:279,20
DA:281,20
DA:283,20
DA:287,20
DA:288,20
DA:290,20
DA:292,20
DA:295,0
DA:299,135
DA:302,3
DA:305,1
DA:309,0
DA:310,3
BA:49,0
BA:49,0
BA:49,1
BA:49,2
BA:49,0
BA:49,0
BA:57,0
BA:57,0
BA:58,0
BA:58,0
BA:60,0
BA:60,0
BA:61,0
BA:61,0
BA:64,0
BA:64,0
BA:72,0
BA:72,0
BA:72,0
BA:72,0
BA:74,0
BA:74,0
BA:74,0
BA:74,0
BA:76,0
BA:76,0
BA:92,1
BA:92,2
BA:93,1
BA:93,2
BA:95,1
BA:95,2
BA:96,1
BA:96,2
BA:99,2
BA:99,2
BA:107,2
BA:107,1
BA:107,1
BA:107,2
BA:109,2
BA:109,1
BA:109,1
BA:109,2
BA:111,2
BA:111,1
BA:130,2
BA:130,2
BA:139,2
BA:139,1
BA:139,2
BA:139,1
BA:149,2
BA:149,1
BA:161,1
BA:161,2
BA:167,2
BA:167,1
BA:171,2
BA:171,1
BA:195,2
BA:195,2
BA:210,2
BA:210,2
BA:210,2
BA:210,1
BA:212,2
BA:212,2
BA:225,2
BA:225,2
BA:230,2
BA:230,2
BA:239,2
BA:239,2
BA:248,2
BA:248,2
BA:252,2
BA:252,2
BA:260,2
BA:260,2
BA:275,2
BA:275,2
BA:279,2
BA:279,1
BA:290,2
BA:290,1
BA:310,2
BA:310,1
BA:310,2
BA:310,1
LF:98
LH:78
end_of_record
SF:/usr/include/c++/4.4/i486-linux-gnu/bits/gthr-default.h
FN:238,_ZL18__gthread_active_pv
DA:238,0
DA:242,0
LF:2
LH:0
end_of_record
SF:/usr/include/c++/4.4/bits/ios_base.h
FN:166,_ZStorSt12_Ios_IostateS_
DA:162,0
DA:163,0
DA:166,0
DA:167,0
DA:657,0
DA:659,0
DA:660,0
DA:661,0
LF:8
LH:0
end_of_record
SF:/usr/include/c++/4.4/iostream
DA:72,3
LF:1
LH:1
end_of_record
SF:/usr/include/c++/4.4/bits/locale_facets.h
FN:865,_ZNKSt5ctypeIcE5widenEc
DA:865,0
DA:867,0
DA:868,0
DA:869,0
DA:870,0
LF:5
LH:0
end_of_record
SF:/usr/include/c++/4.4/new
FN:101,_ZnwjPv
FN:105,_ZdlPvS_
DA:101,10326
DA:105,0
LF:2
LH:1
end_of_record
SF:/usr/include/c++/4.4/ext/new_allocator.h
FN:66,_ZN9__gnu_cxx13new_allocatorIcEC2Ev
FN:73,_ZN9__gnu_cxx13new_allocatorIcED2Ev
FN:66,_ZN9__gnu_cxx13new_allocatorI10CoordinateEC2Ev
FN:73,_ZN9__gnu_cxx13new_allocatorI10CoordinateED2Ev
FN:73,_ZN9__gnu_cxx13new_allocatorISt13_Rb_tree_nodeI10CoordinateEED2Ev
FN:68,_ZN9__gnu_cxx13new_allocatorIcEC2ERKS1_
FN:115,_ZN9__gnu_cxx13new_allocatorI10CoordinateE7destroyEPS1_
FN:66,_ZN9__gnu_cxx13new_allocatorISt13_Rb_tree_nodeI10CoordinateEEC2Ev
FN:68,_ZN9__gnu_cxx13new_allocatorI10CoordinateEC2ERKS2_
FN:98,_ZNK9__gnu_cxx13new_allocatorI10CoordinateE8max_sizeEv
FN:98,_ZNK9__gnu_cxx13new_allocatorISt13_Rb_tree_nodeI10CoordinateEE8max_sizeEv
FN:104,_ZN9__gnu_cxx13new_allocatorI10CoordinateE9constructEPS1_RKS1_
FN:94,_ZN9__gnu_cxx13new_allocatorI10CoordinateE10deallocateEPS1_j
FN:94,_ZN9__gnu_cxx13new_allocatorISt13_Rb_tree_nodeI10CoordinateEE10deallocateEPS3_j
FN:84,_ZN9__gnu_cxx13new_allocatorI10CoordinateE8allocateEjPKv
FN:84,_ZN9__gnu_cxx13new_allocatorISt13_Rb_tree_nodeI10CoordinateEE8allocateEjPKv
DA:66,6060
DA:68,1737
DA:73,7797
DA:84,3769
DA:86,3769
DA:87,0
DA:89,3769
DA:94,3769
DA:95,3769
DA:98,3769
DA:99,3769
DA:104,2284
DA:105,2284
DA:115,2284
LF:14
LH:13
end_of_record
SF:/usr/include/c++/4.4/ostream
FN:108,_ZNSolsEPFRSoS_E
FN:505,_ZStlsISt11char_traitsIcEERSt13basic_ostreamIcT_ES5_PKc
FN:559,_ZSt5flushIcSt11char_traitsIcEERSt13basic_ostreamIT_T0_ES6_
FN:538,_ZSt4endlIcSt11char_traitsIcEERSt13basic_ostreamIT_T0_ES6_
DA:108,0
DA:113,0
DA:457,0
DA:458,0
DA:505,0
DA:507,0
DA:508,0
DA:510,0
DA:512,0
DA:538,0
DA:539,0
DA:559,0
DA:560,0
LF:13
LH:0
end_of_record
SF:/home/frechilla/workspace/headless/blockem_sourceforge/src/piece.h
FN:152,_ZNK5Piece7GetTypeEv
FN:167,_ZNK5Piece9GetRadiusEv
FN:173,_ZNK5Piece21GetPrecalculatedConfsEv
FNDA:0,_ZNK5Piece7GetTypeEv
FNDA:0,_ZNK5Piece9GetRadiusEv
FNDA:0,_ZNK5Piece21GetPrecalculatedConfsEv
FNF:3
FNH:0
DA:152,0
DA:154,0
DA:167,0
DA:169,0
DA:173,0
DA:175,0
LF:6
LH:0
end_of_record
SF:/home/frechilla/workspace/headless/blockem_sourceforge/src/player.h
FN:80,_ZNK6Player16PresentationCharEv
FN:103,_ZN6Player21SetStartingCoordinateERK10Coordinate
FN:109,_ZNK6Player23NumberOfPiecesAvailableEv
FN:142,_ZNK6Player16IsPieceAvailableE12ePieceType_t
FN:120,_ZN6Player10UnsetPieceE12ePieceType_t
FN:131,_ZN6Player8SetPieceE12ePieceType_t
FNDA:0,_ZNK6Player16PresentationCharEv
FNDA:7,_ZN6Player21SetStartingCoordinateERK10Coordinate
FNDA:0,_ZNK6Player23NumberOfPiecesAvailableEv
FNDA:0,_ZN6Player10UnsetPieceE12ePieceType_t
FNDA:0,_ZN6Player8SetPieceE12ePieceType_t
FNDA:0,_ZNK6Player16IsPieceAvailableE12ePieceType_t
FNF:6
FNH:1
DA:80,0
DA:82,0
DA:103,7
DA:105,7
DA:106,7
DA:109,0
DA:111,0
DA:120,0
DA:123,0
DA:124,0
DA:126,0
DA:127,0
DA:128,0
DA:131,0
DA:134,0
DA:135,0
DA:137,0
DA:138,0
DA:139,0
DA:142,0
DA:145,0
DA:147,0
BA:123,0
BA:123,0
BA:123,0
BA:123,0
BA:124,0
BA:124,0
BA:134,0
BA:134,0
BA:134,0
BA:134,0
BA:135,0
BA:135,0
BA:145,0
BA:145,0
BA:145,0
BA:145,0
LF:22
LH:3
end_of_record
SF:/usr/include/c++/4.4/bits/stl_construct.h
FN:82,_ZSt8_DestroyI10CoordinateEvPT_
FN:90,_ZNSt12_Destroy_auxILb0EE9__destroyIP10CoordinateEEvT_S4_
FN:112,_ZSt8_DestroyIP10CoordinateEvT_S2_
FN:139,_ZSt8_DestroyIP10CoordinateS0_EvT_S2_RSaIT0_E
FN:70,_ZSt10_ConstructI10CoordinateS0_EvPT_RKT0_
DA:70,2420
DA:74,2420
DA:75,2420
DA:82,8042
DA:83,8042
DA:90,2093
DA:92,10135
DA:93,8042
DA:94,2093
DA:112,2093
DA:116,2093
DA:118,2093
DA:139,2093
DA:142,2093
DA:143,2093
LF:15
LH:15
end_of_record
SF:/usr/include/c++/4.4/bits/stl_function.h
FN:475,_ZNKSt9_IdentityI10CoordinateEclERKS0_
DA:475,2786
DA:476,2786
LF:2
LH:2
end_of_record
SF:/usr/include/c++/4.4/bits/stl_iterator.h
FN:702,_ZNK9__gnu_cxx17__normal_iteratorIPK10CoordinateSt6vectorIS1_SaIS1_EEEptEv
FN:686,_ZN9__gnu_cxx17__normal_iteratorIPK10CoordinateSt6vectorIS1_SaIS1_EEEC1ERKS3_
FN:713,_ZN9__gnu_cxx17__normal_iteratorIPK10CoordinateSt6vectorIS1_SaIS1_EEEppEi
FN:750,_ZNK9__gnu_cxx17__normal_iteratorIPK10CoordinateSt6vectorIS1_SaIS1_EEE4baseEv
FN:783,_ZN9__gnu_cxxneIPK10CoordinateSt6vectorIS1_SaIS1_EEEEbRKNS_17__normal_iteratorIT_T0_EESC_
DA:686,712040
DA:690,455
DA:694,455
DA:698,4554
DA:699,4554
DA:702,628648
DA:703,628648
DA:706,4554
DA:708,4554
DA:709,4554
DA:713,266286
DA:714,266286
DA:750,721483
DA:751,721483
DA:777,2525
DA:779,2525
DA:783,357590
DA:785,357590
DA:856,0
DA:858,0
LF:20
LH:18
end_of_record
SF:/usr/include/c++/4.4/bits/stl_list.h
FN:200,_ZNSt20_List_const_iteratorISt6vectorI10CoordinateSaIS1_EEEC1Ev
FN:255,_ZNKSt20_List_const_iteratorISt6vectorI10CoordinateSaIS1_EEEneERKS4_
FN:228,_ZNSt20_List_const_iteratorISt6vectorI10CoordinateSaIS1_EEEppEi
FN:213,_ZNKSt20_List_const_iteratorISt6vectorI10CoordinateSaIS1_EEEdeEv
FN:204,_ZNSt20_List_const_iteratorISt6vectorI10CoordinateSaIS1_EEEC1EPKSt15_List_node_base
FN:698,_ZNKSt4listISt6vectorI10CoordinateSaIS1_EESaIS3_EE5beginEv
FN:716,_ZNKSt4listISt6vectorI10CoordinateSaIS1_EESaIS3_EE3endEv
DA:128,3178
DA:129,3178
DA:133,364
DA:134,364
DA:141,364
DA:143,364
DA:144,364
DA:175,784
DA:176,784
DA:200,0
DA:201,0
DA:204,0
DA:205,0
DA:213,0
DA:214,0
DA:221,1456
DA:223,1456
DA:224,1456
DA:228,0
DA:230,0
DA:231,0
DA:251,168
DA:252,168
DA:255,854
DA:256,854
DA:300,714
DA:303,462
DA:304,462
DA:305,462
DA:307,252
DA:308,252
DA:309,252
DA:315,2002
DA:316,2002
DA:319,2002
DA:320,2002
DA:326,756
DA:327,756
DA:330,4004
DA:331,4004
DA:334,4004
DA:335,4004
DA:341,462
DA:342,462
DA:343,462
DA:345,252
DA:346,252
DA:347,504
DA:359,714
DA:360,714
DA:366,714
DA:368,714
DA:369,714
DA:370,714
DA:418,714
DA:459,2002
DA:461,2002
DA:464,2002
DA:466,0
DA:468,0
DA:469,0
DA:471,2002
DA:499,462
DA:500,462
DA:571,252
DA:573,252
DA:577,252
DA:578,252
DA:689,588
DA:690,588
DA:698,0
DA:699,0
DA:707,2590
DA:708,2590
DA:716,0
DA:717,0
DA:799,252
DA:800,252
DA:919,2002
DA:920,2002
DA:1048,252
DA:1051,252
DA:1052,252
DA:1053,252
DA:1092,84
DA:1094,168
DA:1095,0
DA:1096,84
DA:1152,252
DA:1155,252
DA:1157,252
DA:1159,252
DA:1161,252
DA:1357,252
DA:1360,1344
DA:1361,1092
DA:1362,252
DA:1399,252
DA:1400,252
DA:1405,2002
DA:1407,2002
DA:1408,2002
DA:1409,2002
DA:1422,0
DA:1424,0
DA:1425,0
DA:1429,0
DA:1431,0
DA:1432,0
DA:1436,252
DA:1438,252
DA:1440,0
DA:1441,252
LF:113
LH:89
end_of_record
SF:/usr/include/c++/4.4/bits/stl_pair.h
FN:83,_ZNSt4pairISt23_Rb_tree_const_iteratorI10CoordinateEbEC1ERKS2_RKb
FN:83,_ZNSt4pairISt17_Rb_tree_iteratorI10CoordinateEbEC1ERKS2_RKb
DA:83,564
DA:84,564
LF:2
LH:2
end_of_record
SF:/usr/include/c++/4.4/bits/stl_set.h
FN:291,_ZNKSt3setI10CoordinateNS0_10comparatorESaIS0_EE5beginEv
FN:300,_ZNKSt3setI10CoordinateNS0_10comparatorESaIS0_EE3endEv
FN:547,_ZNSt3setI10CoordinateNS0_10comparatorESaIS0_EE4findERKS0_
FN:136,_ZNSt3setI10CoordinateNS0_10comparatorESaIS0_EEC1Ev
FN:515,_ZNSt3setI10CoordinateNS0_10comparatorESaIS0_EE5clearEv
FN:88,_ZNSt3setI10CoordinateNS0_10comparatorESaIS0_EED1Ev
FN:408,_ZNSt3setI10CoordinateNS0_10comparatorESaIS0_EE6insertERKS0_
DA:88,42
DA:136,42
DA:137,42
DA:291,23
DA:292,23
DA:300,201
DA:301,201
DA:408,282
DA:411,282
DA:412,282
DA:515,3
DA:516,3
DA:547,32
DA:548,32
LF:14
LH:14
end_of_record
SF:/usr/include/c++/4.4/bits/stl_tree.h
FN:291,_ZNKSt23_Rb_tree_const_iteratorI10CoordinateEneERKS1_
FN:238,_ZNSt23_Rb_tree_const_iteratorI10CoordinateEC1Ev
FN:249,_ZNKSt23_Rb_tree_const_iteratorI10CoordinateEdeEv
FN:287,_ZNKSt23_Rb_tree_const_iteratorI10CoordinateEeqERKS1_
FN:481,_ZNSt8_Rb_treeI10CoordinateS0_St9_IdentityIS0_ENS0_10comparatorESaIS0_EE8_M_beginEv
FN:245,_ZNSt23_Rb_tree_const_iteratorI10CoordinateEC1ERKSt17_Rb_tree_iteratorIS0_E
FN:516,_ZNSt8_Rb_treeI10CoordinateS0_St9_IdentityIS0_ENS0_10comparatorESaIS0_EE8_S_rightEPSt18_Rb_tree_node_base
FN:508,_ZNSt8_Rb_treeI10CoordinateS0_St9_IdentityIS0_ENS0_10comparatorESaIS0_EE7_S_leftEPSt18_Rb_tree_node_base
FN:242,_ZNSt23_Rb_tree_const_iteratorI10CoordinateEC1EPKSt13_Rb_tree_nodeIS0_E
FN:632,_ZNKSt8_Rb_treeI10CoordinateS0_St9_IdentityIS0_ENS0_10comparatorESaIS0_EE5beginEv
FN:643,_ZNKSt8_Rb_treeI10CoordinateS0_St9_IdentityIS0_ENS0_10comparatorESaIS0_EE3endEv
FN:492,_ZNSt8_Rb_treeI10CoordinateS0_St9_IdentityIS0_ENS0_10comparatorESaIS0_EE6_M_endEv
FN:212,_ZNKSt17_Rb_tree_iteratorI10CoordinateEeqERKS1_
FN:170,_ZNSt17_Rb_tree_iteratorI10CoordinateEC1EPSt13_Rb_tree_nodeIS0_E
FN:639,_ZNSt8_Rb_treeI10CoordinateS0_St9_IdentityIS0_ENS0_10comparatorESaIS0_EE3endEv
FN:625,_ZNSt8_Rb_treeI10CoordinateS0_St9_IdentityIS0_ENS0_10comparatorESaIS0_EE5beginEv
FN:465,_ZNSt8_Rb_treeI10CoordinateS0_St9_IdentityIS0_ENS0_10comparatorESaIS0_EE11_M_leftmostEv
FN:457,_ZNSt8_Rb_treeI10CoordinateS0_St9_IdentityIS0_ENS0_10comparatorESaIS0_EE7_M_rootEv
FN:473,_ZNSt8_Rb_treeI10CoordinateS0_St9_IdentityIS0_ENS0_10comparatorESaIS0_EE12_M_rightmostEv
FN:444,_ZNSt8_Rb_treeI10CoordinateS0_St9_IdentityIS0_ENS0_10comparatorESaIS0_EE13_Rb_tree_implIS3_Lb1EE13_M_initializeEv
FN:524,_ZNSt8_Rb_treeI10CoordinateS0_St9_IdentityIS0_ENS0_10comparatorESaIS0_EE8_S_valueEPKSt18_Rb_tree_node_base
FN:528,_ZNSt8_Rb_treeI10CoordinateS0_St9_IdentityIS0_ENS0_10comparatorESaIS0_EE6_S_keyEPKSt18_Rb_tree_node_base
FN:500,_ZNSt8_Rb_treeI10CoordinateS0_St9_IdentityIS0_ENS0_10comparatorESaIS0_EE8_S_valueEPKSt13_Rb_tree_nodeIS0_E
FN:504,_ZNSt8_Rb_treeI10CoordinateS0_St9_IdentityIS0_ENS0_10comparatorESaIS0_EE6_S_keyEPKSt13_Rb_tree_nodeIS0_E
FN:981,_ZNSt8_Rb_treeI10CoordinateS0_St9_IdentityIS0_ENS0_10comparatorESaIS0_EE14_M_lower_boundEPSt13_Rb_tree_nodeIS0_ES8_RKS0_
FN:1418,_ZNSt8_Rb_treeI10CoordinateS0_St9_IdentityIS0_ENS0_10comparatorESaIS0_EE4findERKS0_
FN:349,_ZNKSt8_Rb_treeI10CoordinateS0_St9_IdentityIS0_ENS0_10comparatorESaIS0_EE21_M_get_Node_allocatorEv
FN:432,_ZNSt8_Rb_treeI10CoordinateS0_St9_IdentityIS0_ENS0_10comparatorESaIS0_EE13_Rb_tree_implIS3_Lb1EEC1Ev
FN:591,_ZNSt8_Rb_treeI10CoordinateS0_St9_IdentityIS0_ENS0_10comparatorESaIS0_EEC1Ev
FN:427,_ZNSt8_Rb_treeI10CoordinateS0_St9_IdentityIS0_ENS0_10comparatorESaIS0_EE13_Rb_tree_implIS3_Lb1EED1Ev
FN:353,_ZNKSt8_Rb_treeI10CoordinateS0_St9_IdentityIS0_ENS0_10comparatorESaIS0_EE13get_allocatorEv
FN:362,_ZNSt8_Rb_treeI10CoordinateS0_St9_IdentityIS0_ENS0_10comparatorESaIS0_EE11_M_put_nodeEPSt13_Rb_tree_nodeIS0_E
FN:381,_ZNSt8_Rb_treeI10CoordinateS0_St9_IdentityIS0_ENS0_10comparatorESaIS0_EE15_M_destroy_nodeEPSt13_Rb_tree_nodeIS0_E
FN:964,_ZNSt8_Rb_treeI10CoordinateS0_St9_IdentityIS0_ENS0_10comparatorESaIS0_EE8_M_eraseEPSt13_Rb_tree_nodeIS0_E
FN:724,_ZNSt8_Rb_treeI10CoordinateS0_St9_IdentityIS0_ENS0_10comparatorESaIS0_EE5clearEv
FN:613,_ZNSt8_Rb_treeI10CoordinateS0_St9_IdentityIS0_ENS0_10comparatorESaIS0_EED1Ev
FN:358,_ZNSt8_Rb_treeI10CoordinateS0_St9_IdentityIS0_ENS0_10comparatorESaIS0_EE11_M_get_nodeEv
FN:367,_ZNSt8_Rb_treeI10CoordinateS0_St9_IdentityIS0_ENS0_10comparatorESaIS0_EE14_M_create_nodeERKS0_
FN:197,_ZNSt17_Rb_tree_iteratorI10CoordinateEmmEv
FN:874,_ZNSt8_Rb_treeI10CoordinateS0_St9_IdentityIS0_ENS0_10comparatorESaIS0_EE10_M_insert_EPKSt18_Rb_tree_node_baseS8_RKS0_
FN:1161,_ZNSt8_Rb_treeI10CoordinateS0_St9_IdentityIS0_ENS0_10comparatorESaIS0_EE16_M_insert_uniqueERKS0_
FN:264,_ZNSt23_Rb_tree_const_iteratorI10CoordinateEppEi
DA:170,689
DA:171,689
DA:197,0
DA:199,0
DA:200,0
DA:212,72
DA:213,72
DA:238,12
DA:239,12
DA:242,224
DA:243,224
DA:245,314
DA:246,314
DA:249,167
DA:250,167
DA:264,146
DA:266,146
DA:267,146
DA:287,20
DA:288,20
DA:291,181
DA:292,181
DA:349,564
DA:350,564
DA:353,564
DA:354,564
DA:358,282
DA:359,282
DA:362,282
DA:363,282
DA:367,282
DA:369,282
DA:371,282
DA:372,0
DA:374,0
DA:375,0
DA:377,282
DA:381,282
DA:383,282
DA:384,282
DA:385,282
DA:427,42
DA:432,42
DA:434,42
DA:435,42
DA:444,42
DA:446,42
DA:447,42
DA:448,42
DA:449,42
DA:450,42
DA:457,3
DA:458,3
DA:465,3
DA:466,3
DA:473,3
DA:474,3
DA:481,359
DA:482,359
DA:492,602
DA:493,602
DA:500,927
DA:501,927
DA:504,927
DA:505,927
DA:508,303
DA:509,303
DA:516,1188
DA:517,1188
DA:524,495
DA:525,495
DA:528,495
DA:529,495
DA:591,42
DA:613,42
DA:614,42
DA:625,40
DA:628,40
DA:632,23
DA:635,23
DA:639,53
DA:640,53
DA:643,201
DA:646,201
DA:724,3
DA:726,3
DA:727,3
DA:728,3
DA:729,3
DA:730,3
DA:731,3
DA:874,282
DA:879,282
DA:881,282
DA:883,282
DA:886,282
DA:887,282
DA:964,327
DA:968,936
DA:970,282
DA:971,282
DA:972,282
DA:973,282
DA:975,327
DA:981,32
DA:985,111
DA:986,47
DA:987,21
DA:989,26
DA:990,32
DA:1161,282
DA:1164,282
DA:1165,282
DA:1166,282
DA:1167,1444
DA:1169,880
DA:1170,880
DA:1171,880
DA:1173,282
DA:1174,282
DA:1176,40
DA:1177,40
DA:1179,0
DA:1181,242
DA:1182,242
DA:1183,0
DA:1418,32
DA:1421,32
DA:1424,32
LF:129
LH:121
end_of_record
SF:/usr/include/c++/4.4/bits/stl_uninitialized.h
FN:180,_ZNSt22__uninitialized_fill_nILb0EE20uninitialized_fill_nIP10CoordinatejS2_EEvT_T0_RKT1_
FN:218,_ZSt20uninitialized_fill_nIP10CoordinatejS0_EvT_T0_RKT1_
FN:316,_ZSt24__uninitialized_fill_n_aIP10CoordinatejS0_S0_EvT_T0_RKT1_RSaIT2_E
DA:67,1253
DA:70,1253
DA:73,6875
DA:74,5622
DA:76,1253
DA:78,0
DA:80,0
DA:81,0
DA:107,1253
DA:117,1253
DA:180,484
DA:183,484
DA:186,2904
DA:187,2420
DA:189,0
DA:191,0
DA:192,0
DA:194,484
DA:218,484
DA:223,484
DA:225,484
DA:255,1253
DA:257,1253
DA:262,0
DA:267,0
DA:316,484
DA:318,484
LF:27
LH:19
end_of_record
SF:/usr/include/c++/4.4/bits/stl_vector.h
FN:610,_ZNSt6vectorI10CoordinateSaIS0_EEixEj
FN:434,_ZNKSt6vectorI10CoordinateSaIS0_EE5beginEv
FN:452,_ZNKSt6vectorI10CoordinateSaIS0_EE3endEv
FN:93,_ZNSt12_Vector_baseI10CoordinateSaIS0_EE19_M_get_Tp_allocatorEv
FN:84,_ZNSt12_Vector_baseI10CoordinateSaIS0_EE12_Vector_implC1ERKS1_
FN:75,_ZNSt12_Vector_baseI10CoordinateSaIS0_EE12_Vector_implD1Ev
FN:143,_ZNSt12_Vector_baseI10CoordinateSaIS0_EE13_M_deallocateEPS0_j
FN:131,_ZNSt12_Vector_baseI10CoordinateSaIS0_EED2Ev
FN:312,_ZNSt6vectorI10CoordinateSaIS0_EED1Ev
FN:139,_ZNSt12_Vector_baseI10CoordinateSaIS0_EE11_M_allocateEj
FN:110,_ZNSt12_Vector_baseI10CoordinateSaIS0_EEC2EjRKS1_
FN:1033,_ZNSt6vectorI10CoordinateSaIS0_EE18_M_fill_initializeEjRKS0_
FN:227,_ZNSt6vectorI10CoordinateSaIS0_EEC1EjRKS0_RKS1_
DA:75,1485
DA:84,1485
DA:85,1485
DA:86,1485
DA:93,3830
DA:94,3830
DA:97,1001
DA:98,1001
DA:110,1485
DA:111,1485
DA:113,1485
DA:114,1485
DA:115,1485
DA:116,1485
DA:131,1485
DA:132,1485
DA:133,1485
DA:139,1485
DA:140,1485
DA:143,1485
DA:145,1485
DA:146,1485
DA:147,1485
DA:227,484
DA:229,484
DA:230,484
DA:241,1001
DA:242,1001
DA:243,1001
DA:247,1001
DA:312,1485
DA:313,1485
DA:314,1485
DA:425,1543
DA:426,1543
DA:434,87998
DA:435,87998
DA:443,7461
DA:444,7461
DA:452,348486
DA:453,348486
DA:532,4609
DA:533,4609
DA:537,0
DA:538,0
DA:552,462
DA:554,462
DA:555,342
DA:557,120
DA:558,462
DA:565,518
DA:567,518
DA:610,6591
DA:611,6591
DA:625,0
DA:626,0
DA:850,120
DA:851,120
DA:960,0
DA:963,0
DA:966,0
DA:968,0
DA:970,0
DA:972,0
DA:973,0
DA:1033,484
DA:1035,484
DA:1037,484
DA:1038,484
DA:1134,0
DA:1136,0
DA:1137,0
DA:1139,0
DA:1140,0
DA:1148,342
DA:1150,342
DA:1151,342
DA:1152,342
LF:78
LH:62
end_of_record
TN:
SF:/usr/include/c++/4.4/bits/basic_ios.h
FN:127,_ZNKSt9basic_iosIcSt11char_traitsIcEE7rdstateEv
FN:46,_ZSt13__check_facetISt5ctypeIcEERKT_PS3_
FN:439,_ZNKSt9basic_iosIcSt11char_traitsIcEE5widenEc
FN:360,_ZNKSt9basic_iosIcSt11char_traitsIcEE4fillEv
FN:380,_ZNSt9basic_iosIcSt11char_traitsIcEE4fillEc
FN:147,_ZNSt9basic_iosIcSt11char_traitsIcEE8setstateESt12_Ios_Iostate
FNDA:0,_ZSt13__check_facetISt5ctypeIcEERKT_PS3_
FNDA:0,_ZNKSt9basic_iosIcSt11char_traitsIcEE7rdstateEv
FNDA:0,_ZNSt9basic_iosIcSt11char_traitsIcEE8setstateESt12_Ios_Iostate
FNDA:0,_ZNKSt9basic_iosIcSt11char_traitsIcEE4fillEv
FNDA:0,_ZNSt9basic_iosIcSt11char_traitsIcEE4fillEc
FNDA:0,_ZNKSt9basic_iosIcSt11char_traitsIcEE5widenEc
FNF:6
FNH:0
DA:46,0
DA:48,0
DA:49,0
DA:50,0
DA:127,0
DA:128,0
DA:147,0
DA:148,0
DA:360,0
DA:362,0
DA:364,0
DA:365,0
DA:367,0
DA:380,0
DA:382,0
DA:383,0
DA:384,0
DA:439,0
DA:440,0
BA:48,0
BA:48,0
BA:362,0
BA:362,0
LF:19
LH:0
end_of_record
SF:/usr/include/c++/4.4/bits/char_traits.h
FN:262,_ZNSt11char_traitsIcE6lengthEPKc
FNDA:0,_ZNSt11char_traitsIcE6lengthEPKc
FNF:1
FNH:0
DA:262,0
DA:263,0
LF:2
LH:0
end_of_record
SF:/usr/include/c++/4.4/bits/ios_base.h
FN:166,_ZStorSt12_Ios_IostateS_
FN:657,_ZNSt8ios_base5widthEi
FNDA:0,_ZStorSt12_Ios_IostateS_
FNDA:0,_ZNSt8ios_base5widthEi
FNF:2
FNH:0
DA:166,0
DA:167,0
DA:657,0
DA:659,0
DA:660,0
DA:661,0
LF:6
LH:0
end_of_record
SF:/usr/include/c++/4.4/bits/locale_facets.h
FN:865,_ZNKSt5ctypeIcE5widenEc
FNDA:0,_ZNKSt5ctypeIcE5widenEc
FNF:1
FNH:0
DA:865,0
DA:867,0
DA:868,0
DA:869,0
DA:870,0
BA:867,0
BA:867,0
LF:5
LH:0
end_of_record
SF:/usr/include/c++/4.4/iomanip
FN:238,_ZSt4setwi
FN:170,_ZSt7setfillIcESt8_SetfillIT_ES1_
FN:255,_ZStlsIcSt11char_traitsIcEERSt13basic_ostreamIT_T0_ES6_St5_Setw
FN:187,_ZStlsIcSt11char_traitsIcEERSt13basic_ostreamIT_T0_ES6_St8_SetfillIS3_E
FNDA:0,_ZSt7setfillIcESt8_SetfillIT_ES1_
FNDA:0,_ZStlsIcSt11char_traitsIcEERSt13basic_ostreamIT_T0_ES6_St8_SetfillIS3_E
FNDA:0,_ZSt4setwi
FNDA:0,_ZStlsIcSt11char_traitsIcEERSt13basic_ostreamIT_T0_ES6_St5_Setw
FNF:4
FNH:0
DA:170,0
DA:173,0
DA:187,0
DA:189,0
DA:190,0
DA:238,0
DA:241,0
DA:255,0
DA:257,0
DA:258,0
LF:10
LH:0
end_of_record
SF:/usr/include/c++/4.4/iostream
DA:72,1
LF:1
LH:1
end_of_record
SF:/usr/include/c++/4.4/ostream
FN:108,_ZNSolsEPFRSoS_E
FN:457,_ZStlsISt11char_traitsIcEERSt13basic_ostreamIcT_ES5_c
FN:505,_ZStlsISt11char_traitsIcEERSt13basic_ostreamIcT_ES5_PKc
FN:559,_ZSt5flushIcSt11char_traitsIcEERSt13basic_ostreamIT_T0_ES6_
FN:538,_ZSt4endlIcSt11char_traitsIcEERSt13basic_ostreamIT_T0_ES6_
FNDA:0,_ZNSolsEPFRSoS_E
FNDA:0,_ZStlsISt11char_traitsIcEERSt13basic_ostreamIcT_ES5_c
FNDA:0,_ZStlsISt11char_traitsIcEERSt13basic_ostreamIcT_ES5_PKc
FNDA:0,_ZSt4endlIcSt11char_traitsIcEERSt13basic_ostreamIT_T0_ES6_
FNDA:0,_ZSt5flushIcSt11char_traitsIcEERSt13basic_ostreamIT_T0_ES6_
FNF:5
FNH:0
DA:108,0
DA:113,0
DA:457,0
DA:458,0
DA:505,0
DA:507,0
DA:508,0
DA:510,0
DA:512,0
DA:538,0
DA:539,0
DA:559,0
DA:560,0
BA:507,0
BA:507,0
LF:13
LH:0
end_of_record
SF:/home/frechilla/workspace/headless/blockem_sourceforge/src/board.cpp
FN:114,_ZN5Board14CopyFromObjectERKS_
FN:164,_ZN5Board5ResetEv
FN:173,_Z41__static_initialization_and_destruction_0ii
FN:173,_GLOBAL__I__ZN5BoardC2EiicPPc
FN:130,_ZNK5Board10PrintBoardERSo
FN:82,_ZN5BoardaSERKS_
FN:70,_ZN5BoardC1ERKS_
FN:70,_ZN5BoardC2ERKS_
FN:34,_ZN5BoardC1EiicPPc
FN:34,_ZN5BoardC2EiicPPc
FN:59,_ZN5BoardD0Ev
FN:59,_ZN5BoardD1Ev
FN:59,_ZN5BoardD2Ev
FNDA:4,_ZN5BoardC1EiicPPc
FNDA:0,_ZN5BoardC2EiicPPc
FNDA:0,_ZN5BoardD0Ev
FNDA:5,_ZN5BoardD1Ev
FNDA:0,_ZN5BoardD2Ev
FNDA:1,_ZN5BoardC1ERKS_
FNDA:0,_ZN5BoardC2ERKS_
FNDA:1,_ZN5BoardaSERKS_
FNDA:2,_ZN5Board14CopyFromObjectERKS_
FNDA:0,_ZNK5Board10PrintBoardERSo
FNDA:3,_ZN5Board5ResetEv
FNDA:1,_Z41__static_initialization_and_destruction_0ii
FNDA:1,_GLOBAL__I__ZN5BoardC2EiicPPc
FNF:13
FNH:8
DA:34,4
DA:37,4
DA:40,4
DA:41,43
DA:43,39
DA:44,492
DA:46,453
DA:49,0
DA:53,453
DA:57,4
DA:59,5
DA:62,48
DA:64,43
DA:67,5
DA:68,5
DA:70,1
DA:73,1
DA:74,6
DA:76,5
DA:79,1
DA:80,1
DA:82,1
DA:84,1
DA:88,1
DA:92,7
DA:94,6
DA:96,1
DA:100,1
DA:101,6
DA:103,5
DA:108,1
DA:111,1
DA:114,2
DA:116,2
DA:117,2
DA:118,2
DA:121,12
DA:123,60
DA:125,50
DA:128,2
DA:130,0
DA:132,0
DA:133,0
DA:135,0
DA:137,0
DA:139,0
DA:141,0
DA:142,0
DA:144,0
DA:146,0
DA:148,0
DA:149,0
DA:151,0
DA:153,0
DA:156,0
DA:157,0
DA:159,0
DA:161,0
DA:162,0
DA:164,3
DA:166,45
DA:168,630
DA:170,588
DA:173,6
BA:41,2
BA:41,2
BA:41,0
BA:41,0
BA:44,2
BA:44,2
BA:44,0
BA:44,0
BA:46,1
BA:46,2
BA:46,0
BA:46,0
BA:62,0
BA:62,0
BA:62,2
BA:62,2
BA:62,0
BA:62,0
BA:64,0
BA:64,0
BA:64,2
BA:64,1
BA:64,0
BA:64,0
BA:67,0
BA:67,0
BA:67,2
BA:67,1
BA:67,0
BA:67,0
BA:68,0
BA:68,0
BA:68,1
BA:68,2
BA:68,0
BA:68,0
BA:74,2
BA:74,2
BA:74,0
BA:74,0
BA:84,2
BA:84,1
BA:88,1
BA:88,2
BA:88,0
BA:88,0
BA:92,2
BA:92,2
BA:94,2
BA:94,1
BA:96,2
BA:96,1
BA:101,2
BA:101,2
BA:121,2
BA:121,2
BA:123,2
BA:123,2
BA:133,0
BA:133,0
BA:139,0
BA:139,0
BA:142,0
BA:142,0
BA:149,0
BA:149,0
BA:157,0
BA:157,0
BA:166,2
BA:166,2
BA:168,2
BA:168,2
BA:173,2
BA:173,1
BA:173,2
BA:173,1
LF:64
LH:44
end_of_record
TN:
SF:/usr/include/c++/4.4/bits/allocator.h
FN:101,_ZNSaIcEC1Ev
FN:109,_ZNSaIcED1Ev
FN:103,_ZNSaIcEC1ERKS_
FN:109,_ZNSaIcED2Ev
FNDA:0,_ZNSaIcEC1Ev
FNDA:0,_ZNSaIcEC1ERKS_
FNDA:0,_ZNSaIcED1Ev
FNDA:0,_ZNSaIcED2Ev
FNF:4
FNH:0
DA:101,0
DA:103,0
DA:104,0
DA:109,0
LF:4
LH:0
end_of_record
SF:/usr/include/c++/4.4/bits/basic_string.h
FN:272,_ZNKSs7_M_dataEv
FN:280,_ZNKSs6_M_repEv
FN:173,_ZNSs4_Rep12_S_empty_repEv
FN:1632,_ZNKSs13get_allocatorEv
FN:253,_ZNSs12_Alloc_hiderD1Ev
FN:224,_ZNSs4_Rep10_M_disposeERKSaIcE
FN:497,_ZNSsD1Ev
FNDA:0,_ZNSs4_Rep12_S_empty_repEv
FNDA:0,_ZNSs4_Rep10_M_disposeERKSaIcE
FNDA:0,_ZNSs12_Alloc_hiderD1Ev
FNDA:0,_ZNKSs7_M_dataEv
FNDA:0,_ZNKSs6_M_repEv
FNDA:0,_ZNSsD1Ev
FNDA:0,_ZNKSs13get_allocatorEv
FNF:7
FNH:0
DA:173,0
DA:178,0
DA:179,0
DA:224,0
DA:227,0
DA:229,0
DA:231,0
DA:232,0
DA:253,0
DA:272,0
DA:273,0
DA:280,0
DA:281,0
DA:497,0
DA:498,0
DA:1632,0
DA:1633,0
BA:227,0
BA:227,0
BA:229,0
BA:229,0
LF:17
LH:0
end_of_record
SF:/usr/include/c++/4.4/bits/stl_algobase.h
FN:209,_ZSt3maxIiERKT_S2_S2_
FNDA:1389,_ZSt3maxIiERKT_S2_S2_
FNF:1
FNH:1
DA:209,1389
DA:214,1389
DA:215,1354
DA:216,35
BA:214,2
BA:214,2
LF:4
LH:4
end_of_record
SF:/usr/include/c++/4.4/bits/stl_list.h
FN:255,_ZNKSt20_List_const_iteratorIyEneERKS0_
FN:213,_ZNKSt20_List_const_iteratorIyEdeEv
FN:228,_ZNSt20_List_const_iteratorIyEppEi
FN:200,_ZNSt20_List_const_iteratorISt6vectorI10CoordinateSaIS1_EEEC1Ev
FN:255,_ZNKSt20_List_const_iteratorISt6vectorI10CoordinateSaIS1_EEEneERKS4_
FN:228,_ZNSt20_List_const_iteratorISt6vectorI10CoordinateSaIS1_EEEppEi
FN:213,_ZNKSt20_List_const_iteratorISt6vectorI10CoordinateSaIS1_EEEdeEv
FN:204,_ZNSt20_List_const_iteratorIyEC1EPKSt15_List_node_base
FN:698,_ZNKSt4listIySaIyEE5beginEv
FN:716,_ZNKSt4listIySaIyEE3endEv
FN:204,_ZNSt20_List_const_iteratorISt6vectorI10CoordinateSaIS1_EEEC1EPKSt15_List_node_base
FN:698,_ZNKSt4listISt6vectorI10CoordinateSaIS1_EESaIS3_EE5beginEv
FN:716,_ZNKSt4listISt6vectorI10CoordinateSaIS1_EESaIS3_EE3endEv
FNDA:0,_ZNSt20_List_const_iteratorISt6vectorI10CoordinateSaIS1_EEEC1Ev
FNDA:0,_ZNSt20_List_const_iteratorIyEC1EPKSt15_List_node_base
FNDA:0,_ZNSt20_List_const_iteratorISt6vectorI10CoordinateSaIS1_EEEC1EPKSt15_List_node_base
FNDA:0,_ZNKSt20_List_const_iteratorIyEdeEv
FNDA:0,_ZNKSt20_List_const_iteratorISt6vectorI10CoordinateSaIS1_EEEdeEv
FNDA:0,_ZNSt20_List_const_iteratorIyEppEi
FNDA:0,_ZNSt20_List_const_iteratorISt6vectorI10CoordinateSaIS1_EEEppEi
FNDA:0,_ZNKSt20_List_const_iteratorIyEneERKS0_
FNDA:0,_ZNKSt20_List_const_iteratorISt6vectorI10CoordinateSaIS1_EEEneERKS4_
FNDA:0,_ZNKSt4listIySaIyEE5beginEv
FNDA:0,_ZNKSt4listISt6vectorI10CoordinateSaIS1_EESaIS3_EE5beginEv
FNDA:0,_ZNKSt4listIySaIyEE3endEv
FNDA:0,_ZNKSt4listISt6vectorI10CoordinateSaIS1_EESaIS3_EE3endEv
FNF:13
FNH:0
DA:200,0
DA:201,0
DA:204,0
DA:205,0
DA:213,0
DA:214,0
DA:228,0
DA:230,0
DA:231,0
DA:255,0
DA:256,0
DA:698,0
DA:699,0
DA:716,0
DA:717,0
LF:15
LH:0
end_of_record
SF:/usr/include/c++/4.4/bits/stl_vector.h
FN:532,_ZNKSt6vectorI10CoordinateSaIS0_EE4sizeEv
FNDA:0,_ZNKSt6vectorI10CoordinateSaIS0_EE4sizeEv
FNF:1
FNH:0
DA:532,0
DA:533,0
LF:2
LH:0
end_of_record
SF:/usr/include/c++/4.4/ext/atomicity.h
FN:62,_ZN9__gnu_cxxL25__exchange_and_add_singleEPii
FN:45,_ZN9__gnu_cxxL18__exchange_and_addEPVii
FN:75,_ZN9__gnu_cxxL27__exchange_and_add_dispatchEPii
FNDA:0,_ZN9__gnu_cxxL18__exchange_and_addEPVii
FNDA:0,_ZN9__gnu_cxxL25__exchange_and_add_singleEPii
FNDA:0,_ZN9__gnu_cxxL27__exchange_and_add_dispatchEPii
FNF:3
FNH:0
DA:45,0
DA:46,0
DA:62,0
DA:64,0
DA:65,0
DA:66,0
DA:75,0
DA:78,0
DA:79,0
DA:81,0
BA:78,0
BA:78,0
LF:10
LH:0
end_of_record
SF:/usr/include/c++/4.4/ext/new_allocator.h
FN:66,_ZN9__gnu_cxx13new_allocatorIcEC2Ev
FN:73,_ZN9__gnu_cxx13new_allocatorIcED2Ev
FN:68,_ZN9__gnu_cxx13new_allocatorIcEC2ERKS1_
FNDA:0,_ZN9__gnu_cxx13new_allocatorIcEC2Ev
FNDA:0,_ZN9__gnu_cxx13new_allocatorIcEC2ERKS1_
FNDA:0,_ZN9__gnu_cxx13new_allocatorIcED2Ev
FNF:3
FNH:0
DA:66,0
DA:68,0
DA:73,0
LF:3
LH:0
end_of_record
SF:/usr/include/c++/4.4/i486-linux-gnu/bits/gthr-default.h
FN:238,_ZL18__gthread_active_pv
FNDA:0,_ZL18__gthread_active_pv
FNF:1
FNH:0
DA:238,0
DA:242,0
LF:2
LH:0
end_of_record
SF:/home/frechilla/workspace/headless/blockem_sourceforge/src/bitwise.h
FN:136,_ZN7bitwise17IsPieceDeployableEyyy
FNDA:0,_ZN7bitwise17IsPieceDeployableEyyy
FNF:1
FNH:0
DA:136,0
DA:139,0
DA:145,0
DA:151,0
DA:156,0
DA:161,0
BA:139,0
BA:139,0
BA:145,0
BA:145,0
BA:145,0
BA:145,0
BA:145,0
BA:145,0
BA:145,0
BA:145,0
BA:151,0
BA:151,0
BA:151,0
BA:151,0
BA:151,0
BA:151,0
BA:151,0
BA:151,0
LF:6
LH:0
end_of_record
SF:/home/frechilla/workspace/headless/blockem_sourceforge/src/board.h
FN:103,_ZNK5Board8GetNRowsEv
FN:109,_ZNK5Board11GetNColumnsEv
FN:55,_ZNK5Board12IsCoordEmptyERK10Coordinate
FN:79,_ZNK5Board15IsPlayerInCoordERK10CoordinateRK6Player
FNDA:0,_ZNK5Board12IsCoordEmptyERK10Coordinate
FNDA:0,_ZNK5Board15IsPlayerInCoordERK10CoordinateRK6Player
FNDA:0,_ZNK5Board8GetNRowsEv
FNDA:0,_ZNK5Board11GetNColumnsEv
FNF:4
FNH:0
DA:55,0
DA:58,0
DA:59,0
DA:60,0
DA:61,0
DA:63,0
DA:79,0
DA:82,0
DA:83,0
DA:84,0
DA:85,0
DA:87,0
DA:103,0
DA:105,0
DA:109,0
DA:111,0
BA:58,0
BA:58,0
BA:59,0
BA:59,0
BA:60,0
BA:60,0
BA:61,0
BA:61,0
BA:82,0
BA:82,0
BA:83,0
BA:83,0
BA:84,0
BA:84,0
BA:85,0
BA:85,0
LF:16
LH:0
end_of_record
SF:/home/frechilla/workspace/headless/blockem_sourceforge/src/coordinate.h
FN:49,_ZN10CoordinateC1Ev
FN:53,_ZN10CoordinateC1Eii
FN:57,_ZN10CoordinateD0Ev
FN:57,_ZN10CoordinateD1Ev
FNDA:0,_ZN10CoordinateC1Ev
FNDA:0,_ZN10CoordinateC1Eii
FNDA:0,_ZN10CoordinateD0Ev
FNDA:0,_ZN10CoordinateD1Ev
FNF:4
FNH:0
DA:49,0
DA:51,0
DA:52,0
DA:53,0
DA:55,0
DA:56,0
DA:57,0
DA:58,0
BA:58,0
BA:58,0
BA:58,0
BA:58,0
LF:8
LH:0
end_of_record
SF:/home/frechilla/workspace/headless/blockem_sourceforge/src/heuristic.cpp
FN:562,_ZN9Heuristic23CalculateCircularWeightERK5BoardRK10Coordinate
FN:675,_Z41__static_initialization_and_destruction_0ii
FN:675,_GLOBAL__I__ZN9Heuristic15m_heuristicDataE
FN:42,__tcf_0
FN:639,_ZN9Heuristic35BiggestPieceDeployableInNKPointSizeERK5BoardRK6PlayerRK10Coordinate
FN:607,_ZN9Heuristic32CountSquaresCanBeDeployedBitwiseERK5BoardRK6Playeryy
FN:76,_ZN9Heuristic15CalculateSimpleERK5BoardRK6PlayerS5_
FN:507,_ZN9Heuristic25NKBasedHeuristicThisCoordERK5BoardRK6PlayerS5_RK10Coordinate
FN:127,_ZN9Heuristic22CalculateCentreFocusedERK5BoardRK6PlayerS5_
FN:274,_ZN9Heuristic21CalculateNKWeightedv3ERK5BoardRK6PlayerS5_
FN:198,_ZN9Heuristic21CalculateNKWeightedv1ERK5BoardRK6PlayerS5_
FN:358,_ZN9Heuristic16CalculateNPiecesERK5BoardRK6PlayerS5_
FN:109,_ZN9Heuristic15CalculateRandomERK5BoardRK6PlayerS5_
FNDA:1,__tcf_0
FNDA:0,_ZN9Heuristic15CalculateSimpleERK5BoardRK6PlayerS5_
FNDA:0,_ZN9Heuristic15CalculateRandomERK5BoardRK6PlayerS5_
FNDA:0,_ZN9Heuristic22CalculateCentreFocusedERK5BoardRK6PlayerS5_
FNDA:0,_ZN9Heuristic21CalculateNKWeightedv1ERK5BoardRK6PlayerS5_
FNDA:0,_ZN9Heuristic21CalculateNKWeightedv3ERK5BoardRK6PlayerS5_
FNDA:0,_ZN9Heuristic16CalculateNPiecesERK5BoardRK6PlayerS5_
FNDA:0,_ZN9Heuristic25NKBasedHeuristicThisCoordERK5BoardRK6PlayerS5_RK10Coordinate
FNDA:0,_ZN9Heuristic23CalculateCircularWeightERK5BoardRK10Coordinate
FNDA:0,_ZN9Heuristic32CountSquaresCanBeDeployedBitwiseERK5BoardRK6Playeryy
FNDA:0,_ZN9Heuristic35BiggestPieceDeployableInNKPointSizeERK5BoardRK6PlayerRK10Coordinate
FNDA:1,_Z41__static_initialization_and_destruction_0ii
FNDA:1,_GLOBAL__I__ZN9Heuristic15m_heuristicDataE
FNF:13
FNH:3
DA:42,2
DA:74,1
DA:76,0
DA:81,0
DA:82,0
DA:83,0
DA:85,0
DA:86,0
DA:88,0
DA:90,0
DA:92,0
DA:94,0
DA:96,0
DA:101,0
DA:102,0
DA:103,0
DA:104,0
DA:106,0
DA:109,0
DA:116,0
DA:118,0
DA:121,0
DA:124,0
DA:127,0
DA:132,0
DA:133,0
DA:134,0
DA:135,0
DA:136,0
DA:138,0
DA:139,0
DA:141,0
DA:143,0
DA:145,0
DA:146,0
DA:148,0
DA:150,0
DA:151,0
DA:153,0
DA:156,0
DA:158,0
DA:160,0
DA:161,0
DA:165,0
DA:173,0
DA:176,0
DA:179,0
DA:181,0
DA:185,0
DA:190,0
DA:191,0
DA:192,0
DA:193,0
DA:195,0
DA:198,0
DA:203,0
DA:206,0
DA:209,0
DA:211,0
DA:212,0
DA:213,0
DA:214,0
DA:216,0
DA:217,0
DA:219,0
DA:221,0
DA:223,0
DA:225,0
DA:227,0
DA:228,0
DA:231,0
DA:233,0
DA:235,0
DA:237,0
DA:241,0
DA:255,0
DA:257,0
DA:261,0
DA:266,0
DA:267,0
DA:268,0
DA:269,0
DA:271,0
DA:274,0
DA:281,0
DA:284,0
DA:287,0
DA:288,0
DA:289,0
DA:290,0
DA:291,0
DA:293,0
DA:294,0
DA:296,0
DA:298,0
DA:300,0
DA:302,0
DA:304,0
DA:305,0
DA:307,0
DA:311,0
DA:315,0
DA:317,0
DA:319,0
DA:321,0
DA:325,0
DA:332,0
DA:336,0
DA:338,0
DA:342,0
DA:348,0
DA:349,0
DA:352,0
DA:353,0
DA:355,0
DA:358,0
DA:363,0
DA:365,0
DA:369,0
DA:372,0
DA:378,0
DA:380,0
DA:384,0
DA:390,0
DA:397,0
DA:399,0
DA:402,0
DA:408,0
DA:415,0
DA:418,0
DA:420,0
DA:424,0
DA:425,0
DA:428,0
DA:432,0
DA:438,0
DA:445,0
DA:447,0
DA:450,0
DA:456,0
DA:463,0
DA:466,0
DA:468,0
DA:472,0
DA:473,0
DA:476,0
DA:478,0
DA:480,0
DA:482,0
DA:494,0
DA:495,0
DA:496,0
DA:501,0
DA:504,0
DA:507,0
DA:513,0
DA:514,0
DA:515,0
DA:516,0
DA:518,0
DA:520,0
DA:522,0
DA:525,0
DA:527,0
DA:529,0
DA:530,0
DA:534,0
DA:542,0
DA:546,0
DA:548,0
DA:552,0
DA:555,0
DA:556,0
DA:557,0
DA:559,0
DA:562,0
DA:600,0
DA:602,0
DA:604,0
DA:607,0
DA:613,0
DA:615,0
DA:617,0
DA:619,0
DA:620,0
DA:621,0
DA:623,0
DA:625,0
DA:627,0
DA:628,0
DA:631,0
DA:636,0
DA:639,0
DA:646,0
DA:648,0
DA:650,0
DA:653,0
DA:654,0
DA:656,0
DA:660,0
DA:665,0
DA:667,0
DA:674,0
DA:675,3
BA:42,2
BA:42,2
BA:74,0
BA:74,0
BA:74,0
BA:74,0
BA:86,0
BA:86,0
BA:88,0
BA:88,0
BA:90,0
BA:90,0
BA:94,0
BA:94,0
BA:116,0
BA:116,0
BA:139,0
BA:139,0
BA:141,0
BA:141,0
BA:143,0
BA:143,0
BA:148,0
BA:148,0
BA:156,0
BA:156,0
BA:158,0
BA:158,0
BA:161,0
BA:161,0
BA:179,0
BA:179,0
BA:203,0
BA:203,0
BA:217,0
BA:217,0
BA:219,0
BA:219,0
BA:221,0
BA:221,0
BA:225,0
BA:225,0
BA:231,0
BA:231,0
BA:233,0
BA:233,0
BA:237,0
BA:237,0
BA:255,0
BA:255,0
BA:281,0
BA:281,0
BA:294,0
BA:294,0
BA:296,0
BA:296,0
BA:298,0
BA:298,0
BA:302,0
BA:302,0
BA:307,0
BA:307,0
BA:315,0
BA:315,0
BA:319,0
BA:319,0
BA:321,0
BA:321,0
BA:336,0
BA:336,0
BA:380,0
BA:380,0
BA:384,0
BA:384,0
BA:402,0
BA:402,0
BA:418,0
BA:418,0
BA:428,0
BA:428,0
BA:432,0
BA:432,0
BA:450,0
BA:450,0
BA:466,0
BA:466,0
BA:478,0
BA:478,0
BA:480,0
BA:480,0
BA:496,0
BA:496,0
BA:518,0
BA:518,0
BA:520,0
BA:520,0
BA:525,0
BA:525,0
BA:527,0
BA:527,0
BA:530,0
BA:530,0
BA:546,0
BA:546,0
BA:615,0
BA:615,0
BA:617,0
BA:617,0
BA:621,0
BA:621,0
BA:625,0
BA:625,0
BA:646,0
BA:646,0
BA:646,0
BA:646,0
BA:646,0
BA:646,0
BA:648,0
BA:648,0
BA:650,0
BA:650,0
BA:656,0
BA:656,0
BA:660,0
BA:660,0
BA:675,2
BA:675,1
BA:675,2
BA:675,1
LF:204
LH:3
end_of_record
SF:/home/frechilla/workspace/headless/blockem_sourceforge/src/heuristic.h
FN:77,_ZN9Heuristic16sHeuristicData_tD1Ev
FNDA:6,_ZN9Heuristic16sHeuristicData_tD1Ev
FNF:1
FNH:1
DA:77,6
LF:1
LH:1
end_of_record
SF:/home/frechilla/workspace/headless/blockem_sourceforge/src/piece.h
FN:167,_ZNK5Piece9GetRadiusEv
FN:173,_ZNK5Piece21GetPrecalculatedConfsEv
FN:181,_ZNK5Piece14GetBitwiseListEv
FN:158,_ZNK5Piece11GetNSquaresEv
FNDA:0,_ZNK5Piece11GetNSquaresEv
FNDA:0,_ZNK5Piece9GetRadiusEv
FNDA:0,_ZNK5Piece21GetPrecalculatedConfsEv
FNDA:0,_ZNK5Piece14GetBitwiseListEv
FNF:4
FNH:0
DA:158,0
DA:160,0
DA:167,0
DA:169,0
DA:173,0
DA:175,0
DA:181,0
DA:183,0
LF:8
LH:0
end_of_record
SF:/home/frechilla/workspace/headless/blockem_sourceforge/src/player.h
FN:80,_ZNK6Player16PresentationCharEv
FN:109,_ZNK6Player23NumberOfPiecesAvailableEv
FN:114,_ZNK6Player24NumberOfNucleationPointsEv
FN:142,_ZNK6Player16IsPieceAvailableE12ePieceType_t
FN:151,_ZNK6Player17IsNucleationPointERK10Coordinate
FNDA:0,_ZNK6Player16PresentationCharEv
FNDA:0,_ZNK6Player23NumberOfPiecesAvailableEv
FNDA:0,_ZNK6Player24NumberOfNucleationPointsEv
FNDA:0,_ZNK6Player16IsPieceAvailableE12ePieceType_t
FNDA:0,_ZNK6Player17IsNucleationPointERK10Coordinate
FNF:5
FNH:0
DA:80,0
DA:82,0
DA:109,0
DA:111,0
DA:114,0
DA:116,0
DA:142,0
DA:145,0
DA:147,0
DA:151,0
DA:154,0
DA:155,0
DA:157,0
BA:145,0
BA:145,0
BA:145,0
BA:145,0
BA:154,0
BA:154,0
BA:154,0
BA:154,0
BA:155,0
BA:155,0
BA:155,0
BA:155,0
LF:13
LH:0
end_of_record
TN:
SF:/usr/include/c++/4.4/bits/allocator.h
FN:101,_ZNSaIcEC1Ev
FN:109,_ZNSaIcED1Ev
FN:103,_ZNSaIcEC1ERKS_
FN:109,_ZNSaIcED2Ev
FN:107,_ZNSaISt6vectorI10CoordinateSaIS0_EEEC1ISt10_List_nodeIS2_EEERKSaIT_E
FN:103,_ZNSaI10CoordinateEC2ERKS0_
FN:109,_ZNSaI10CoordinateED2Ev
FN:109,_ZNSaISt6vectorI10CoordinateSaIS0_EEED1Ev
FN:107,_ZNSaIyEC1ISt10_List_nodeIyEEERKSaIT_E
FN:109,_ZNSaIyED1Ev
FN:109,_ZNSaISt10_List_nodeIyEED2Ev
FN:109,_ZNSaISt10_List_nodeISt6vectorI10CoordinateSaIS1_EEEED2Ev
FN:101,_ZNSaI10CoordinateEC1Ev
FN:109,_ZNSaI10CoordinateED1Ev
FN:101,_ZNSaISt10_List_nodeISt6vectorI10CoordinateSaIS1_EEEEC2Ev
FN:101,_ZNSaISt10_List_nodeIyEEC2Ev
FNDA:0,_ZNSaIcEC1Ev
FNDA:0,_ZNSaI10CoordinateEC1Ev
FNDA:231,_ZNSaISt10_List_nodeISt6vectorI10CoordinateSaIS1_EEEEC2Ev
FNDA:231,_ZNSaISt10_List_nodeIyEEC2Ev
FNDA:0,_ZNSaIcEC1ERKS_
FNDA:0,_ZNSaI10CoordinateEC2ERKS0_
FNDA:0,_ZNSaISt6vectorI10CoordinateSaIS0_EEEC1ISt10_List_nodeIS2_EEERKSaIT_E
FNDA:0,_ZNSaIyEC1ISt10_List_nodeIyEEERKSaIT_E
FNDA:0,_ZNSaIcED1Ev
FNDA:0,_ZNSaIcED2Ev
FNDA:0,_ZNSaI10CoordinateED2Ev
FNDA:0,_ZNSaISt6vectorI10CoordinateSaIS0_EEED1Ev
FNDA:0,_ZNSaIyED1Ev
FNDA:0,_ZNSaISt10_List_nodeIyEED2Ev
FNDA:0,_ZNSaISt10_List_nodeISt6vectorI10CoordinateSaIS1_EEEED2Ev
FNDA:0,_ZNSaI10CoordinateED1Ev
FNF:16
FNH:2
DA:101,462
DA:103,0
DA:104,0
DA:107,0
DA:109,0
LF:5
LH:1
end_of_record
SF:/usr/include/c++/4.4/bits/basic_string.h
FN:272,_ZNKSs7_M_dataEv
FN:280,_ZNKSs6_M_repEv
FN:173,_ZNSs4_Rep12_S_empty_repEv
FN:1632,_ZNKSs13get_allocatorEv
FN:253,_ZNSs12_Alloc_hiderD1Ev
FN:224,_ZNSs4_Rep10_M_disposeERKSaIcE
FN:497,_ZNSsD1Ev
FNDA:0,_ZNSs4_Rep12_S_empty_repEv
FNDA:0,_ZNSs4_Rep10_M_disposeERKSaIcE
FNDA:0,_ZNSs12_Alloc_hiderD1Ev
FNDA:0,_ZNKSs7_M_dataEv
FNDA:0,_ZNKSs6_M_repEv
FNDA:0,_ZNSsD1Ev
FNDA:0,_ZNKSs13get_allocatorEv
FNF:7
FNH:0
DA:173,0
DA:178,0
DA:179,0
DA:224,0
DA:227,0
DA:229,0
DA:231,0
DA:232,0
DA:253,0
DA:272,0
DA:273,0
DA:280,0
DA:281,0
DA:497,0
DA:498,0
DA:1632,0
DA:1633,0
BA:227,0
BA:227,0
BA:229,0
BA:229,0
LF:17
LH:0
end_of_record
SF:/usr/include/c++/4.4/bits/list.tcc
FN:64,_ZNSt10_List_baseISt6vectorI10CoordinateSaIS1_EESaIS3_EE8_M_clearEv
FN:64,_ZNSt10_List_baseIySaIyEE8_M_clearEv
FNDA:0,_ZNSt10_List_baseISt6vectorI10CoordinateSaIS1_EESaIS3_EE8_M_clearEv
FNDA:0,_ZNSt10_List_baseIySaIyEE8_M_clearEv
FNF:2
FNH:0
DA:64,0
DA:68,0
DA:69,0
DA:71,0
DA:72,0
DA:76,0
DA:78,0
DA:80,0
BA:69,0
BA:69,0
BA:69,0
BA:69,0
LF:8
LH:0
end_of_record
SF:/usr/include/c++/4.4/bits/stl_algobase.h
FN:287,_ZNSt12__miter_baseIP10CoordinateLb0EE3__bES1_
FN:269,_ZNSt12__niter_baseIP10CoordinateLb0EE3__bES1_
FN:687,_ZSt8__fill_aIP10CoordinateS0_EN9__gnu_cxx11__enable_ifIXntsrSt11__is_scalarIT0_E7__valueEvE6__typeET_S9_RKS5_
FN:730,_ZSt4fillIP10CoordinateS0_EvT_S2_RKT0_
FN:209,_ZSt3maxIjERKT_S2_S2_
FN:542,_ZNSt20__copy_move_backwardILb0ELb0ESt26random_access_iterator_tagE13__copy_move_bIP10CoordinateS4_EET0_T_S6_S5_
FN:582,_ZSt22__copy_move_backward_aILb0EP10CoordinateS1_ET1_T0_S3_S2_
FN:600,_ZSt23__copy_move_backward_a2ILb0EP10CoordinateS1_ET1_T0_S3_S2_
FN:628,_ZSt13copy_backwardIP10CoordinateS1_ET0_T_S3_S2_
FNDA:0,_ZSt3maxIjERKT_S2_S2_
FNDA:0,_ZNSt12__niter_baseIP10CoordinateLb0EE3__bES1_
FNDA:0,_ZNSt12__miter_baseIP10CoordinateLb0EE3__bES1_
FNDA:0,_ZNSt20__copy_move_backwardILb0ELb0ESt26random_access_iterator_tagE13__copy_move_bIP10CoordinateS4_EET0_T_S6_S5_
FNDA:0,_ZSt22__copy_move_backward_aILb0EP10CoordinateS1_ET1_T0_S3_S2_
FNDA:0,_ZSt23__copy_move_backward_a2ILb0EP10CoordinateS1_ET1_T0_S3_S2_
FNDA:0,_ZSt13copy_backwardIP10CoordinateS1_ET0_T_S3_S2_
FNDA:0,_ZSt8__fill_aIP10CoordinateS0_EN9__gnu_cxx11__enable_ifIXntsrSt11__is_scalarIT0_E7__valueEvE6__typeET_S9_RKS5_
FNDA:0,_ZSt4fillIP10CoordinateS0_EvT_S2_RKT0_
FNF:9
FNH:0
DA:209,0
DA:214,0
DA:215,0
DA:216,0
DA:269,0
DA:270,0
DA:287,0
DA:288,0
DA:542,0
DA:545,0
DA:546,0
DA:547,0
DA:582,0
DA:590,0
DA:595,0
DA:600,0
DA:605,0
DA:628,0
DA:640,0
DA:687,0
DA:690,0
DA:691,0
DA:692,0
DA:730,0
DA:737,0
DA:739,0
BA:214,0
BA:214,0
BA:545,0
BA:545,0
BA:690,0
BA:690,0
LF:26
LH:0
end_of_record
SF:/usr/include/c++/4.4/bits/stl_construct.h
FN:82,_ZSt8_DestroyI10CoordinateEvPT_
FN:90,_ZNSt12_Destroy_auxILb0EE9__destroyIP10CoordinateEEvT_S4_
FN:112,_ZSt8_DestroyIP10CoordinateEvT_S2_
FN:139,_ZSt8_DestroyIP10CoordinateS0_EvT_S2_RSaIT0_E
FN:70,_ZSt10_ConstructI10CoordinateS0_EvPT_RKT0_
FNDA:0,_ZSt10_ConstructI10CoordinateS0_EvPT_RKT0_
FNDA:0,_ZSt8_DestroyI10CoordinateEvPT_
FNDA:0,_ZNSt12_Destroy_auxILb0EE9__destroyIP10CoordinateEEvT_S4_
FNDA:0,_ZSt8_DestroyIP10CoordinateEvT_S2_
FNDA:0,_ZSt8_DestroyIP10CoordinateS0_EvT_S2_RSaIT0_E
FNF:5
FNH:0
DA:70,0
DA:74,0
DA:75,0
DA:82,0
DA:83,0
DA:90,0
DA:92,0
DA:93,0
DA:94,0
DA:112,0
DA:116,0
DA:118,0
DA:139,0
DA:142,0
DA:143,0
BA:74,0
BA:74,0
BA:92,0
BA:92,0
LF:15
LH:0
end_of_record
SF:/usr/include/c++/4.4/bits/stl_iterator.h
FN:702,_ZNK9__gnu_cxx17__normal_iteratorIP10CoordinateSt6vectorIS1_SaIS1_EEEptEv
FN:702,_ZNK9__gnu_cxx17__normal_iteratorIPK10CoordinateSt6vectorIS1_SaIS1_EEEptEv
FN:686,_ZN9__gnu_cxx17__normal_iteratorIP10CoordinateSt6vectorIS1_SaIS1_EEEC1ERKS2_
FN:713,_ZN9__gnu_cxx17__normal_iteratorIP10CoordinateSt6vectorIS1_SaIS1_EEEppEi
FN:750,_ZNK9__gnu_cxx17__normal_iteratorIP10CoordinateSt6vectorIS1_SaIS1_EEE4baseEv
FN:690,_ZN9__gnu_cxx17__normal_iteratorIPK10CoordinateSt6vectorIS1_SaIS1_EEEC1IPS1_EERKNS0_IT_NS_11__enable_ifIXsrSt10__are_sameISA_S9_E7__valueES6_E6__typeEEE
FN:783,_ZN9__gnu_cxxneIP10CoordinateSt6vectorIS1_SaIS1_EEEEbRKNS_17__normal_iteratorIT_T0_EESB_
FN:750,_ZNK9__gnu_cxx17__normal_iteratorIPK10CoordinateSt6vectorIS1_SaIS1_EEE4baseEv
FN:777,_ZN9__gnu_cxxneIPK10CoordinatePS1_St6vectorIS1_SaIS1_EEEEbRKNS_17__normal_iteratorIT_T1_EERKNS8_IT0_SA_EE
FN:686,_ZN9__gnu_cxx17__normal_iteratorIPK10CoordinateSt6vectorIS1_SaIS1_EEEC1ERKS3_
FN:713,_ZN9__gnu_cxx17__normal_iteratorIPK10CoordinateSt6vectorIS1_SaIS1_EEEppEi
FN:856,_ZN9__gnu_cxxmiIP10CoordinateSt6vectorIS1_SaIS1_EEEENS_17__normal_iteratorIT_T0_E15difference_typeERKS9_SC_
FN:783,_ZN9__gnu_cxxneIPK10CoordinateSt6vectorIS1_SaIS1_EEEEbRKNS_17__normal_iteratorIT_T0_EESC_
FN:706,_ZN9__gnu_cxx17__normal_iteratorIPK10CoordinateSt6vectorIS1_SaIS1_EEEppEv
FN:698,_ZNK9__gnu_cxx17__normal_iteratorIPK10CoordinateSt6vectorIS1_SaIS1_EEEdeEv
FNDA:0,_ZN9__gnu_cxx17__normal_iteratorIP10CoordinateSt6vectorIS1_SaIS1_EEEC1ERKS2_
FNDA:0,_ZN9__gnu_cxx17__normal_iteratorIPK10CoordinateSt6vectorIS1_SaIS1_EEEC1ERKS3_
FNDA:455,_ZN9__gnu_cxx17__normal_iteratorIPK10CoordinateSt6vectorIS1_SaIS1_EEEC1IPS1_EERKNS0_IT_NS_11__enable_ifIXsrSt10__are_sameISA_S9_E7__valueES6_E6__typeEEE
FNDA:0,_ZNK9__gnu_cxx17__normal_iteratorIPK10CoordinateSt6vectorIS1_SaIS1_EEEdeEv
FNDA:21320,_ZNK9__gnu_cxx17__normal_iteratorIP10CoordinateSt6vectorIS1_SaIS1_EEEptEv
FNDA:0,_ZNK9__gnu_cxx17__normal_iteratorIPK10CoordinateSt6vectorIS1_SaIS1_EEEptEv
FNDA:0,_ZN9__gnu_cxx17__normal_iteratorIPK10CoordinateSt6vectorIS1_SaIS1_EEEppEv
FNDA:3728,_ZN9__gnu_cxx17__normal_iteratorIP10CoordinateSt6vectorIS1_SaIS1_EEEppEi
FNDA:0,_ZN9__gnu_cxx17__normal_iteratorIPK10CoordinateSt6vectorIS1_SaIS1_EEEppEi
FNDA:0,_ZNK9__gnu_cxx17__normal_iteratorIP10CoordinateSt6vectorIS1_SaIS1_EEE4baseEv
FNDA:0,_ZNK9__gnu_cxx17__normal_iteratorIPK10CoordinateSt6vectorIS1_SaIS1_EEE4baseEv
FNDA:2525,_ZN9__gnu_cxxneIPK10CoordinatePS1_St6vectorIS1_SaIS1_EEEEbRKNS_17__normal_iteratorIT_T1_EERKNS8_IT0_SA_EE
FNDA:0,_ZN9__gnu_cxxneIP10CoordinateSt6vectorIS1_SaIS1_EEEEbRKNS_17__normal_iteratorIT_T0_EESB_
FNDA:0,_ZN9__gnu_cxxneIPK10CoordinateSt6vectorIS1_SaIS1_EEEEbRKNS_17__normal_iteratorIT_T0_EESC_
FNDA:0,_ZN9__gnu_cxxmiIP10CoordinateSt6vectorIS1_SaIS1_EEEENS_17__normal_iteratorIT_T0_E15difference_typeERKS9_SC_
FNF:15
FNH:4
DA:686,0
DA:690,455
DA:694,455
DA:698,0
DA:699,0
DA:702,21320
DA:703,21320
DA:706,0
DA:708,0
DA:709,0
DA:713,3728
DA:714,3728
DA:750,0
DA:751,0
DA:777,2525
DA:779,2525
DA:783,0
DA:785,0
DA:856,0
DA:858,0
LF:20
LH:8
end_of_record
SF:/usr/include/c++/4.4/bits/stl_list.h
FN:366,_ZNSt10_List_baseISt6vectorI10CoordinateSaIS1_EESaIS3_EE7_M_initEv
FN:366,_ZNSt10_List_baseIySaIyEE7_M_initEv
FN:128,_ZNSt14_List_iteratorISt6vectorI10CoordinateSaIS1_EEEC1EPSt15_List_node_base
FN:707,_ZNSt4listISt6vectorI10CoordinateSaIS1_EESaIS3_EE3endEv
FN:128,_ZNSt14_List_iteratorIyEC1EPSt15_List_node_base
FN:707,_ZNSt4listIySaIyEE3endEv
FN:330,_ZNKSt10_List_baseISt6vectorI10CoordinateSaIS1_EESaIS3_EE21_M_get_Node_allocatorEv
FN:330,_ZNKSt10_List_baseIySaIyEE21_M_get_Node_allocatorEv
FN:334,_ZNKSt10_List_baseISt6vectorI10CoordinateSaIS1_EESaIS3_EE19_M_get_Tp_allocatorEv
FN:334,_ZNKSt10_List_baseIySaIyEE19_M_get_Tp_allocatorEv
FN:300,_ZNSt10_List_baseIySaIyEE10_List_implD1Ev
FN:300,_ZNSt10_List_baseISt6vectorI10CoordinateSaIS1_EESaIS3_EE10_List_implD1Ev
FN:303,_ZNSt10_List_baseISt6vectorI10CoordinateSaIS1_EESaIS3_EE10_List_implC1Ev
FN:341,_ZNSt10_List_baseISt6vectorI10CoordinateSaIS1_EESaIS3_EEC2Ev
FN:499,_ZNSt4listISt6vectorI10CoordinateSaIS1_EESaIS3_EEC1Ev
FN:303,_ZNSt10_List_baseIySaIyEE10_List_implC1Ev
FN:341,_ZNSt10_List_baseIySaIyEEC2Ev
FN:499,_ZNSt4listIySaIyEEC1Ev
FN:315,_ZNSt10_List_baseISt6vectorI10CoordinateSaIS1_EESaIS3_EE11_M_get_nodeEv
FN:315,_ZNSt10_List_baseIySaIyEE11_M_get_nodeEv
FN:319,_ZNSt10_List_baseISt6vectorI10CoordinateSaIS1_EESaIS3_EE11_M_put_nodeEPSt10_List_nodeIS3_E
FN:459,_ZNSt4listISt6vectorI10CoordinateSaIS1_EESaIS3_EE14_M_create_nodeERKS3_
FN:1405,_ZNSt4listISt6vectorI10CoordinateSaIS1_EESaIS3_EE9_M_insertESt14_List_iteratorIS3_ERKS3_
FN:919,_ZNSt4listISt6vectorI10CoordinateSaIS1_EESaIS3_EE9push_backERKS3_
FN:359,_ZNSt10_List_baseISt6vectorI10CoordinateSaIS1_EESaIS3_EED2Ev
FN:418,_ZNSt4listISt6vectorI10CoordinateSaIS1_EESaIS3_EED1Ev
FN:319,_ZNSt10_List_baseIySaIyEE11_M_put_nodeEPSt10_List_nodeIyE
FN:459,_ZNSt4listIySaIyEE14_M_create_nodeERKy
FN:1405,_ZNSt4listIySaIyEE9_M_insertESt14_List_iteratorIyERKy
FN:919,_ZNSt4listIySaIyEE9push_backERKy
FN:359,_ZNSt10_List_baseIySaIyEED2Ev
FN:418,_ZNSt4listIySaIyEED1Ev
FNDA:0,_ZNSt14_List_iteratorISt6vectorI10CoordinateSaIS1_EEEC1EPSt15_List_node_base
FNDA:0,_ZNSt14_List_iteratorIyEC1EPSt15_List_node_base
FNDA:0,_ZNSt10_List_baseIySaIyEE10_List_implD1Ev
FNDA:0,_ZNSt10_List_baseISt6vectorI10CoordinateSaIS1_EESaIS3_EE10_List_implD1Ev
FNDA:231,_ZNSt10_List_baseISt6vectorI10CoordinateSaIS1_EESaIS3_EE10_List_implC1Ev
FNDA:231,_ZNSt10_List_baseIySaIyEE10_List_implC1Ev
FNDA:0,_ZNSt10_List_baseISt6vectorI10CoordinateSaIS1_EESaIS3_EE11_M_get_nodeEv
FNDA:0,_ZNSt10_List_baseIySaIyEE11_M_get_nodeEv
FNDA:0,_ZNSt10_List_baseISt6vectorI10CoordinateSaIS1_EESaIS3_EE11_M_put_nodeEPSt10_List_nodeIS3_E
FNDA:0,_ZNSt10_List_baseIySaIyEE11_M_put_nodeEPSt10_List_nodeIyE
FNDA:0,_ZNKSt10_List_baseISt6vectorI10CoordinateSaIS1_EESaIS3_EE21_M_get_Node_allocatorEv
FNDA:0,_ZNKSt10_List_baseIySaIyEE21_M_get_Node_allocatorEv
FNDA:0,_ZNKSt10_List_baseISt6vectorI10CoordinateSaIS1_EESaIS3_EE19_M_get_Tp_allocatorEv
FNDA:0,_ZNKSt10_List_baseIySaIyEE19_M_get_Tp_allocatorEv
FNDA:231,_ZNSt10_List_baseISt6vectorI10CoordinateSaIS1_EESaIS3_EEC2Ev
FNDA:231,_ZNSt10_List_baseIySaIyEEC2Ev
FNDA:0,_ZNSt10_List_baseISt6vectorI10CoordinateSaIS1_EESaIS3_EED2Ev
FNDA:0,_ZNSt10_List_baseIySaIyEED2Ev
FNDA:0,_ZNSt10_List_baseISt6vectorI10CoordinateSaIS1_EESaIS3_EE7_M_initEv
FNDA:0,_ZNSt10_List_baseIySaIyEE7_M_initEv
FNDA:0,_ZNSt4listISt6vectorI10CoordinateSaIS1_EESaIS3_EED1Ev
FNDA:0,_ZNSt4listIySaIyEED1Ev
FNDA:0,_ZNSt4listISt6vectorI10CoordinateSaIS1_EESaIS3_EE14_M_create_nodeERKS3_
FNDA:0,_ZNSt4listIySaIyEE14_M_create_nodeERKy
FNDA:231,_ZNSt4listISt6vectorI10CoordinateSaIS1_EESaIS3_EEC1Ev
FNDA:231,_ZNSt4listIySaIyEEC1Ev
FNDA:0,_ZNSt4listISt6vectorI10CoordinateSaIS1_EESaIS3_EE3endEv
FNDA:0,_ZNSt4listIySaIyEE3endEv
FNDA:0,_ZNSt4listISt6vectorI10CoordinateSaIS1_EESaIS3_EE9push_backERKS3_
FNDA:0,_ZNSt4listIySaIyEE9push_backERKy
FNDA:0,_ZNSt4listISt6vectorI10CoordinateSaIS1_EESaIS3_EE9_M_insertESt14_List_iteratorIS3_ERKS3_
FNDA:0,_ZNSt4listIySaIyEE9_M_insertESt14_List_iteratorIyERKy
FNF:32
FNH:6
DA:128,0
DA:129,0
DA:300,0
DA:303,462
DA:304,462
DA:305,462
DA:315,0
DA:316,0
DA:319,0
DA:320,0
DA:330,0
DA:331,0
DA:334,0
DA:335,0
DA:341,462
DA:342,462
DA:343,462
DA:359,0
DA:360,0
DA:366,0
DA:368,0
DA:369,0
DA:370,0
DA:418,0
DA:459,0
DA:461,0
DA:464,0
DA:466,0
DA:468,0
DA:469,0
DA:471,0
DA:499,462
DA:500,462
DA:707,0
DA:708,0
DA:919,0
DA:920,0
DA:1405,0
DA:1407,0
DA:1408,0
DA:1409,0
LF:41
LH:8
end_of_record
SF:/usr/include/c++/4.4/bits/stl_uninitialized.h
FN:67,_ZNSt20__uninitialized_copyILb0EE18uninitialized_copyIN9__gnu_cxx17__normal_iteratorIPK10CoordinateSt6vectorIS4_SaIS4_EEEEPS4_EET0_T_SD_SC_
FN:107,_ZSt18uninitialized_copyIN9__gnu_cxx17__normal_iteratorIPK10CoordinateSt6vectorIS2_SaIS2_EEEEPS2_ET0_T_SB_SA_
FN:255,_ZSt22__uninitialized_copy_aIN9__gnu_cxx17__normal_iteratorIPK10CoordinateSt6vectorIS2_SaIS2_EEEEPS2_S2_ET0_T_SB_SA_RSaIT1_E
FN:180,_ZNSt22__uninitialized_fill_nILb0EE20uninitialized_fill_nIP10CoordinatejS2_EEvT_T0_RKT1_
FN:218,_ZSt20uninitialized_fill_nIP10CoordinatejS0_EvT_T0_RKT1_
FN:316,_ZSt24__uninitialized_fill_n_aIP10CoordinatejS0_S0_EvT_T0_RKT1_RSaIT2_E
FN:67,_ZNSt20__uninitialized_copyILb0EE18uninitialized_copyIP10CoordinateS3_EET0_T_S5_S4_
FN:107,_ZSt18uninitialized_copyIP10CoordinateS1_ET0_T_S3_S2_
FN:255,_ZSt22__uninitialized_copy_aIP10CoordinateS1_S0_ET0_T_S3_S2_RSaIT1_E
FN:262,_ZSt22__uninitialized_move_aIP10CoordinateS1_SaIS0_EET0_T_S4_S3_RT1_
FNDA:0,_ZNSt20__uninitialized_copyILb0EE18uninitialized_copyIN9__gnu_cxx17__normal_iteratorIPK10CoordinateSt6vectorIS4_SaIS4_EEEEPS4_EET0_T_SD_SC_
FNDA:0,_ZNSt20__uninitialized_copyILb0EE18uninitialized_copyIP10CoordinateS3_EET0_T_S5_S4_
FNDA:0,_ZSt18uninitialized_copyIN9__gnu_cxx17__normal_iteratorIPK10CoordinateSt6vectorIS2_SaIS2_EEEEPS2_ET0_T_SB_SA_
FNDA:0,_ZSt18uninitialized_copyIP10CoordinateS1_ET0_T_S3_S2_
FNDA:0,_ZNSt22__uninitialized_fill_nILb0EE20uninitialized_fill_nIP10CoordinatejS2_EEvT_T0_RKT1_
FNDA:0,_ZSt20uninitialized_fill_nIP10CoordinatejS0_EvT_T0_RKT1_
FNDA:0,_ZSt22__uninitialized_copy_aIN9__gnu_cxx17__normal_iteratorIPK10CoordinateSt6vectorIS2_SaIS2_EEEEPS2_S2_ET0_T_SB_SA_RSaIT1_E
FNDA:0,_ZSt22__uninitialized_copy_aIP10CoordinateS1_S0_ET0_T_S3_S2_RSaIT1_E
FNDA:0,_ZSt22__uninitialized_move_aIP10CoordinateS1_SaIS0_EET0_T_S4_S3_RT1_
FNDA:0,_ZSt24__uninitialized_fill_n_aIP10CoordinatejS0_S0_EvT_T0_RKT1_RSaIT2_E
FNF:10
FNH:0
DA:67,0
DA:70,0
DA:73,0
DA:74,0
DA:76,0
DA:78,0
DA:80,0
DA:81,0
DA:107,0
DA:117,0
DA:180,0
DA:183,0
DA:186,0
DA:187,0
DA:189,0
DA:191,0
DA:192,0
DA:194,0
DA:218,0
DA:223,0
DA:225,0
DA:255,0
DA:257,0
DA:262,0
DA:267,0
DA:316,0
DA:318,0
BA:73,0
BA:73,0
BA:73,0
BA:73,0
BA:74,0
BA:74,0
BA:74,0
BA:74,0
BA:186,0
BA:186,0
LF:27
LH:0
end_of_record
SF:/usr/include/c++/4.4/bits/stl_vector.h
FN:532,_ZNKSt6vectorI10CoordinateSaIS0_EE4sizeEv
FN:610,_ZNSt6vectorI10CoordinateSaIS0_EEixEj
FN:93,_ZNSt12_Vector_baseI10CoordinateSaIS0_EE19_M_get_Tp_allocatorEv
FN:425,_ZNSt6vectorI10CoordinateSaIS0_EE5beginEv
FN:443,_ZNSt6vectorI10CoordinateSaIS0_EE3endEv
FN:1148,_ZNSt6vectorI10CoordinateSaIS0_EE15_M_erase_at_endEPS0_
FN:97,_ZNKSt12_Vector_baseI10CoordinateSaIS0_EE19_M_get_Tp_allocatorEv
FN:537,_ZNKSt6vectorI10CoordinateSaIS0_EE8max_sizeEv
FN:434,_ZNKSt6vectorI10CoordinateSaIS0_EE5beginEv
FN:452,_ZNKSt6vectorI10CoordinateSaIS0_EE3endEv
FN:84,_ZNSt12_Vector_baseI10CoordinateSaIS0_EE12_Vector_implC1ERKS1_
FN:75,_ZNSt12_Vector_baseI10CoordinateSaIS0_EE12_Vector_implD1Ev
FN:1033,_ZNSt6vectorI10CoordinateSaIS0_EE18_M_fill_initializeEjRKS0_
FN:139,_ZNSt12_Vector_baseI10CoordinateSaIS0_EE11_M_allocateEj
FN:110,_ZNSt12_Vector_baseI10CoordinateSaIS0_EEC2EjRKS1_
FN:143,_ZNSt12_Vector_baseI10CoordinateSaIS0_EE13_M_deallocateEPS0_j
FN:131,_ZNSt12_Vector_baseI10CoordinateSaIS0_EED2Ev
FN:241,_ZNSt6vectorI10CoordinateSaIS0_EEC1ERKS2_
FN:312,_ZNSt6vectorI10CoordinateSaIS0_EED1Ev
FN:227,_ZNSt6vectorI10CoordinateSaIS0_EEC1EjRKS0_RKS1_
FN:1134,_ZNKSt6vectorI10CoordinateSaIS0_EE12_M_check_lenEjPKc
FN:850,_ZNSt6vectorI10CoordinateSaIS0_EE6insertEN9__gnu_cxx17__normal_iteratorIPS0_S2_EEjRKS0_
FN:552,_ZNSt6vectorI10CoordinateSaIS0_EE6resizeEjS0_
FNDA:0,_ZNSt12_Vector_baseI10CoordinateSaIS0_EE12_Vector_implD1Ev
FNDA:0,_ZNSt12_Vector_baseI10CoordinateSaIS0_EE12_Vector_implC1ERKS1_
FNDA:0,_ZNSt12_Vector_baseI10CoordinateSaIS0_EE19_M_get_Tp_allocatorEv
FNDA:0,_ZNKSt12_Vector_baseI10CoordinateSaIS0_EE19_M_get_Tp_allocatorEv
FNDA:0,_ZNSt12_Vector_baseI10CoordinateSaIS0_EEC2EjRKS1_
FNDA:0,_ZNSt12_Vector_baseI10CoordinateSaIS0_EED2Ev
FNDA:0,_ZNSt12_Vector_baseI10CoordinateSaIS0_EE11_M_allocateEj
FNDA:0,_ZNSt12_Vector_baseI10CoordinateSaIS0_EE13_M_deallocateEPS0_j
FNDA:0,_ZNSt6vectorI10CoordinateSaIS0_EEC1EjRKS0_RKS1_
FNDA:0,_ZNSt6vectorI10CoordinateSaIS0_EEC1ERKS2_
FNDA:0,_ZNSt6vectorI10CoordinateSaIS0_EED1Ev
FNDA:0,_ZNSt6vectorI10CoordinateSaIS0_EE5beginEv
FNDA:0,_ZNKSt6vectorI10CoordinateSaIS0_EE5beginEv
FNDA:0,_ZNSt6vectorI10CoordinateSaIS0_EE3endEv
FNDA:0,_ZNKSt6vectorI10CoordinateSaIS0_EE3endEv
FNDA:0,_ZNKSt6vectorI10CoordinateSaIS0_EE4sizeEv
FNDA:0,_ZNKSt6vectorI10CoordinateSaIS0_EE8max_sizeEv
FNDA:462,_ZNSt6vectorI10CoordinateSaIS0_EE6resizeEjS0_
FNDA:0,_ZNSt6vectorI10CoordinateSaIS0_EEixEj
FNDA:120,_ZNSt6vectorI10CoordinateSaIS0_EE6insertEN9__gnu_cxx17__normal_iteratorIPS0_S2_EEjRKS0_
FNDA:0,_ZNSt6vectorI10CoordinateSaIS0_EE18_M_fill_initializeEjRKS0_
FNDA:0,_ZNKSt6vectorI10CoordinateSaIS0_EE12_M_check_lenEjPKc
FNDA:342,_ZNSt6vectorI10CoordinateSaIS0_EE15_M_erase_at_endEPS0_
FNF:23
FNH:3
DA:75,0
DA:84,0
DA:85,0
DA:86,0
DA:93,0
DA:94,0
DA:97,0
DA:98,0
DA:110,0
DA:111,0
DA:113,0
DA:114,0
DA:115,0
DA:116,0
DA:131,0
DA:132,0
DA:133,0
DA:139,0
DA:140,0
DA:143,0
DA:145,0
DA:146,0
DA:147,0
DA:227,0
DA:229,0
DA:230,0
DA:241,0
DA:242,0
DA:243,0
DA:247,0
DA:312,0
DA:313,0
DA:314,0
DA:425,0
DA:426,0
DA:434,0
DA:435,0
DA:443,0
DA:444,0
DA:452,0
DA:453,0
DA:532,0
DA:533,0
DA:537,0
DA:538,0
DA:552,462
DA:554,462
DA:555,342
DA:557,120
DA:558,462
DA:610,0
DA:611,0
DA:850,120
DA:851,120
DA:1033,0
DA:1035,0
DA:1037,0
DA:1038,0
DA:1134,0
DA:1136,0
DA:1137,0
DA:1139,0
DA:1140,0
DA:1148,342
DA:1150,342
DA:1151,342
DA:1152,342
BA:140,0
BA:140,0
BA:145,0
BA:145,0
BA:554,2
BA:554,2
BA:1136,0
BA:1136,0
BA:1140,0
BA:1140,0
BA:1140,0
BA:1140,0
LF:67
LH:11
end_of_record
SF:/usr/include/c++/4.4/bits/vector.tcc
FN:372,_ZNSt6vectorI10CoordinateSaIS0_EE14_M_fill_insertEN9__gnu_cxx17__normal_iteratorIPS0_S2_EEjRKS0_
FNDA:120,_ZNSt6vectorI10CoordinateSaIS0_EE14_M_fill_insertEN9__gnu_cxx17__normal_iteratorIPS0_S2_EEjRKS0_
FNF:1
FNH:1
DA:372,120
DA:375,120
DA:377,0
DA:380,0
DA:381,0
DA:382,0
DA:383,0
DA:385,0
DA:389,0
DA:390,0
DA:392,0
DA:397,0
DA:401,0
DA:402,0
DA:405,0
DA:406,0
DA:412,0
DA:413,0
DA:414,0
DA:415,0
DA:419,0
DA:422,0
DA:424,0
DA:429,0
DA:431,0
DA:437,0
DA:439,0
DA:440,0
DA:444,0
DA:446,0
DA:447,0
DA:449,0
DA:451,0
DA:454,0
DA:455,0
DA:456,0
DA:459,120
BA:375,1
BA:375,2
BA:377,0
BA:377,0
BA:383,0
BA:383,0
BA:439,0
BA:439,0
LF:37
LH:3
end_of_record
SF:/usr/include/c++/4.4/ext/atomicity.h
FN:62,_ZN9__gnu_cxxL25__exchange_and_add_singleEPii
FN:45,_ZN9__gnu_cxxL18__exchange_and_addEPVii
FN:75,_ZN9__gnu_cxxL27__exchange_and_add_dispatchEPii
FNDA:0,_ZN9__gnu_cxxL18__exchange_and_addEPVii
FNDA:0,_ZN9__gnu_cxxL25__exchange_and_add_singleEPii
FNDA:0,_ZN9__gnu_cxxL27__exchange_and_add_dispatchEPii
FNF:3
FNH:0
DA:45,0
DA:46,0
DA:62,0
DA:64,0
DA:65,0
DA:66,0
DA:75,0
DA:78,0
DA:79,0
DA:81,0
BA:78,0
BA:78,0
LF:10
LH:0
end_of_record
SF:/usr/include/c++/4.4/ext/new_allocator.h
FN:66,_ZN9__gnu_cxx13new_allocatorIcEC2Ev
FN:73,_ZN9__gnu_cxx13new_allocatorIcED2Ev
FN:66,_ZN9__gnu_cxx13new_allocatorI10CoordinateEC2Ev
FN:73,_ZN9__gnu_cxx13new_allocatorI10CoordinateED2Ev
FN:73,_ZN9__gnu_cxx13new_allocatorISt10_List_nodeISt6vectorI10CoordinateSaIS3_EEEED2Ev
FN:73,_ZN9__gnu_cxx13new_allocatorISt10_List_nodeIyEED2Ev
FN:115,_ZN9__gnu_cxx13new_allocatorIyE7destroyEPy
FN:68,_ZN9__gnu_cxx13new_allocatorIcEC2ERKS1_
FN:73,_ZN9__gnu_cxx13new_allocatorISt6vectorI10CoordinateSaIS2_EEED2Ev
FN:73,_ZN9__gnu_cxx13new_allocatorIyED2Ev
FN:104,_ZN9__gnu_cxx13new_allocatorIyE9constructEPyRKy
FN:68,_ZN9__gnu_cxx13new_allocatorI10CoordinateEC2ERKS2_
FN:98,_ZNK9__gnu_cxx13new_allocatorI10CoordinateE8max_sizeEv
FN:66,_ZN9__gnu_cxx13new_allocatorISt10_List_nodeISt6vectorI10CoordinateSaIS3_EEEEC2Ev
FN:66,_ZN9__gnu_cxx13new_allocatorISt6vectorI10CoordinateSaIS2_EEEC2Ev
FN:66,_ZN9__gnu_cxx13new_allocatorISt10_List_nodeIyEEC2Ev
FN:66,_ZN9__gnu_cxx13new_allocatorIyEC2Ev
FN:98,_ZNK9__gnu_cxx13new_allocatorISt10_List_nodeISt6vectorI10CoordinateSaIS3_EEEE8max_sizeEv
FN:98,_ZNK9__gnu_cxx13new_allocatorISt10_List_nodeIyEE8max_sizeEv
FN:84,_ZN9__gnu_cxx13new_allocatorISt10_List_nodeISt6vectorI10CoordinateSaIS3_EEEE8allocateEjPKv
FN:84,_ZN9__gnu_cxx13new_allocatorI10CoordinateE8allocateEjPKv
FN:84,_ZN9__gnu_cxx13new_allocatorISt10_List_nodeIyEE8allocateEjPKv
FN:94,_ZN9__gnu_cxx13new_allocatorI10CoordinateE10deallocateEPS1_j
FN:104,_ZN9__gnu_cxx13new_allocatorISt6vectorI10CoordinateSaIS2_EEE9constructEPS4_RKS4_
FN:115,_ZN9__gnu_cxx13new_allocatorISt6vectorI10CoordinateSaIS2_EEE7destroyEPS4_
FN:94,_ZN9__gnu_cxx13new_allocatorISt10_List_nodeISt6vectorI10CoordinateSaIS3_EEEE10deallocateEPS6_j
FN:94,_ZN9__gnu_cxx13new_allocatorISt10_List_nodeIyEE10deallocateEPS2_j
FNDA:0,_ZN9__gnu_cxx13new_allocatorIcEC2Ev
FNDA:0,_ZN9__gnu_cxx13new_allocatorI10CoordinateEC2Ev
FNDA:0,_ZN9__gnu_cxx13new_allocatorISt10_List_nodeISt6vectorI10CoordinateSaIS3_EEEEC2Ev
FNDA:0,_ZN9__gnu_cxx13new_allocatorISt6vectorI10CoordinateSaIS2_EEEC2Ev
FNDA:0,_ZN9__gnu_cxx13new_allocatorISt10_List_nodeIyEEC2Ev
FNDA:0,_ZN9__gnu_cxx13new_allocatorIyEC2Ev
FNDA:0,_ZN9__gnu_cxx13new_allocatorIcEC2ERKS1_
FNDA:0,_ZN9__gnu_cxx13new_allocatorI10CoordinateEC2ERKS2_
FNDA:0,_ZN9__gnu_cxx13new_allocatorIcED2Ev
FNDA:0,_ZN9__gnu_cxx13new_allocatorI10CoordinateED2Ev
FNDA:0,_ZN9__gnu_cxx13new_allocatorISt10_List_nodeISt6vectorI10CoordinateSaIS3_EEEED2Ev
FNDA:0,_ZN9__gnu_cxx13new_allocatorISt10_List_nodeIyEED2Ev
FNDA:0,_ZN9__gnu_cxx13new_allocatorISt6vectorI10CoordinateSaIS2_EEED2Ev
FNDA:0,_ZN9__gnu_cxx13new_allocatorIyED2Ev
FNDA:0,_ZN9__gnu_cxx13new_allocatorISt10_List_nodeISt6vectorI10CoordinateSaIS3_EEEE8allocateEjPKv
FNDA:0,_ZN9__gnu_cxx13new_allocatorI10CoordinateE8allocateEjPKv
FNDA:0,_ZN9__gnu_cxx13new_allocatorISt10_List_nodeIyEE8allocateEjPKv
FNDA:0,_ZN9__gnu_cxx13new_allocatorI10CoordinateE10deallocateEPS1_j
FNDA:0,_ZN9__gnu_cxx13new_allocatorISt10_List_nodeISt6vectorI10CoordinateSaIS3_EEEE10deallocateEPS6_j
FNDA:0,_ZN9__gnu_cxx13new_allocatorISt10_List_nodeIyEE10deallocateEPS2_j
FNDA:0,_ZNK9__gnu_cxx13new_allocatorI10CoordinateE8max_sizeEv
FNDA:0,_ZNK9__gnu_cxx13new_allocatorISt10_List_nodeISt6vectorI10CoordinateSaIS3_EEEE8max_sizeEv
FNDA:0,_ZNK9__gnu_cxx13new_allocatorISt10_List_nodeIyEE8max_sizeEv
FNDA:0,_ZN9__gnu_cxx13new_allocatorIyE9constructEPyRKy
FNDA:0,_ZN9__gnu_cxx13new_allocatorISt6vectorI10CoordinateSaIS2_EEE9constructEPS4_RKS4_
FNDA:0,_ZN9__gnu_cxx13new_allocatorIyE7destroyEPy
FNDA:0,_ZN9__gnu_cxx13new_allocatorISt6vectorI10CoordinateSaIS2_EEE7destroyEPS4_
FNF:27
FNH:0
DA:66,0
DA:68,0
DA:73,0
DA:84,0
DA:86,0
DA:87,0
DA:89,0
DA:94,0
DA:95,0
DA:98,0
DA:99,0
DA:104,0
DA:105,0
DA:115,0
BA:86,0
BA:86,0
BA:86,0
BA:86,0
BA:86,0
BA:86,0
BA:105,0
BA:105,0
BA:105,0
BA:105,0
LF:14
LH:0
end_of_record
SF:/usr/include/c++/4.4/i486-linux-gnu/bits/gthr-default.h
FN:238,_ZL18__gthread_active_pv
FNDA:0,_ZL18__gthread_active_pv
FNF:1
FNH:0
DA:238,0
DA:242,0
LF:2
LH:0
end_of_record
SF:/usr/include/c++/4.4/new
FN:101,_ZnwjPv
FN:105,_ZdlPvS_
FNDA:0,_ZnwjPv
FNDA:0,_ZdlPvS_
FNF:2
FNH:0
DA:101,0
DA:105,0
LF:2
LH:0
end_of_record
SF:/home/frechilla/workspace/headless/blockem_sourceforge/src/coordinate.h
FN:49,_ZN10CoordinateC1Ev
FN:61,_ZN10Coordinate3SetEii
FN:47,_ZN10CoordinateaSERKS_
FN:47,_ZN10CoordinateC1ERKS_
FN:57,_ZN10CoordinateD0Ev
FN:57,_ZN10CoordinateD1Ev
FNDA:0,_ZN10CoordinateaSERKS_
FNDA:0,_ZN10CoordinateC1ERKS_
FNDA:0,_ZN10CoordinateC1Ev
FNDA:0,_ZN10CoordinateD0Ev
FNDA:0,_ZN10CoordinateD1Ev
FNDA:445,_ZN10Coordinate3SetEii
FNF:6
FNH:1
DA:47,0
DA:49,0
DA:51,0
DA:52,0
DA:57,0
DA:58,0
DA:61,445
DA:63,445
DA:64,445
DA:65,445
BA:58,0
BA:58,0
BA:58,0
BA:58,0
LF:10
LH:4
end_of_record
SF:/home/frechilla/workspace/headless/blockem_sourceforge/src/piece.cpp
FN:647,_Z41__static_initialization_and_destruction_0ii
FN:647,_GLOBAL__I__ZN5Piece16PieceDescriptionE
FN:36,__tcf_0
FN:116,_ZN5PieceD0Ev
FN:116,_ZN5PieceD1Ev
FN:116,_ZN5PieceD2Ev
FN:292,_ZN5Piece11MirrorXAxisEv
FN:269,_ZN5Piece11MirrorYAxisEv
FN:219,_ZN5Piece10RotateLeftEv
FN:169,_ZN5Piece11RotateRightEv
FN:153,_ZN5Piece5ResetEv
FN:604,_ZN5Piece35BuildUpPrecalculatedRepresentationsEv
FN:120,_ZN5Piece8SetPieceEP10Coordinatehbah
FN:587,_ZN5Piece22LoadPiece_5TheUltimateERS_
FN:573,_ZN5Piece22LoadPiece_5BoringPieceERS_
FN:558,_ZN5Piece22LoadPiece_5SquareAppenERS_
FN:543,_ZN5Piece14LoadPiece_5MrTERS_
FN:527,_ZN5Piece15LoadPiece_5BigLERS_
FN:512,_ZN5Piece21LoadPiece_5HalfSquareERS_
FN:497,_ZN5Piece16LoadPiece_5CrossERS_
FN:480,_ZN5Piece19LoadPiece_5BigPenisERS_
FN:466,_ZN5Piece20LoadPiece_5CuntPieceERS_
FN:451,_ZN5Piece17LoadPiece_5WPieceERS_
FN:436,_ZN5Piece19LoadPiece_5SafPieceERS_
FN:421,_ZN5Piece15LoadPiece_5BigSERS_
FN:408,_ZN5Piece21LoadPiece_4FullSquareERS_
FN:395,_ZN5Piece18LoadPiece_4littleLERS_
FN:382,_ZN5Piece18LoadPiece_4LittleTERS_
FN:369,_ZN5Piece18LoadPiece_4LittleSERS_
FN:357,_ZN5Piece20LoadPiece_4LongPieceERS_
FN:345,_ZN5Piece19LoadPiece_3TriangleERS_
FN:334,_ZN5Piece20LoadPiece_3LongPieceERS_
FN:324,_ZN5Piece19LoadPiece_2TwoPieceERS_
FN:315,_ZN5Piece20LoadPiece_1BabyPieceERS_
FN:87,_ZN5PieceC1E12ePieceType_t
FN:87,_ZN5PieceC2E12ePieceType_t
FNDA:1,__tcf_0
FNDA:231,_ZN5PieceC1E12ePieceType_t
FNDA:0,_ZN5PieceC2E12ePieceType_t
FNDA:0,_ZN5PieceD0Ev
FNDA:231,_ZN5PieceD1Ev
FNDA:0,_ZN5PieceD2Ev
FNDA:231,_ZN5Piece8SetPieceEP10Coordinatehbah
FNDA:279,_ZN5Piece5ResetEv
FNDA:640,_ZN5Piece11RotateRightEv
FNDA:1,_ZN5Piece10RotateLeftEv
FNDA:202,_ZN5Piece11MirrorYAxisEv
FNDA:0,_ZN5Piece11MirrorXAxisEv
FNDA:5,_ZN5Piece20LoadPiece_1BabyPieceERS_
FNDA:5,_ZN5Piece19LoadPiece_2TwoPieceERS_
FNDA:5,_ZN5Piece20LoadPiece_3LongPieceERS_
FNDA:5,_ZN5Piece19LoadPiece_3TriangleERS_
FNDA:5,_ZN5Piece20LoadPiece_4LongPieceERS_
FNDA:5,_ZN5Piece18LoadPiece_4LittleSERS_
FNDA:5,_ZN5Piece18LoadPiece_4LittleTERS_
FNDA:5,_ZN5Piece18LoadPiece_4littleLERS_
FNDA:5,_ZN5Piece21LoadPiece_4FullSquareERS_
FNDA:5,_ZN5Piece15LoadPiece_5BigSERS_
FNDA:5,_ZN5Piece19LoadPiece_5SafPieceERS_
FNDA:5,_ZN5Piece17LoadPiece_5WPieceERS_
FNDA:5,_ZN5Piece20LoadPiece_5CuntPieceERS_
FNDA:5,_ZN5Piece19LoadPiece_5BigPenisERS_
FNDA:5,_ZN5Piece16LoadPiece_5CrossERS_
FNDA:5,_ZN5Piece21LoadPiece_5HalfSquareERS_
FNDA:5,_ZN5Piece15LoadPiece_5BigLERS_
FNDA:5,_ZN5Piece14LoadPiece_5MrTERS_
FNDA:5,_ZN5Piece22LoadPiece_5SquareAppenERS_
FNDA:5,_ZN5Piece22LoadPiece_5BoringPieceERS_
FNDA:5,_ZN5Piece22LoadPiece_5TheUltimateERS_
FNDA:105,_ZN5Piece35BuildUpPrecalculatedRepresentationsEv
FNDA:1,_Z41__static_initialization_and_destruction_0ii
FNDA:1,_GLOBAL__I__ZN5Piece16PieceDescriptionE
FNF:36
FNH:32
DA:36,2
DA:59,1
DA:87,231
DA:92,231
DA:95,231
DA:98,105
DA:99,105
DA:100,105
DA:103,105
DA:106,105
DA:111,126
DA:112,126
DA:114,231
DA:116,231
DA:118,231
DA:120,231
DA:128,231
DA:129,231
DA:132,231
DA:133,231
DA:134,231
DA:136,231
DA:138,231
DA:139,462
DA:142,676
DA:144,445
DA:145,445
DA:149,231
DA:151,231
DA:153,279
DA:156,279
DA:160,1460
DA:162,1181
DA:163,1181
DA:166,279
DA:167,279
DA:169,640
DA:172,640
DA:175,640
DA:178,21
DA:181,3460
DA:186,2841
DA:189,1598
DA:190,1598
DA:191,1598
DA:193,1243
DA:196,560
DA:197,560
DA:198,560
DA:200,683
DA:203,148
DA:204,148
DA:205,148
DA:210,535
DA:211,535
DA:212,535
DA:216,619
DA:219,1
DA:222,1
DA:225,1
DA:228,0
DA:231,4
DA:236,3
DA:239,2
DA:240,2
DA:241,2
DA:243,1
DA:246,1
DA:247,1
DA:248,1
DA:250,0
DA:253,0
DA:254,0
DA:255,0
DA:260,0
DA:261,0
DA:262,0
DA:266,1
DA:269,202
DA:272,202
DA:275,1086
DA:279,884
DA:282,202
DA:285,90
DA:288,112
DA:289,112
DA:292,0
DA:295,0
DA:298,0
DA:302,0
DA:305,0
DA:308,0
DA:311,0
DA:312,0
DA:315,5
DA:318,10
DA:320,5
DA:322,10
DA:323,5
DA:324,5
DA:327,15
DA:329,5
DA:330,5
DA:332,15
DA:333,5
DA:334,5
DA:337,20
DA:339,5
DA:340,5
DA:341,5
DA:343,20
DA:344,5
DA:345,5
DA:349,20
DA:351,5
DA:352,5
DA:353,5
DA:355,20
DA:356,5
DA:357,5
DA:360,25
DA:362,5
DA:363,5
DA:364,5
DA:365,5
DA:367,25
DA:368,5
DA:369,5
DA:373,25
DA:375,5
DA:376,5
DA:377,5
DA:378,5
DA:380,25
DA:381,5
DA:382,5
DA:386,25
DA:388,5
DA:389,5
DA:390,5
DA:391,5
DA:393,25
DA:394,5
DA:395,5
DA:399,25
DA:401,5
DA:402,5
DA:403,5
DA:404,5
DA:406,25
DA:407,5
DA:408,5
DA:412,25
DA:414,5
DA:415,5
DA:416,5
DA:417,5
DA:419,25
DA:420,5
DA:421,5
DA:426,30
DA:428,5
DA:429,5
DA:430,5
DA:431,5
DA:432,5
DA:434,30
DA:435,5
DA:436,5
DA:441,30
DA:443,5
DA:444,5
DA:445,5
DA:446,5
DA:447,5
DA:449,30
DA:450,5
DA:451,5
DA:456,30
DA:458,5
DA:459,5
DA:460,5
DA:461,5
DA:462,5
DA:464,30
DA:465,5
DA:466,5
DA:470,30
DA:472,5
DA:473,5
DA:474,5
DA:475,5
DA:476,5
DA:478,30
DA:479,5
DA:480,5
DA:487,30
DA:489,5
DA:490,5
DA:491,5
DA:492,5
DA:493,5
DA:495,30
DA:496,5
DA:497,5
DA:502,30
DA:504,5
DA:505,5
DA:506,5
DA:507,5
DA:508,5
DA:510,30
DA:511,5
DA:512,5
DA:517,30
DA:519,5
DA:520,5
DA:521,5
DA:522,5
DA:523,5
DA:525,30
DA:526,5
DA:527,5
DA:533,30
DA:535,5
DA:536,5
DA:537,5
DA:538,5
DA:539,5
DA:541,30
DA:542,5
DA:543,5
DA:548,30
DA:550,5
DA:551,5
DA:552,5
DA:553,5
DA:554,5
DA:556,30
DA:557,5
DA:558,5
DA:563,30
DA:565,5
DA:566,5
DA:567,5
DA:568,5
DA:569,5
DA:571,30
DA:572,5
DA:573,5
DA:577,30
DA:579,5
DA:580,5
DA:581,5
DA:582,5
DA:583,5
DA:585,30
DA:586,5
DA:587,5
DA:593,30
DA:595,5
DA:596,5
DA:597,5
DA:598,5
DA:599,5
DA:601,30
DA:602,5
DA:604,145
DA:606,145
DA:608,145
DA:609,745
DA:612,455
DA:615,455
DA:616,2525
DA:621,2070
DA:623,455
DA:625,455
DA:626,455
DA:629,145
DA:640,5
DA:646,105
DA:647,108
BA:36,2
BA:36,2
BA:59,0
BA:59,0
BA:59,0
BA:59,0
BA:95,2
BA:95,2
BA:95,0
BA:95,0
BA:98,1
BA:98,2
BA:98,0
BA:98,0
BA:99,1
BA:99,2
BA:99,0
BA:99,0
BA:100,1
BA:100,2
BA:100,0
BA:100,0
BA:112,0
BA:112,0
BA:112,1
BA:112,2
BA:112,0
BA:112,0
BA:112,0
BA:112,0
BA:118,0
BA:118,0
BA:118,1
BA:118,2
BA:118,0
BA:118,0
BA:128,1
BA:128,2
BA:129,1
BA:129,2
BA:142,2
BA:142,2
BA:156,2
BA:156,1
BA:160,2
BA:160,2
BA:172,2
BA:172,1
BA:175,2
BA:175,2
BA:181,2
BA:181,2
BA:186,2
BA:186,2
BA:186,2
BA:186,2
BA:186,2
BA:186,2
BA:193,2
BA:193,2
BA:193,2
BA:193,1
BA:193,2
BA:193,2
BA:200,2
BA:200,1
BA:200,2
BA:200,2
BA:200,2
BA:200,2
BA:222,2
BA:222,1
BA:225,1
BA:225,2
BA:231,2
BA:231,2
BA:236,2
BA:236,1
BA:236,2
BA:236,2
BA:236,2
BA:236,2
BA:243,2
BA:243,1
BA:243,2
BA:243,1
BA:243,2
BA:243,1
BA:250,0
BA:250,0
BA:250,0
BA:250,0
BA:250,0
BA:250,0
BA:272,2
BA:272,1
BA:275,2
BA:275,2
BA:282,2
BA:282,2
BA:295,0
BA:295,0
BA:298,0
BA:298,0
BA:305,0
BA:305,0
BA:318,2
BA:318,2
BA:318,0
BA:318,0
BA:318,0
BA:318,0
BA:322,0
BA:322,0
BA:322,2
BA:322,2
BA:327,2
BA:327,2
BA:327,0
BA:327,0
BA:327,0
BA:327,0
BA:332,0
BA:332,0
BA:332,2
BA:332,2
BA:337,2
BA:337,2
BA:337,0
BA:337,0
BA:337,0
BA:337,0
BA:343,0
BA:343,0
BA:343,2
BA:343,2
BA:349,2
BA:349,2
BA:349,0
BA:349,0
BA:349,0
BA:349,0
BA:355,0
BA:355,0
BA:355,2
BA:355,2
BA:360,2
BA:360,2
BA:360,0
BA:360,0
BA:360,0
BA:360,0
BA:367,0
BA:367,0
BA:367,2
BA:367,2
BA:373,2
BA:373,2
BA:373,0
BA:373,0
BA:373,0
BA:373,0
BA:380,0
BA:380,0
BA:380,2
BA:380,2
BA:386,2
BA:386,2
BA:386,0
BA:386,0
BA:386,0
BA:386,0
BA:393,0
BA:393,0
BA:393,2
BA:393,2
BA:399,2
BA:399,2
BA:399,0
BA:399,0
BA:399,0
BA:399,0
BA:406,0
BA:406,0
BA:406,2
BA:406,2
BA:412,2
BA:412,2
BA:412,0
BA:412,0
BA:412,0
BA:412,0
BA:419,0
BA:419,0
BA:419,2
BA:419,2
BA:426,2
BA:426,2
BA:426,0
BA:426,0
BA:426,0
BA:426,0
BA:434,0
BA:434,0
BA:434,2
BA:434,2
BA:441,2
BA:441,2
BA:441,0
BA:441,0
BA:441,0
BA:441,0
BA:449,0
BA:449,0
BA:449,2
BA:449,2
BA:456,2
BA:456,2
BA:456,0
BA:456,0
BA:456,0
BA:456,0
BA:464,0
BA:464,0
BA:464,2
BA:464,2
BA:470,2
BA:470,2
BA:470,0
BA:470,0
BA:470,0
BA:470,0
BA:478,0
BA:478,0
BA:478,2
BA:478,2
BA:487,2
BA:487,2
BA:487,0
BA:487,0
BA:487,0
BA:487,0
BA:495,0
BA:495,0
BA:495,2
BA:495,2
BA:502,2
BA:502,2
BA:502,0
BA:502,0
BA:502,0
BA:502,0
BA:510,0
BA:510,0
BA:510,2
BA:510,2
BA:517,2
BA:517,2
BA:517,0
BA:517,0
BA:517,0
BA:517,0
BA:525,0
BA:525,0
BA:525,2
BA:525,2
BA:533,2
BA:533,2
BA:533,0
BA:533,0
BA:533,0
BA:533,0
BA:541,0
BA:541,0
BA:541,2
BA:541,2
BA:548,2
BA:548,2
BA:548,0
BA:548,0
BA:548,0
BA:548,0
BA:556,0
BA:556,0
BA:556,2
BA:556,2
BA:563,2
BA:563,2
BA:563,0
BA:563,0
BA:563,0
BA:563,0
BA:571,0
BA:571,0
BA:571,2
BA:571,2
BA:577,2
BA:577,2
BA:577,0
BA:577,0
BA:577,0
BA:577,0
BA:585,0
BA:585,0
BA:585,2
BA:585,2
BA:593,2
BA:593,2
BA:593,0
BA:593,0
BA:593,0
BA:593,0
BA:601,0
BA:601,0
BA:601,2
BA:601,2
BA:606,2
BA:606,2
BA:609,2
BA:609,2
BA:616,2
BA:616,2
BA:629,2
BA:629,2
BA:629,2
BA:629,2
BA:629,2
BA:629,2
BA:647,2
BA:647,1
BA:647,2
BA:647,1
LF:282
LH:266
end_of_record
SF:/home/frechilla/workspace/headless/blockem_sourceforge/src/piece.h
FN:152,_ZNK5Piece7GetTypeEv
FN:158,_ZNK5Piece11GetNSquaresEv
FN:125,_ZNK5Piece13GetNRotationsEv
FN:143,_ZNK5Piece10IsMirroredEv
FNDA:0,_ZNK5Piece13GetNRotationsEv
FNDA:122,_ZNK5Piece10IsMirroredEv
FNDA:0,_ZNK5Piece7GetTypeEv
FNDA:0,_ZNK5Piece11GetNSquaresEv
FNF:4
FNH:1
DA:125,0
DA:128,0
DA:130,0
DA:143,122
DA:146,122
DA:148,244
DA:152,0
DA:154,0
DA:158,0
DA:160,0
BA:128,0
BA:128,0
BA:146,2
BA:146,1
BA:148,2
BA:148,1
BA:148,2
BA:148,2
LF:10
LH:3
end_of_record
TN:
SF:/usr/include/c++/4.4/bits/allocator.h
FN:167,_ZNSt11__alloc_neqISaISt10_List_nodeISt6vectorI10CoordinateSaIS2_EEEELb1EE8_S_do_itERKS6_S9_
FN:167,_ZNSt11__alloc_neqISaISt10_List_nodeIyEELb1EE8_S_do_itERKS2_S5_
FN:101,_ZNSaIcEC1Ev
FN:103,_ZNSaIcEC2ERKS_
FN:109,_ZNSaIcED1Ev
FN:103,_ZNSaIcEC1ERKS_
FN:109,_ZNSaIcED2Ev
FN:101,_ZNSaI10CoordinateEC1Ev
FN:103,_ZNSaI10CoordinateEC2ERKS0_
FN:109,_ZNSaI10CoordinateED2Ev
FN:109,_ZNSaI10CoordinateED1Ev
FN:107,_ZNSaISt6vectorI10CoordinateSaIS0_EEEC1ISt10_List_nodeIS2_EEERKSaIT_E
FN:109,_ZNSaISt6vectorI10CoordinateSaIS0_EEED1Ev
FN:107,_ZNSaISt10_List_nodeISt6vectorI10CoordinateSaIS1_EEEEC1IS3_EERKSaIT_E
FN:103,_ZNSaISt10_List_nodeISt6vectorI10CoordinateSaIS1_EEEEC2ERKS5_
FN:109,_ZNSaISt10_List_nodeISt6vectorI10CoordinateSaIS1_EEEED1Ev
FN:109,_ZNSaISt10_List_nodeISt6vectorI10CoordinateSaIS1_EEEED2Ev
FN:107,_ZNSaIyEC1ISt10_List_nodeIyEEERKSaIT_E
FN:109,_ZNSaIyED1Ev
FN:107,_ZNSaISt10_List_nodeIyEEC1IyEERKSaIT_E
FN:103,_ZNSaISt10_List_nodeIyEEC2ERKS1_
FN:109,_ZNSaISt10_List_nodeIyEED1Ev
FN:109,_ZNSaISt10_List_nodeIyEED2Ev
FNDA:0,_ZNSaIcEC1Ev
FNDA:484,_ZNSaI10CoordinateEC1Ev
FNDA:0,_ZNSaIcEC2ERKS_
FNDA:0,_ZNSaIcEC1ERKS_
FNDA:1485,_ZNSaI10CoordinateEC2ERKS0_
FNDA:126,_ZNSaISt10_List_nodeISt6vectorI10CoordinateSaIS1_EEEEC2ERKS5_
FNDA:126,_ZNSaISt10_List_nodeIyEEC2ERKS1_
FNDA:2128,_ZNSaISt6vectorI10CoordinateSaIS0_EEEC1ISt10_List_nodeIS2_EEERKSaIT_E
FNDA:126,_ZNSaISt10_List_nodeISt6vectorI10CoordinateSaIS1_EEEEC1IS3_EERKSaIT_E
FNDA:2128,_ZNSaIyEC1ISt10_List_nodeIyEEERKSaIT_E
FNDA:126,_ZNSaISt10_List_nodeIyEEC1IyEERKSaIT_E
FNDA:0,_ZNSaIcED1Ev
FNDA:0,_ZNSaIcED2Ev
FNDA:1485,_ZNSaI10CoordinateED2Ev
FNDA:1048,_ZNSaI10CoordinateED1Ev
FNDA:2128,_ZNSaISt6vectorI10CoordinateSaIS0_EEED1Ev
FNDA:126,_ZNSaISt10_List_nodeISt6vectorI10CoordinateSaIS1_EEEED1Ev
FNDA:357,_ZNSaISt10_List_nodeISt6vectorI10CoordinateSaIS1_EEEED2Ev
FNDA:2128,_ZNSaIyED1Ev
FNDA:126,_ZNSaISt10_List_nodeIyEED1Ev
FNDA:357,_ZNSaISt10_List_nodeIyEED2Ev
FNDA:126,_ZNSt11__alloc_neqISaISt10_List_nodeISt6vectorI10CoordinateSaIS2_EEEELb1EE8_S_do_itERKS6_S9_
FNDA:126,_ZNSt11__alloc_neqISaISt10_List_nodeIyEELb1EE8_S_do_itERKS2_S5_
FNF:23
FNH:18
DA:101,484
DA:103,1737
DA:104,1737
DA:107,4508
DA:109,7755
DA:167,252
DA:168,252
LF:7
LH:7
end_of_record
SF:/usr/include/c++/4.4/bits/basic_ios.h
FN:127,_ZNKSt9basic_iosIcSt11char_traitsIcEE7rdstateEv
FN:191,_ZNKSt9basic_iosIcSt11char_traitsIcEE4failEv
FN:115,_ZNKSt9basic_iosIcSt11char_traitsIcEEntEv
FN:46,_ZSt13__check_facetISt5ctypeIcEERKT_PS3_
FN:439,_ZNKSt9basic_iosIcSt11char_traitsIcEE5widenEc
FN:147,_ZNSt9basic_iosIcSt11char_traitsIcEE8setstateESt12_Ios_Iostate
FNDA:0,_ZSt13__check_facetISt5ctypeIcEERKT_PS3_
FNDA:0,_ZNKSt9basic_iosIcSt11char_traitsIcEEntEv
FNDA:0,_ZNKSt9basic_iosIcSt11char_traitsIcEE7rdstateEv
FNDA:0,_ZNSt9basic_iosIcSt11char_traitsIcEE8setstateESt12_Ios_Iostate
FNDA:0,_ZNKSt9basic_iosIcSt11char_traitsIcEE4failEv
FNDA:0,_ZNKSt9basic_iosIcSt11char_traitsIcEE5widenEc
FNF:6
FNH:0
DA:46,0
DA:48,0
DA:49,0
DA:50,0
DA:115,0
DA:116,0
DA:127,0
DA:128,0
DA:147,0
DA:148,0
DA:191,0
DA:192,0
DA:439,0
DA:440,0
BA:48,0
BA:48,0
LF:14
LH:0
end_of_record
SF:/usr/include/c++/4.4/bits/basic_string.h
FN:209,_ZNSs4_Rep10_M_refdataEv
FN:272,_ZNKSs7_M_dataEv
FN:280,_ZNKSs6_M_repEv
FN:623,_ZNKSs4sizeEv
FN:173,_ZNSs4_Rep12_S_empty_repEv
FN:406,_ZNSs12_S_empty_repEv
FN:183,_ZNKSs4_Rep12_M_is_leakedEv
FN:254,_ZNSs12_Alloc_hiderC1EPcRKSaIcE
FN:2147,_ZNSsC1Ev
FN:1632,_ZNKSs13get_allocatorEv
FN:253,_ZNSs12_Alloc_hiderD1Ev
FN:2541,_ZSt7getlineIcSt11char_traitsIcESaIcEERSt13basic_istreamIT_T0_ES7_RSbIS4_S5_T1_E
FN:294,_ZNSs7_M_leakEv
FN:775,_ZNSs2atEj
FN:224,_ZNSs4_Rep10_M_disposeERKSaIcE
FN:497,_ZNSsD1Ev
FNDA:0,_ZNSs4_Rep12_S_empty_repEv
FNDA:0,_ZNKSs4_Rep12_M_is_leakedEv
FNDA:0,_ZNSs4_Rep10_M_refdataEv
FNDA:0,_ZNSs4_Rep10_M_disposeERKSaIcE
FNDA:0,_ZNSs12_Alloc_hiderD1Ev
FNDA:0,_ZNSs12_Alloc_hiderC1EPcRKSaIcE
FNDA:0,_ZNKSs7_M_dataEv
FNDA:0,_ZNKSs6_M_repEv
FNDA:0,_ZNSs7_M_leakEv
FNDA:0,_ZNSs12_S_empty_repEv
FNDA:0,_ZNSsD1Ev
FNDA:0,_ZNKSs4sizeEv
FNDA:0,_ZNSs2atEj
FNDA:0,_ZNKSs13get_allocatorEv
FNDA:0,_ZNSsC1Ev
FNDA:0,_ZSt7getlineIcSt11char_traitsIcESaIcEERSt13basic_istreamIT_T0_ES7_RSbIS4_S5_T1_E
FNF:16
FNH:0
DA:173,0
DA:178,0
DA:179,0
DA:183,0
DA:184,0
DA:209,0
DA:210,0
DA:224,0
DA:227,0
DA:229,0
DA:231,0
DA:232,0
DA:253,0
DA:254,0
DA:255,0
DA:272,0
DA:273,0
DA:280,0
DA:281,0
DA:294,0
DA:296,0
DA:297,0
DA:298,0
DA:406,0
DA:407,0
DA:497,0
DA:498,0
DA:623,0
DA:624,0
DA:775,0
DA:777,0
DA:778,0
DA:779,0
DA:780,0
DA:1632,0
DA:1633,0
DA:2147,0
DA:2150,0
DA:2541,0
DA:2543,0
BA:227,0
BA:227,0
BA:229,0
BA:229,0
BA:296,0
BA:296,0
BA:777,0
BA:777,0
LF:40
LH:0
end_of_record
SF:/usr/include/c++/4.4/bits/char_traits.h
FN:262,_ZNSt11char_traitsIcE6lengthEPKc
FNDA:0,_ZNSt11char_traitsIcE6lengthEPKc
FNF:1
FNH:0
DA:262,0
DA:263,0
LF:2
LH:0
end_of_record
SF:/usr/include/c++/4.4/bits/ios_base.h
FN:162,_ZStanSt12_Ios_IostateS_
FN:166,_ZStorSt12_Ios_IostateS_
FNDA:0,_ZStanSt12_Ios_IostateS_
FNDA:0,_ZStorSt12_Ios_IostateS_
FNF:2
FNH:0
DA:162,0
DA:163,0
DA:166,0
DA:167,0
LF:4
LH:0
end_of_record
SF:/usr/include/c++/4.4/bits/list.tcc
FN:64,_ZNSt10_List_baseISt6vectorI10CoordinateSaIS1_EESaIS3_EE8_M_clearEv
FN:64,_ZNSt10_List_baseIySaIyEE8_M_clearEv
FN:107,_ZNSt4listISt6vectorI10CoordinateSaIS1_EESaIS3_EE5eraseESt14_List_iteratorIS3_E
FN:107,_ZNSt4listIySaIyEE5eraseESt14_List_iteratorIyE
FN:132,_ZNSt4listISt6vectorI10CoordinateSaIS1_EESaIS3_EEaSERKS5_
FN:132,_ZNSt4listIySaIyEEaSERKS1_
FNDA:357,_ZNSt10_List_baseISt6vectorI10CoordinateSaIS1_EESaIS3_EE8_M_clearEv
FNDA:357,_ZNSt10_List_baseIySaIyEE8_M_clearEv
FNDA:0,_ZNSt4listISt6vectorI10CoordinateSaIS1_EESaIS3_EE5eraseESt14_List_iteratorIS3_E
FNDA:0,_ZNSt4listIySaIyEE5eraseESt14_List_iteratorIyE
FNDA:168,_ZNSt4listISt6vectorI10CoordinateSaIS1_EESaIS3_EEaSERKS5_
FNDA:168,_ZNSt4listIySaIyEEaSERKS1_
FNF:6
FNH:4
DA:64,714
DA:68,714
DA:69,3430
DA:71,2002
DA:72,2002
DA:76,2002
DA:78,2002
DA:80,714
DA:107,0
DA:110,0
DA:111,0
DA:132,336
DA:135,336
DA:137,336
DA:138,336
DA:139,336
DA:140,336
DA:141,700
DA:143,364
DA:144,336
DA:145,84
DA:147,252
DA:149,336
BA:69,2
BA:69,2
BA:69,2
BA:69,2
BA:135,2
BA:135,1
BA:135,2
BA:135,1
BA:141,2
BA:141,2
BA:141,2
BA:141,1
BA:141,2
BA:141,2
BA:141,2
BA:141,2
BA:141,2
BA:141,1
BA:141,2
BA:141,2
BA:144,2
BA:144,2
BA:144,2
BA:144,2
LF:23
LH:20
end_of_record
SF:/usr/include/c++/4.4/bits/locale_facets.h
FN:865,_ZNKSt5ctypeIcE5widenEc
FNDA:0,_ZNKSt5ctypeIcE5widenEc
FNF:1
FNH:0
DA:865,0
DA:867,0
DA:868,0
DA:869,0
DA:870,0
BA:867,0
BA:867,0
LF:5
LH:0
end_of_record
SF:/usr/include/c++/4.4/bits/stl_algobase.h
FN:287,_ZNSt12__miter_baseIN9__gnu_cxx17__normal_iteratorIPK10CoordinateSt6vectorIS2_SaIS2_EEEELb0EE3__bES8_
FN:287,_ZNSt12__miter_baseIP10CoordinateLb0EE3__bES1_
FN:277,_ZNSt12__niter_baseIN9__gnu_cxx17__normal_iteratorIPK10CoordinateSt6vectorIS2_SaIS2_EEEELb1EE3__bES8_
FN:269,_ZNSt12__niter_baseIP10CoordinateLb0EE3__bES1_
FN:277,_ZNSt12__niter_baseIN9__gnu_cxx17__normal_iteratorIP10CoordinateSt6vectorIS2_SaIS2_EEEELb1EE3__bES7_
FN:338,_ZNSt11__copy_moveILb0ELb0ESt26random_access_iterator_tagE8__copy_mIPK10CoordinatePS3_EET0_T_S8_S7_
FN:386,_ZSt13__copy_move_aILb0EPK10CoordinatePS0_ET1_T0_S5_S4_
FN:431,_ZSt14__copy_move_a2ILb0EN9__gnu_cxx17__normal_iteratorIPK10CoordinateSt6vectorIS2_SaIS2_EEEENS1_IPS2_S7_EEET1_T0_SC_SB_
FN:458,_ZSt4copyIN9__gnu_cxx17__normal_iteratorIPK10CoordinateSt6vectorIS2_SaIS2_EEEENS1_IPS2_S7_EEET0_T_SC_SB_
FN:338,_ZNSt11__copy_moveILb0ELb0ESt26random_access_iterator_tagE8__copy_mIP10CoordinateS4_EET0_T_S6_S5_
FN:386,_ZSt13__copy_move_aILb0EP10CoordinateS1_ET1_T0_S3_S2_
FN:431,_ZSt14__copy_move_a2ILb0EP10CoordinateS1_ET1_T0_S3_S2_
FN:458,_ZSt4copyIP10CoordinateS1_ET0_T_S3_S2_
FNDA:756,_ZNSt12__niter_baseIP10CoordinateLb0EE3__bES1_
FNDA:532,_ZNSt12__niter_baseIN9__gnu_cxx17__normal_iteratorIPK10CoordinateSt6vectorIS2_SaIS2_EEEELb1EE3__bES8_
FNDA:266,_ZNSt12__niter_baseIN9__gnu_cxx17__normal_iteratorIP10CoordinateSt6vectorIS2_SaIS2_EEEELb1EE3__bES7_
FNDA:532,_ZNSt12__miter_baseIN9__gnu_cxx17__normal_iteratorIPK10CoordinateSt6vectorIS2_SaIS2_EEEELb0EE3__bES8_
FNDA:504,_ZNSt12__miter_baseIP10CoordinateLb0EE3__bES1_
FNDA:266,_ZNSt11__copy_moveILb0ELb0ESt26random_access_iterator_tagE8__copy_mIPK10CoordinatePS3_EET0_T_S8_S7_
FNDA:252,_ZNSt11__copy_moveILb0ELb0ESt26random_access_iterator_tagE8__copy_mIP10CoordinateS4_EET0_T_S6_S5_
FNDA:266,_ZSt13__copy_move_aILb0EPK10CoordinatePS0_ET1_T0_S5_S4_
FNDA:252,_ZSt13__copy_move_aILb0EP10CoordinateS1_ET1_T0_S3_S2_
FNDA:266,_ZSt14__copy_move_a2ILb0EN9__gnu_cxx17__normal_iteratorIPK10CoordinateSt6vectorIS2_SaIS2_EEEENS1_IPS2_S7_EEET1_T0_SC_SB_
FNDA:252,_ZSt14__copy_move_a2ILb0EP10CoordinateS1_ET1_T0_S3_S2_
FNDA:266,_ZSt4copyIN9__gnu_cxx17__normal_iteratorIPK10CoordinateSt6vectorIS2_SaIS2_EEEENS1_IPS2_S7_EEET0_T_SC_SB_
FNDA:252,_ZSt4copyIP10CoordinateS1_ET0_T_S3_S2_
FNF:13
FNH:13
DA:269,756
DA:270,756
DA:277,798
DA:278,798
DA:287,1036
DA:288,1036
DA:338,518
DA:341,1702
DA:343,1184
DA:344,1184
DA:345,1184
DA:347,518
DA:386,518
DA:394,518
DA:397,518
DA:431,518
DA:436,518
DA:458,518
DA:468,518
BA:341,2
BA:341,2
BA:341,1
BA:341,2
LF:19
LH:19
end_of_record
SF:/usr/include/c++/4.4/bits/stl_construct.h
FN:82,_ZSt8_DestroyI10CoordinateEvPT_
FN:90,_ZNSt12_Destroy_auxILb0EE9__destroyIP10CoordinateEEvT_S4_
FN:112,_ZSt8_DestroyIP10CoordinateEvT_S2_
FN:139,_ZSt8_DestroyIP10CoordinateS0_EvT_S2_RSaIT0_E
FN:90,_ZNSt12_Destroy_auxILb0EE9__destroyIN9__gnu_cxx17__normal_iteratorIP10CoordinateSt6vectorIS4_SaIS4_EEEEEEvT_SA_
FN:112,_ZSt8_DestroyIN9__gnu_cxx17__normal_iteratorIP10CoordinateSt6vectorIS2_SaIS2_EEEEEvT_S8_
FN:139,_ZSt8_DestroyIN9__gnu_cxx17__normal_iteratorIP10CoordinateSt6vectorIS2_SaIS2_EEEES2_EvT_S8_RSaIT0_E
FN:70,_ZSt10_ConstructI10CoordinateS0_EvPT_RKT0_
FNDA:2420,_ZSt10_ConstructI10CoordinateS0_EvPT_RKT0_
FNDA:8042,_ZSt8_DestroyI10CoordinateEvPT_
FNDA:1827,_ZNSt12_Destroy_auxILb0EE9__destroyIP10CoordinateEEvT_S4_
FNDA:266,_ZNSt12_Destroy_auxILb0EE9__destroyIN9__gnu_cxx17__normal_iteratorIP10CoordinateSt6vectorIS4_SaIS4_EEEEEEvT_SA_
FNDA:1827,_ZSt8_DestroyIP10CoordinateEvT_S2_
FNDA:266,_ZSt8_DestroyIN9__gnu_cxx17__normal_iteratorIP10CoordinateSt6vectorIS2_SaIS2_EEEEEvT_S8_
FNDA:1827,_ZSt8_DestroyIP10CoordinateS0_EvT_S2_RSaIT0_E
FNDA:266,_ZSt8_DestroyIN9__gnu_cxx17__normal_iteratorIP10CoordinateSt6vectorIS2_SaIS2_EEEES2_EvT_S8_RSaIT0_E
FNF:8
FNH:8
DA:70,2420
DA:74,2420
DA:75,2420
DA:82,8042
DA:83,8042
DA:90,2093
DA:92,10135
DA:93,8042
DA:94,2093
DA:112,2093
DA:116,2093
DA:118,2093
DA:139,2093
DA:142,2093
DA:143,2093
BA:74,2
BA:74,1
BA:92,2
BA:92,2
BA:92,1
BA:92,2
LF:15
LH:15
end_of_record
SF:/usr/include/c++/4.4/bits/stl_iterator.h
FN:702,_ZNK9__gnu_cxx17__normal_iteratorIPK10CoordinateSt6vectorIS1_SaIS1_EEEptEv
FN:686,_ZN9__gnu_cxx17__normal_iteratorIPK10CoordinateSt6vectorIS1_SaIS1_EEEC1ERKS3_
FN:713,_ZN9__gnu_cxx17__normal_iteratorIPK10CoordinateSt6vectorIS1_SaIS1_EEEppEi
FN:750,_ZNK9__gnu_cxx17__normal_iteratorIPK10CoordinateSt6vectorIS1_SaIS1_EEE4baseEv
FN:783,_ZN9__gnu_cxxneIPK10CoordinateSt6vectorIS1_SaIS1_EEEEbRKNS_17__normal_iteratorIT_T0_EESC_
FN:686,_ZN9__gnu_cxx17__normal_iteratorIP10CoordinateSt6vectorIS1_SaIS1_EEEC1ERKS2_
FN:750,_ZNK9__gnu_cxx17__normal_iteratorIP10CoordinateSt6vectorIS1_SaIS1_EEE4baseEv
FN:783,_ZN9__gnu_cxxneIP10CoordinateSt6vectorIS1_SaIS1_EEEEbRKNS_17__normal_iteratorIT_T0_EESB_
FN:706,_ZN9__gnu_cxx17__normal_iteratorIP10CoordinateSt6vectorIS1_SaIS1_EEEppEv
FN:698,_ZNK9__gnu_cxx17__normal_iteratorIP10CoordinateSt6vectorIS1_SaIS1_EEEdeEv
FN:706,_ZN9__gnu_cxx17__normal_iteratorIPK10CoordinateSt6vectorIS1_SaIS1_EEEppEv
FN:698,_ZNK9__gnu_cxx17__normal_iteratorIPK10CoordinateSt6vectorIS1_SaIS1_EEEdeEv
FNDA:699042,_ZN9__gnu_cxx17__normal_iteratorIPK10CoordinateSt6vectorIS1_SaIS1_EEEC1ERKS3_
FNDA:12998,_ZN9__gnu_cxx17__normal_iteratorIP10CoordinateSt6vectorIS1_SaIS1_EEEC1ERKS2_
FNDA:0,_ZNK9__gnu_cxx17__normal_iteratorIP10CoordinateSt6vectorIS1_SaIS1_EEEdeEv
FNDA:4554,_ZNK9__gnu_cxx17__normal_iteratorIPK10CoordinateSt6vectorIS1_SaIS1_EEEdeEv
FNDA:607328,_ZNK9__gnu_cxx17__normal_iteratorIPK10CoordinateSt6vectorIS1_SaIS1_EEEptEv
FNDA:0,_ZN9__gnu_cxx17__normal_iteratorIP10CoordinateSt6vectorIS1_SaIS1_EEEppEv
FNDA:4554,_ZN9__gnu_cxx17__normal_iteratorIPK10CoordinateSt6vectorIS1_SaIS1_EEEppEv
FNDA:262558,_ZN9__gnu_cxx17__normal_iteratorIPK10CoordinateSt6vectorIS1_SaIS1_EEEppEi
FNDA:708605,_ZNK9__gnu_cxx17__normal_iteratorIPK10CoordinateSt6vectorIS1_SaIS1_EEE4baseEv
FNDA:12878,_ZNK9__gnu_cxx17__normal_iteratorIP10CoordinateSt6vectorIS1_SaIS1_EEE4baseEv
FNDA:352774,_ZN9__gnu_cxxneIPK10CoordinateSt6vectorIS1_SaIS1_EEEEbRKNS_17__normal_iteratorIT_T0_EESC_
FNDA:4816,_ZN9__gnu_cxxneIP10CoordinateSt6vectorIS1_SaIS1_EEEEbRKNS_17__normal_iteratorIT_T0_EESB_
FNF:12
FNH:10
DA:686,712040
DA:698,4554
DA:699,4554
DA:702,607328
DA:703,607328
DA:706,4554
DA:708,4554
DA:709,4554
DA:713,262558
DA:714,262558
DA:750,721483
DA:751,721483
DA:783,357590
DA:785,357590
LF:14
LH:14
end_of_record
SF:/usr/include/c++/4.4/bits/stl_list.h
FN:200,_ZNSt20_List_const_iteratorISt6vectorI10CoordinateSaIS1_EEEC1Ev
FN:255,_ZNKSt20_List_const_iteratorISt6vectorI10CoordinateSaIS1_EEEneERKS4_
FN:228,_ZNSt20_List_const_iteratorISt6vectorI10CoordinateSaIS1_EEEppEi
FN:213,_ZNKSt20_List_const_iteratorISt6vectorI10CoordinateSaIS1_EEEdeEv
FN:175,_ZNKSt14_List_iteratorISt6vectorI10CoordinateSaIS1_EEEneERKS4_
FN:221,_ZNSt20_List_const_iteratorISt6vectorI10CoordinateSaIS1_EEEppEv
FN:141,_ZNSt14_List_iteratorISt6vectorI10CoordinateSaIS1_EEEppEv
FN:133,_ZNKSt14_List_iteratorISt6vectorI10CoordinateSaIS1_EEEdeEv
FN:251,_ZNKSt20_List_const_iteratorISt6vectorI10CoordinateSaIS1_EEEeqERKS4_
FN:255,_ZNKSt20_List_const_iteratorIyEneERKS0_
FN:175,_ZNKSt14_List_iteratorIyEneERKS0_
FN:221,_ZNSt20_List_const_iteratorIyEppEv
FN:141,_ZNSt14_List_iteratorIyEppEv
FN:213,_ZNKSt20_List_const_iteratorIyEdeEv
FN:133,_ZNKSt14_List_iteratorIyEdeEv
FN:251,_ZNKSt20_List_const_iteratorIyEeqERKS0_
FN:204,_ZNSt20_List_const_iteratorISt6vectorI10CoordinateSaIS1_EEEC1EPKSt15_List_node_base
FN:698,_ZNKSt4listISt6vectorI10CoordinateSaIS1_EESaIS3_EE5beginEv
FN:716,_ZNKSt4listISt6vectorI10CoordinateSaIS1_EESaIS3_EE3endEv
FN:128,_ZNSt14_List_iteratorISt6vectorI10CoordinateSaIS1_EEEC1EPSt15_List_node_base
FN:689,_ZNSt4listISt6vectorI10CoordinateSaIS1_EESaIS3_EE5beginEv
FN:707,_ZNSt4listISt6vectorI10CoordinateSaIS1_EESaIS3_EE3endEv
FN:326,_ZNSt10_List_baseISt6vectorI10CoordinateSaIS1_EESaIS3_EE21_M_get_Node_allocatorEv
FN:128,_ZNSt14_List_iteratorIyEC1EPSt15_List_node_base
FN:689,_ZNSt4listIySaIyEE5beginEv
FN:707,_ZNSt4listIySaIyEE3endEv
FN:204,_ZNSt20_List_const_iteratorIyEC1EPKSt15_List_node_base
FN:698,_ZNKSt4listIySaIyEE5beginEv
FN:716,_ZNKSt4listIySaIyEE3endEv
FN:326,_ZNSt10_List_baseIySaIyEE21_M_get_Node_allocatorEv
FN:799,_ZNKSt4listISt6vectorI10CoordinateSaIS1_EESaIS3_EE5emptyEv
FN:799,_ZNKSt4listIySaIyEE5emptyEv
FN:366,_ZNSt10_List_baseISt6vectorI10CoordinateSaIS1_EESaIS3_EE7_M_initEv
FN:366,_ZNSt10_List_baseIySaIyEE7_M_initEv
FN:330,_ZNKSt10_List_baseISt6vectorI10CoordinateSaIS1_EESaIS3_EE21_M_get_Node_allocatorEv
FN:330,_ZNKSt10_List_baseIySaIyEE21_M_get_Node_allocatorEv
FN:319,_ZNSt10_List_baseISt6vectorI10CoordinateSaIS1_EESaIS3_EE11_M_put_nodeEPSt10_List_nodeIS3_E
FN:319,_ZNSt10_List_baseIySaIyEE11_M_put_nodeEPSt10_List_nodeIyE
FN:334,_ZNKSt10_List_baseISt6vectorI10CoordinateSaIS1_EESaIS3_EE19_M_get_Tp_allocatorEv
FN:307,_ZNSt10_List_baseISt6vectorI10CoordinateSaIS1_EESaIS3_EE10_List_implC1ERKSaISt10_List_nodeIS3_EE
FN:300,_ZNSt10_List_baseISt6vectorI10CoordinateSaIS1_EESaIS3_EE10_List_implD1Ev
FN:345,_ZNSt10_List_baseISt6vectorI10CoordinateSaIS1_EESaIS3_EEC2ERKS4_
FN:359,_ZNSt10_List_baseISt6vectorI10CoordinateSaIS1_EESaIS3_EED2Ev
FN:418,_ZNSt4listISt6vectorI10CoordinateSaIS1_EESaIS3_EED1Ev
FN:334,_ZNKSt10_List_baseIySaIyEE19_M_get_Tp_allocatorEv
FN:307,_ZNSt10_List_baseIySaIyEE10_List_implC1ERKSaISt10_List_nodeIyEE
FN:300,_ZNSt10_List_baseIySaIyEE10_List_implD1Ev
FN:345,_ZNSt10_List_baseIySaIyEEC2ERKS0_
FN:359,_ZNSt10_List_baseIySaIyEED2Ev
FN:418,_ZNSt4listIySaIyEED1Ev
FN:315,_ZNSt10_List_baseISt6vectorI10CoordinateSaIS1_EESaIS3_EE11_M_get_nodeEv
FN:315,_ZNSt10_List_baseIySaIyEE11_M_get_nodeEv
FN:459,_ZNSt4listISt6vectorI10CoordinateSaIS1_EESaIS3_EE14_M_create_nodeERKS3_
FN:459,_ZNSt4listIySaIyEE14_M_create_nodeERKy
FN:1422,_ZNSt4listISt6vectorI10CoordinateSaIS1_EESaIS3_EE8_M_eraseESt14_List_iteratorIS3_E
FN:1092,_ZNSt4listISt6vectorI10CoordinateSaIS1_EESaIS3_EE5eraseESt14_List_iteratorIS3_ES7_
FN:1422,_ZNSt4listIySaIyEE8_M_eraseESt14_List_iteratorIyE
FN:1092,_ZNSt4listIySaIyEE5eraseESt14_List_iteratorIyES3_
FN:1405,_ZNSt4listISt6vectorI10CoordinateSaIS1_EESaIS3_EE9_M_insertESt14_List_iteratorIS3_ERKS3_
FN:919,_ZNSt4listISt6vectorI10CoordinateSaIS1_EESaIS3_EE9push_backERKS3_
FN:1357,_ZNSt4listISt6vectorI10CoordinateSaIS1_EESaIS3_EE22_M_initialize_dispatchISt20_List_const_iteratorIS3_EEEvT_S9_St12__false_type
FN:571,_ZNSt4listISt6vectorI10CoordinateSaIS1_EESaIS3_EEC1ISt20_List_const_iteratorIS3_EEET_S9_RKS4_
FN:1405,_ZNSt4listIySaIyEE9_M_insertESt14_List_iteratorIyERKy
FN:919,_ZNSt4listIySaIyEE9push_backERKy
FN:1357,_ZNSt4listIySaIyEE22_M_initialize_dispatchISt20_List_const_iteratorIyEEEvT_S5_St12__false_type
FN:571,_ZNSt4listIySaIyEEC1ISt20_List_const_iteratorIyEEET_S5_RKS0_
FN:1436,_ZNSt4listISt6vectorI10CoordinateSaIS1_EESaIS3_EE25_M_check_equal_allocatorsERS5_
FN:1436,_ZNSt4listIySaIyEE25_M_check_equal_allocatorsERS1_
FN:1399,_ZNSt4listISt6vectorI10CoordinateSaIS1_EESaIS3_EE11_M_transferESt14_List_iteratorIS3_ES7_S7_
FN:1152,_ZNSt4listISt6vectorI10CoordinateSaIS1_EESaIS3_EE6spliceESt14_List_iteratorIS3_ERS5_
FN:1048,_ZNSt4listISt6vectorI10CoordinateSaIS1_EESaIS3_EE6insertISt20_List_const_iteratorIS3_EEEvSt14_List_iteratorIS3_ET_SB_
FN:1399,_ZNSt4listIySaIyEE11_M_transferESt14_List_iteratorIyES3_S3_
FN:1152,_ZNSt4listIySaIyEE6spliceESt14_List_iteratorIyERS1_
FN:1048,_ZNSt4listIySaIyEE6insertISt20_List_const_iteratorIyEEEvSt14_List_iteratorIyET_S7_
FNDA:1589,_ZNSt14_List_iteratorISt6vectorI10CoordinateSaIS1_EEEC1EPSt15_List_node_base
FNDA:1589,_ZNSt14_List_iteratorIyEC1EPSt15_List_node_base
FNDA:182,_ZNKSt14_List_iteratorISt6vectorI10CoordinateSaIS1_EEEdeEv
FNDA:182,_ZNKSt14_List_iteratorIyEdeEv
FNDA:182,_ZNSt14_List_iteratorISt6vectorI10CoordinateSaIS1_EEEppEv
FNDA:182,_ZNSt14_List_iteratorIyEppEv
FNDA:392,_ZNKSt14_List_iteratorISt6vectorI10CoordinateSaIS1_EEEneERKS4_
FNDA:392,_ZNKSt14_List_iteratorIyEneERKS0_
FNDA:0,_ZNSt20_List_const_iteratorISt6vectorI10CoordinateSaIS1_EEEC1Ev
FNDA:0,_ZNSt20_List_const_iteratorISt6vectorI10CoordinateSaIS1_EEEC1EPKSt15_List_node_base
FNDA:0,_ZNSt20_List_const_iteratorIyEC1EPKSt15_List_node_base
FNDA:0,_ZNKSt20_List_const_iteratorISt6vectorI10CoordinateSaIS1_EEEdeEv
FNDA:0,_ZNKSt20_List_const_iteratorIyEdeEv
FNDA:728,_ZNSt20_List_const_iteratorISt6vectorI10CoordinateSaIS1_EEEppEv
FNDA:728,_ZNSt20_List_const_iteratorIyEppEv
FNDA:0,_ZNSt20_List_const_iteratorISt6vectorI10CoordinateSaIS1_EEEppEi
FNDA:168,_ZNKSt20_List_const_iteratorISt6vectorI10CoordinateSaIS1_EEEeqERKS4_
FNDA:0,_ZNKSt20_List_const_iteratorIyEeqERKS0_
FNDA:0,_ZNKSt20_List_const_iteratorISt6vectorI10CoordinateSaIS1_EEEneERKS4_
FNDA:854,_ZNKSt20_List_const_iteratorIyEneERKS0_
FNDA:357,_ZNSt10_List_baseISt6vectorI10CoordinateSaIS1_EESaIS3_EE10_List_implD1Ev
FNDA:357,_ZNSt10_List_baseIySaIyEE10_List_implD1Ev
FNDA:126,_ZNSt10_List_baseISt6vectorI10CoordinateSaIS1_EESaIS3_EE10_List_implC1ERKSaISt10_List_nodeIS3_EE
FNDA:126,_ZNSt10_List_baseIySaIyEE10_List_implC1ERKSaISt10_List_nodeIyEE
FNDA:1001,_ZNSt10_List_baseISt6vectorI10CoordinateSaIS1_EESaIS3_EE11_M_get_nodeEv
FNDA:1001,_ZNSt10_List_baseIySaIyEE11_M_get_nodeEv
FNDA:1001,_ZNSt10_List_baseISt6vectorI10CoordinateSaIS1_EESaIS3_EE11_M_put_nodeEPSt10_List_nodeIS3_E
FNDA:1001,_ZNSt10_List_baseIySaIyEE11_M_put_nodeEPSt10_List_nodeIyE
FNDA:378,_ZNSt10_List_baseISt6vectorI10CoordinateSaIS1_EESaIS3_EE21_M_get_Node_allocatorEv
FNDA:378,_ZNSt10_List_baseIySaIyEE21_M_get_Node_allocatorEv
FNDA:2002,_ZNKSt10_List_baseISt6vectorI10CoordinateSaIS1_EESaIS3_EE21_M_get_Node_allocatorEv
FNDA:2002,_ZNKSt10_List_baseIySaIyEE21_M_get_Node_allocatorEv
FNDA:2002,_ZNKSt10_List_baseISt6vectorI10CoordinateSaIS1_EESaIS3_EE19_M_get_Tp_allocatorEv
FNDA:2002,_ZNKSt10_List_baseIySaIyEE19_M_get_Tp_allocatorEv
FNDA:126,_ZNSt10_List_baseISt6vectorI10CoordinateSaIS1_EESaIS3_EEC2ERKS4_
FNDA:126,_ZNSt10_List_baseIySaIyEEC2ERKS0_
FNDA:357,_ZNSt10_List_baseISt6vectorI10CoordinateSaIS1_EESaIS3_EED2Ev
FNDA:357,_ZNSt10_List_baseIySaIyEED2Ev
FNDA:357,_ZNSt10_List_baseISt6vectorI10CoordinateSaIS1_EESaIS3_EE7_M_initEv
FNDA:357,_ZNSt10_List_baseIySaIyEE7_M_initEv
FNDA:357,_ZNSt4listISt6vectorI10CoordinateSaIS1_EESaIS3_EED1Ev
FNDA:357,_ZNSt4listIySaIyEED1Ev
FNDA:1001,_ZNSt4listISt6vectorI10CoordinateSaIS1_EESaIS3_EE14_M_create_nodeERKS3_
FNDA:1001,_ZNSt4listIySaIyEE14_M_create_nodeERKy
FNDA:126,_ZNSt4listISt6vectorI10CoordinateSaIS1_EESaIS3_EEC1ISt20_List_const_iteratorIS3_EEET_S9_RKS4_
FNDA:126,_ZNSt4listIySaIyEEC1ISt20_List_const_iteratorIyEEET_S5_RKS0_
FNDA:294,_ZNSt4listISt6vectorI10CoordinateSaIS1_EESaIS3_EE5beginEv
FNDA:294,_ZNSt4listIySaIyEE5beginEv
FNDA:0,_ZNKSt4listISt6vectorI10CoordinateSaIS1_EESaIS3_EE5beginEv
FNDA:0,_ZNKSt4listIySaIyEE5beginEv
FNDA:1295,_ZNSt4listISt6vectorI10CoordinateSaIS1_EESaIS3_EE3endEv
FNDA:1295,_ZNSt4listIySaIyEE3endEv
FNDA:0,_ZNKSt4listISt6vectorI10CoordinateSaIS1_EESaIS3_EE3endEv
FNDA:0,_ZNKSt4listIySaIyEE3endEv
FNDA:126,_ZNKSt4listISt6vectorI10CoordinateSaIS1_EESaIS3_EE5emptyEv
FNDA:126,_ZNKSt4listIySaIyEE5emptyEv
FNDA:1001,_ZNSt4listISt6vectorI10CoordinateSaIS1_EESaIS3_EE9push_backERKS3_
FNDA:1001,_ZNSt4listIySaIyEE9push_backERKy
FNDA:126,_ZNSt4listISt6vectorI10CoordinateSaIS1_EESaIS3_EE6insertISt20_List_const_iteratorIS3_EEEvSt14_List_iteratorIS3_ET_SB_
FNDA:126,_ZNSt4listIySaIyEE6insertISt20_List_const_iteratorIyEEEvSt14_List_iteratorIyET_S7_
FNDA:42,_ZNSt4listISt6vectorI10CoordinateSaIS1_EESaIS3_EE5eraseESt14_List_iteratorIS3_ES7_
FNDA:42,_ZNSt4listIySaIyEE5eraseESt14_List_iteratorIyES3_
FNDA:126,_ZNSt4listISt6vectorI10CoordinateSaIS1_EESaIS3_EE6spliceESt14_List_iteratorIS3_ERS5_
FNDA:126,_ZNSt4listIySaIyEE6spliceESt14_List_iteratorIyERS1_
FNDA:126,_ZNSt4listISt6vectorI10CoordinateSaIS1_EESaIS3_EE22_M_initialize_dispatchISt20_List_const_iteratorIS3_EEEvT_S9_St12__false_type
FNDA:126,_ZNSt4listIySaIyEE22_M_initialize_dispatchISt20_List_const_iteratorIyEEEvT_S5_St12__false_type
FNDA:126,_ZNSt4listISt6vectorI10CoordinateSaIS1_EESaIS3_EE11_M_transferESt14_List_iteratorIS3_ES7_S7_
FNDA:126,_ZNSt4listIySaIyEE11_M_transferESt14_List_iteratorIyES3_S3_
FNDA:1001,_ZNSt4listISt6vectorI10CoordinateSaIS1_EESaIS3_EE9_M_insertESt14_List_iteratorIS3_ERKS3_
FNDA:1001,_ZNSt4listIySaIyEE9_M_insertESt14_List_iteratorIyERKy
FNDA:0,_ZNSt4listISt6vectorI10CoordinateSaIS1_EESaIS3_EE8_M_eraseESt14_List_iteratorIS3_E
FNDA:0,_ZNSt4listIySaIyEE8_M_eraseESt14_List_iteratorIyE
FNDA:126,_ZNSt4listISt6vectorI10CoordinateSaIS1_EESaIS3_EE25_M_check_equal_allocatorsERS5_
FNDA:126,_ZNSt4listIySaIyEE25_M_check_equal_allocatorsERS1_
FNF:74
FNH:60
DA:128,3178
DA:129,3178
DA:133,364
DA:134,364
DA:141,364
DA:143,364
DA:144,364
DA:175,784
DA:176,784
DA:200,0
DA:201,0
DA:204,0
DA:205,0
DA:213,0
DA:214,0
DA:221,1456
DA:223,1456
DA:224,1456
DA:228,0
DA:230,0
DA:231,0
DA:251,168
DA:252,168
DA:255,854
DA:256,854
DA:300,714
DA:307,252
DA:308,252
DA:309,252
DA:315,2002
DA:316,2002
DA:319,2002
DA:320,2002
DA:326,756
DA:327,756
DA:330,4004
DA:331,4004
DA:334,4004
DA:335,4004
DA:345,252
DA:346,252
DA:347,504
DA:359,714
DA:360,714
DA:366,714
DA:368,714
DA:369,714
DA:370,714
DA:418,714
DA:459,2002
DA:461,2002
DA:464,2002
DA:466,0
DA:468,0
DA:469,0
DA:471,2002
DA:571,252
DA:573,252
DA:577,252
DA:578,252
DA:689,588
DA:690,588
DA:698,0
DA:699,0
DA:707,2590
DA:708,2590
DA:716,0
DA:717,0
DA:799,252
DA:800,252
DA:919,2002
DA:920,2002
DA:1048,252
DA:1051,252
DA:1052,252
DA:1053,252
DA:1092,84
DA:1094,168
DA:1095,0
DA:1096,84
DA:1152,252
DA:1155,252
DA:1157,252
DA:1159,252
DA:1161,252
DA:1357,252
DA:1360,1344
DA:1361,1092
DA:1362,252
DA:1399,252
DA:1400,252
DA:1405,2002
DA:1407,2002
DA:1408,2002
DA:1409,2002
DA:1422,0
DA:1424,0
DA:1425,0
DA:1429,0
DA:1431,0
DA:1432,0
DA:1436,252
DA:1438,252
DA:1440,0
DA:1441,252
BA:1094,1
BA:1094,2
BA:1094,1
BA:1094,2
BA:1155,2
BA:1155,1
BA:1155,2
BA:1155,1
BA:1360,2
BA:1360,2
BA:1360,2
BA:1360,2
BA:1438,1
BA:1438,2
BA:1438,1
BA:1438,2
LF:105
LH:81
end_of_record
SF:/usr/include/c++/4.4/bits/stl_uninitialized.h
FN:180,_ZNSt22__uninitialized_fill_nILb0EE20uninitialized_fill_nIP10CoordinatejS2_EEvT_T0_RKT1_
FN:218,_ZSt20uninitialized_fill_nIP10CoordinatejS0_EvT_T0_RKT1_
FN:316,_ZSt24__uninitialized_fill_n_aIP10CoordinatejS0_S0_EvT_T0_RKT1_RSaIT2_E
FN:67,_ZNSt20__uninitialized_copyILb0EE18uninitialized_copyIN9__gnu_cxx17__normal_iteratorIPK10CoordinateSt6vectorIS4_SaIS4_EEEEPS4_EET0_T_SD_SC_
FN:107,_ZSt18uninitialized_copyIN9__gnu_cxx17__normal_iteratorIPK10CoordinateSt6vectorIS2_SaIS2_EEEEPS2_ET0_T_SB_SA_
FN:255,_ZSt22__uninitialized_copy_aIN9__gnu_cxx17__normal_iteratorIPK10CoordinateSt6vectorIS2_SaIS2_EEEEPS2_S2_ET0_T_SB_SA_RSaIT1_E
FN:67,_ZNSt20__uninitialized_copyILb0EE18uninitialized_copyIP10CoordinateS3_EET0_T_S5_S4_
FN:107,_ZSt18uninitialized_copyIP10CoordinateS1_ET0_T_S3_S2_
FN:255,_ZSt22__uninitialized_copy_aIP10CoordinateS1_S0_ET0_T_S3_S2_RSaIT1_E
FNDA:1001,_ZNSt20__uninitialized_copyILb0EE18uninitialized_copyIN9__gnu_cxx17__normal_iteratorIPK10CoordinateSt6vectorIS4_SaIS4_EEEEPS4_EET0_T_SD_SC_
FNDA:252,_ZNSt20__uninitialized_copyILb0EE18uninitialized_copyIP10CoordinateS3_EET0_T_S5_S4_
FNDA:1001,_ZSt18uninitialized_copyIN9__gnu_cxx17__normal_iteratorIPK10CoordinateSt6vectorIS2_SaIS2_EEEEPS2_ET0_T_SB_SA_
FNDA:252,_ZSt18uninitialized_copyIP10CoordinateS1_ET0_T_S3_S2_
FNDA:484,_ZNSt22__uninitialized_fill_nILb0EE20uninitialized_fill_nIP10CoordinatejS2_EEvT_T0_RKT1_
FNDA:484,_ZSt20uninitialized_fill_nIP10CoordinatejS0_EvT_T0_RKT1_
FNDA:1001,_ZSt22__uninitialized_copy_aIN9__gnu_cxx17__normal_iteratorIPK10CoordinateSt6vectorIS2_SaIS2_EEEEPS2_S2_ET0_T_SB_SA_RSaIT1_E
FNDA:252,_ZSt22__uninitialized_copy_aIP10CoordinateS1_S0_ET0_T_S3_S2_RSaIT1_E
FNDA:484,_ZSt24__uninitialized_fill_n_aIP10CoordinatejS0_S0_EvT_T0_RKT1_RSaIT2_E
FNF:9
FNH:9
DA:67,1253
DA:70,1253
DA:73,6875
DA:74,5622
DA:76,1253
DA:78,0
DA:80,0
DA:81,0
DA:107,1253
DA:117,1253
DA:180,484
DA:183,484
DA:186,2904
DA:187,2420
DA:189,0
DA:191,0
DA:192,0
DA:194,484
DA:218,484
DA:223,484
DA:225,484
DA:255,1253
DA:257,1253
DA:316,484
DA:318,484
BA:73,2
BA:73,2
BA:73,2
BA:73,2
BA:74,2
BA:74,1
BA:74,2
BA:74,1
BA:186,2
BA:186,2
LF:25
LH:19
end_of_record
SF:/usr/include/c++/4.4/bits/stl_vector.h
FN:532,_ZNKSt6vectorI10CoordinateSaIS0_EE4sizeEv
FN:610,_ZNSt6vectorI10CoordinateSaIS0_EEixEj
FN:625,_ZNKSt6vectorI10CoordinateSaIS0_EEixEj
FN:452,_ZNKSt6vectorI10CoordinateSaIS0_EE3endEv
FN:434,_ZNKSt6vectorI10CoordinateSaIS0_EE5beginEv
FN:565,_ZNKSt6vectorI10CoordinateSaIS0_EE8capacityEv
FN:93,_ZNSt12_Vector_baseI10CoordinateSaIS0_EE19_M_get_Tp_allocatorEv
FN:443,_ZNSt6vectorI10CoordinateSaIS0_EE3endEv
FN:425,_ZNSt6vectorI10CoordinateSaIS0_EE5beginEv
FN:97,_ZNKSt12_Vector_baseI10CoordinateSaIS0_EE19_M_get_Tp_allocatorEv
FN:143,_ZNSt12_Vector_baseI10CoordinateSaIS0_EE13_M_deallocateEPS0_j
FN:84,_ZNSt12_Vector_baseI10CoordinateSaIS0_EE12_Vector_implC1ERKS1_
FN:75,_ZNSt12_Vector_baseI10CoordinateSaIS0_EE12_Vector_implD1Ev
FN:131,_ZNSt12_Vector_baseI10CoordinateSaIS0_EED2Ev
FN:312,_ZNSt6vectorI10CoordinateSaIS0_EED1Ev
FN:139,_ZNSt12_Vector_baseI10CoordinateSaIS0_EE11_M_allocateEj
FN:110,_ZNSt12_Vector_baseI10CoordinateSaIS0_EEC2EjRKS1_
FN:1033,_ZNSt6vectorI10CoordinateSaIS0_EE18_M_fill_initializeEjRKS0_
FN:227,_ZNSt6vectorI10CoordinateSaIS0_EEC1EjRKS0_RKS1_
FN:241,_ZNSt6vectorI10CoordinateSaIS0_EEC1ERKS2_
FN:960,_ZNSt6vectorI10CoordinateSaIS0_EE20_M_allocate_and_copyIN9__gnu_cxx17__normal_iteratorIPKS0_S2_EEEEPS0_jT_SA_
FNDA:1485,_ZNSt12_Vector_baseI10CoordinateSaIS0_EE12_Vector_implD1Ev
FNDA:1485,_ZNSt12_Vector_baseI10CoordinateSaIS0_EE12_Vector_implC1ERKS1_
FNDA:3830,_ZNSt12_Vector_baseI10CoordinateSaIS0_EE19_M_get_Tp_allocatorEv
FNDA:1001,_ZNKSt12_Vector_baseI10CoordinateSaIS0_EE19_M_get_Tp_allocatorEv
FNDA:1485,_ZNSt12_Vector_baseI10CoordinateSaIS0_EEC2EjRKS1_
FNDA:1485,_ZNSt12_Vector_baseI10CoordinateSaIS0_EED2Ev
FNDA:1485,_ZNSt12_Vector_baseI10CoordinateSaIS0_EE11_M_allocateEj
FNDA:1485,_ZNSt12_Vector_baseI10CoordinateSaIS0_EE13_M_deallocateEPS0_j
FNDA:484,_ZNSt6vectorI10CoordinateSaIS0_EEC1EjRKS0_RKS1_
FNDA:1001,_ZNSt6vectorI10CoordinateSaIS0_EEC1ERKS2_
FNDA:1485,_ZNSt6vectorI10CoordinateSaIS0_EED1Ev
FNDA:1543,_ZNSt6vectorI10CoordinateSaIS0_EE5beginEv
FNDA:87998,_ZNKSt6vectorI10CoordinateSaIS0_EE5beginEv
FNDA:7461,_ZNSt6vectorI10CoordinateSaIS0_EE3endEv
FNDA:348486,_ZNKSt6vectorI10CoordinateSaIS0_EE3endEv
FNDA:4609,_ZNKSt6vectorI10CoordinateSaIS0_EE4sizeEv
FNDA:518,_ZNKSt6vectorI10CoordinateSaIS0_EE8capacityEv
FNDA:6591,_ZNSt6vectorI10CoordinateSaIS0_EEixEj
FNDA:0,_ZNKSt6vectorI10CoordinateSaIS0_EEixEj
FNDA:0,_ZNSt6vectorI10CoordinateSaIS0_EE20_M_allocate_and_copyIN9__gnu_cxx17__normal_iteratorIPKS0_S2_EEEEPS0_jT_SA_
FNDA:484,_ZNSt6vectorI10CoordinateSaIS0_EE18_M_fill_initializeEjRKS0_
FNF:21
FNH:19
DA:75,1485
DA:84,1485
DA:85,1485
DA:86,1485
DA:93,3830
DA:94,3830
DA:97,1001
DA:98,1001
DA:110,1485
DA:111,1485
DA:113,1485
DA:114,1485
DA:115,1485
DA:116,1485
DA:131,1485
DA:132,1485
DA:133,1485
DA:139,1485
DA:140,1485
DA:143,1485
DA:145,1485
DA:146,1485
DA:147,1485
DA:227,484
DA:229,484
DA:230,484
DA:241,1001
DA:242,1001
DA:243,1001
DA:247,1001
DA:312,1485
DA:313,1485
DA:314,1485
DA:425,1543
DA:426,1543
DA:434,87998
DA:435,87998
DA:443,7461
DA:444,7461
DA:452,348486
DA:453,348486
DA:532,4609
DA:533,4609
DA:565,518
DA:567,518
DA:610,6591
DA:611,6591
DA:625,0
DA:626,0
DA:960,0
DA:963,0
DA:966,0
DA:968,0
DA:970,0
DA:972,0
DA:973,0
DA:1033,484
DA:1035,484
DA:1037,484
DA:1038,484
BA:140,2
BA:140,1
BA:145,2
BA:145,1
LF:60
LH:51
end_of_record
SF:/usr/include/c++/4.4/bits/vector.tcc
FN:156,_ZNSt6vectorI10CoordinateSaIS0_EEaSERKS2_
FNDA:518,_ZNSt6vectorI10CoordinateSaIS0_EEaSERKS2_
FNF:1
FNH:1
DA:156,518
DA:159,518
DA:161,518
DA:162,518
DA:165,0
DA:166,0
DA:168,0
DA:171,0
DA:172,0
DA:174,518
DA:176,266
DA:181,252
DA:183,252
DA:188,518
DA:190,518
BA:159,2
BA:159,1
BA:162,1
BA:162,2
BA:174,2
BA:174,2
LF:15
LH:10
end_of_record
SF:/usr/include/c++/4.4/ext/atomicity.h
FN:62,_ZN9__gnu_cxxL25__exchange_and_add_singleEPii
FN:45,_ZN9__gnu_cxxL18__exchange_and_addEPVii
FN:75,_ZN9__gnu_cxxL27__exchange_and_add_dispatchEPii
FNDA:0,_ZN9__gnu_cxxL18__exchange_and_addEPVii
FNDA:0,_ZN9__gnu_cxxL25__exchange_and_add_singleEPii
FNDA:0,_ZN9__gnu_cxxL27__exchange_and_add_dispatchEPii
FNF:3
FNH:0
DA:45,0
DA:46,0
DA:62,0
DA:64,0
DA:65,0
DA:66,0
DA:75,0
DA:78,0
DA:79,0
DA:81,0
BA:78,0
BA:78,0
LF:10
LH:0
end_of_record
SF:/usr/include/c++/4.4/ext/new_allocator.h
FN:66,_ZN9__gnu_cxx13new_allocatorIcEC2Ev
FN:73,_ZN9__gnu_cxx13new_allocatorIcED2Ev
FN:66,_ZN9__gnu_cxx13new_allocatorI10CoordinateEC2Ev
FN:73,_ZN9__gnu_cxx13new_allocatorI10CoordinateED2Ev
FN:68,_ZN9__gnu_cxx13new_allocatorIcEC2ERKS1_
FN:66,_ZN9__gnu_cxx13new_allocatorISt6vectorI10CoordinateSaIS2_EEEC2Ev
FN:73,_ZN9__gnu_cxx13new_allocatorISt6vectorI10CoordinateSaIS2_EEED2Ev
FN:66,_ZN9__gnu_cxx13new_allocatorIyEC2Ev
FN:73,_ZN9__gnu_cxx13new_allocatorIyED2Ev
FN:98,_ZNK9__gnu_cxx13new_allocatorI10CoordinateE8max_sizeEv
FN:73,_ZN9__gnu_cxx13new_allocatorISt10_List_nodeISt6vectorI10CoordinateSaIS3_EEEED2Ev
FN:115,_ZN9__gnu_cxx13new_allocatorIyE7destroyEPy
FN:73,_ZN9__gnu_cxx13new_allocatorISt10_List_nodeIyEED2Ev
FN:68,_ZN9__gnu_cxx13new_allocatorI10CoordinateEC2ERKS2_
FN:66,_ZN9__gnu_cxx13new_allocatorISt10_List_nodeISt6vectorI10CoordinateSaIS3_EEEEC2Ev
FN:66,_ZN9__gnu_cxx13new_allocatorISt10_List_nodeIyEEC2Ev
FN:68,_ZN9__gnu_cxx13new_allocatorISt10_List_nodeISt6vectorI10CoordinateSaIS3_EEEEC2ERKS7_
FN:68,_ZN9__gnu_cxx13new_allocatorISt10_List_nodeIyEEC2ERKS3_
FN:104,_ZN9__gnu_cxx13new_allocatorIyE9constructEPyRKy
FN:98,_ZNK9__gnu_cxx13new_allocatorISt10_List_nodeISt6vectorI10CoordinateSaIS3_EEEE8max_sizeEv
FN:98,_ZNK9__gnu_cxx13new_allocatorISt10_List_nodeIyEE8max_sizeEv
FN:94,_ZN9__gnu_cxx13new_allocatorI10CoordinateE10deallocateEPS1_j
FN:94,_ZN9__gnu_cxx13new_allocatorISt10_List_nodeISt6vectorI10CoordinateSaIS3_EEEE10deallocateEPS6_j
FN:94,_ZN9__gnu_cxx13new_allocatorISt10_List_nodeIyEE10deallocateEPS2_j
FN:115,_ZN9__gnu_cxx13new_allocatorISt6vectorI10CoordinateSaIS2_EEE7destroyEPS4_
FN:84,_ZN9__gnu_cxx13new_allocatorI10CoordinateE8allocateEjPKv
FN:84,_ZN9__gnu_cxx13new_allocatorISt10_List_nodeISt6vectorI10CoordinateSaIS3_EEEE8allocateEjPKv
FN:84,_ZN9__gnu_cxx13new_allocatorISt10_List_nodeIyEE8allocateEjPKv
FN:104,_ZN9__gnu_cxx13new_allocatorISt6vectorI10CoordinateSaIS2_EEE9constructEPS4_RKS4_
FNDA:0,_ZN9__gnu_cxx13new_allocatorIcEC2Ev
FNDA:1048,_ZN9__gnu_cxx13new_allocatorI10CoordinateEC2Ev
FNDA:2128,_ZN9__gnu_cxx13new_allocatorISt6vectorI10CoordinateSaIS2_EEEC2Ev
FNDA:2128,_ZN9__gnu_cxx13new_allocatorIyEC2Ev
FNDA:357,_ZN9__gnu_cxx13new_allocatorISt10_List_nodeISt6vectorI10CoordinateSaIS3_EEEEC2Ev
FNDA:357,_ZN9__gnu_cxx13new_allocatorISt10_List_nodeIyEEC2Ev
FNDA:0,_ZN9__gnu_cxx13new_allocatorIcEC2ERKS1_
FNDA:1485,_ZN9__gnu_cxx13new_allocatorI10CoordinateEC2ERKS2_
FNDA:126,_ZN9__gnu_cxx13new_allocatorISt10_List_nodeISt6vectorI10CoordinateSaIS3_EEEEC2ERKS7_
FNDA:126,_ZN9__gnu_cxx13new_allocatorISt10_List_nodeIyEEC2ERKS3_
FNDA:0,_ZN9__gnu_cxx13new_allocatorIcED2Ev
FNDA:2533,_ZN9__gnu_cxx13new_allocatorI10CoordinateED2Ev
FNDA:2128,_ZN9__gnu_cxx13new_allocatorISt6vectorI10CoordinateSaIS2_EEED2Ev
FNDA:2128,_ZN9__gnu_cxx13new_allocatorIyED2Ev
FNDA:483,_ZN9__gnu_cxx13new_allocatorISt10_List_nodeISt6vectorI10CoordinateSaIS3_EEEED2Ev
FNDA:483,_ZN9__gnu_cxx13new_allocatorISt10_List_nodeIyEED2Ev
FNDA:1485,_ZN9__gnu_cxx13new_allocatorI10CoordinateE8allocateEjPKv
FNDA:1001,_ZN9__gnu_cxx13new_allocatorISt10_List_nodeISt6vectorI10CoordinateSaIS3_EEEE8allocateEjPKv
FNDA:1001,_ZN9__gnu_cxx13new_allocatorISt10_List_nodeIyEE8allocateEjPKv
FNDA:1485,_ZN9__gnu_cxx13new_allocatorI10CoordinateE10deallocateEPS1_j
FNDA:1001,_ZN9__gnu_cxx13new_allocatorISt10_List_nodeISt6vectorI10CoordinateSaIS3_EEEE10deallocateEPS6_j
FNDA:1001,_ZN9__gnu_cxx13new_allocatorISt10_List_nodeIyEE10deallocateEPS2_j
FNDA:1485,_ZNK9__gnu_cxx13new_allocatorI10CoordinateE8max_sizeEv
FNDA:1001,_ZNK9__gnu_cxx13new_allocatorISt10_List_nodeISt6vectorI10CoordinateSaIS3_EEEE8max_sizeEv
FNDA:1001,_ZNK9__gnu_cxx13new_allocatorISt10_List_nodeIyEE8max_sizeEv
FNDA:1001,_ZN9__gnu_cxx13new_allocatorIyE9constructEPyRKy
FNDA:1001,_ZN9__gnu_cxx13new_allocatorISt6vectorI10CoordinateSaIS2_EEE9constructEPS4_RKS4_
FNDA:1001,_ZN9__gnu_cxx13new_allocatorIyE7destroyEPy
FNDA:1001,_ZN9__gnu_cxx13new_allocatorISt6vectorI10CoordinateSaIS2_EEE7destroyEPS4_
FNF:29
FNH:26
DA:66,6018
DA:68,1737
DA:73,7755
DA:84,3487
DA:86,3487
DA:87,0
DA:89,3487
DA:94,3487
DA:95,3487
DA:98,3487
DA:99,3487
DA:104,2002
DA:105,2002
DA:115,2002
BA:86,1
BA:86,2
BA:86,1
BA:86,2
BA:86,1
BA:86,2
BA:105,2
BA:105,1
BA:105,2
BA:105,1
LF:14
LH:13
end_of_record
SF:/usr/include/c++/4.4/i486-linux-gnu/bits/gthr-default.h
FN:238,_ZL18__gthread_active_pv
FNDA:0,_ZL18__gthread_active_pv
FNF:1
FNH:0
DA:238,0
DA:242,0
LF:2
LH:0
end_of_record
SF:/usr/include/c++/4.4/iostream
DA:72,1
LF:1
LH:1
end_of_record
SF:/usr/include/c++/4.4/new
FN:101,_ZnwjPv
FN:105,_ZdlPvS_
FNDA:10326,_ZnwjPv
FNDA:0,_ZdlPvS_
FNF:2
FNH:1
DA:101,10326
DA:105,0
LF:2
LH:1
end_of_record
SF:/usr/include/c++/4.4/ostream
FN:108,_ZNSolsEPFRSoS_E
FN:559,_ZSt5flushIcSt11char_traitsIcEERSt13basic_ostreamIT_T0_ES6_
FN:538,_ZSt4endlIcSt11char_traitsIcEERSt13basic_ostreamIT_T0_ES6_
FN:505,_ZStlsISt11char_traitsIcEERSt13basic_ostreamIcT_ES5_PKc
FNDA:0,_ZNSolsEPFRSoS_E
FNDA:0,_ZStlsISt11char_traitsIcEERSt13basic_ostreamIcT_ES5_PKc
FNDA:0,_ZSt4endlIcSt11char_traitsIcEERSt13basic_ostreamIT_T0_ES6_
FNDA:0,_ZSt5flushIcSt11char_traitsIcEERSt13basic_ostreamIT_T0_ES6_
FNF:4
FNH:0
DA:108,0
DA:113,0
DA:505,0
DA:507,0
DA:508,0
DA:510,0
DA:512,0
DA:538,0
DA:539,0
DA:559,0
DA:560,0
BA:507,0
BA:507,0
LF:11
LH:0
end_of_record
SF:/home/frechilla/workspace/headless/blockem_sourceforge/src/board.h
FN:103,_ZNK5Board8GetNRowsEv
FN:109,_ZNK5Board11GetNColumnsEv
FN:91,_ZN5Board16SetPlayerInCoordERK10CoordinateRK6Player
FN:67,_ZN5Board10BlankCoordERK10Coordinate
FN:55,_ZNK5Board12IsCoordEmptyERK10Coordinate
FN:79,_ZNK5Board15IsPlayerInCoordERK10CoordinateRK6Player
FNDA:0,_ZNK5Board12IsCoordEmptyERK10Coordinate
FNDA:0,_ZN5Board10BlankCoordERK10Coordinate
FNDA:6449173,_ZNK5Board15IsPlayerInCoordERK10CoordinateRK6Player
FNDA:0,_ZN5Board16SetPlayerInCoordERK10CoordinateRK6Player
FNDA:0,_ZNK5Board8GetNRowsEv
FNDA:0,_ZNK5Board11GetNColumnsEv
FNF:6
FNH:1
DA:55,0
DA:58,0
DA:59,0
DA:60,0
DA:61,0
DA:63,0
DA:67,0
DA:70,0
DA:71,0
DA:72,0
DA:73,0
DA:75,0
DA:76,0
DA:79,6449173
DA:82,6449173
DA:83,6449173
DA:84,6449173
DA:85,6449173
DA:87,6449173
DA:91,0
DA:94,0
DA:95,0
DA:96,0
DA:97,0
DA:99,0
DA:100,0
DA:103,0
DA:105,0
DA:109,0
DA:111,0
BA:58,0
BA:58,0
BA:59,0
BA:59,0
BA:60,0
BA:60,0
BA:61,0
BA:61,0
BA:70,0
BA:70,0
BA:71,0
BA:71,0
BA:72,0
BA:72,0
BA:73,0
BA:73,0
BA:82,1
BA:82,2
BA:83,1
BA:83,2
BA:84,1
BA:84,2
BA:85,1
BA:85,2
BA:94,0
BA:94,0
BA:95,0
BA:95,0
BA:96,0
BA:96,0
BA:97,0
BA:97,0
LF:30
LH:6
end_of_record
SF:/home/frechilla/workspace/headless/blockem_sourceforge/src/coordinate.h
FN:49,_ZN10CoordinateC1Ev
FN:53,_ZN10CoordinateC1Eii
FN:47,_ZN10CoordinateaSERKS_
FN:47,_ZN10CoordinateC1ERKS_
FN:57,_ZN10CoordinateD0Ev
FN:57,_ZN10CoordinateD1Ev
FNDA:1220,_ZN10CoordinateaSERKS_
FNDA:8329,_ZN10CoordinateC1ERKS_
FNDA:1392,_ZN10CoordinateC1Ev
FNDA:0,_ZN10CoordinateC1Eii
FNDA:0,_ZN10CoordinateD0Ev
FNDA:0,_ZN10CoordinateD1Ev
FNF:6
FNH:3
DA:47,9549
DA:49,1392
DA:51,1392
DA:52,1392
DA:53,0
DA:55,0
DA:56,0
DA:57,0
DA:58,0
BA:58,0
BA:58,0
BA:58,0
BA:58,0
LF:9
LH:4
end_of_record
SF:/home/frechilla/workspace/headless/blockem_sourceforge/src/coordinate_set.h
FN:56,_ZN13CoordinateSetILi14ELi14EED1Ev
FN:85,_ZN13CoordinateSetILi14ELi14EE5clearEv
FN:52,_ZN13CoordinateSetILi14ELi14EEC1Ev
FN:61,_ZNK13CoordinateSetILi14ELi14EE9isPresentERK10Coordinate
FN:71,_ZN13CoordinateSetILi14ELi14EE6insertERK10Coordinate
FNDA:0,_ZN13CoordinateSetILi14ELi14EEC1Ev
FNDA:0,_ZN13CoordinateSetILi14ELi14EED1Ev
FNDA:0,_ZNK13CoordinateSetILi14ELi14EE9isPresentERK10Coordinate
FNDA:0,_ZN13CoordinateSetILi14ELi14EE6insertERK10Coordinate
FNDA:0,_ZN13CoordinateSetILi14ELi14EE5clearEv
FNF:5
FNH:0
DA:52,0
DA:54,0
DA:55,0
DA:56,0
DA:58,0
DA:61,0
DA:64,0
DA:65,0
DA:67,0
DA:71,0
DA:74,0
DA:75,0
DA:77,0
DA:79,0
DA:80,0
DA:82,0
DA:85,0
DA:87,0
DA:89,0
DA:91,0
DA:95,0
DA:96,0
BA:64,0
BA:64,0
BA:64,0
BA:64,0
BA:65,0
BA:65,0
BA:65,0
BA:65,0
BA:74,0
BA:74,0
BA:74,0
BA:74,0
BA:75,0
BA:75,0
BA:75,0
BA:75,0
BA:77,0
BA:77,0
BA:87,0
BA:87,0
BA:89,0
BA:89,0
LF:22
LH:0
end_of_record
SF:/home/frechilla/workspace/headless/blockem_sourceforge/src/game1v1.cpp
FN:71,_ZN7Game1v118SetProgressHandlerEPFvfE
FN:1099,_Z41__static_initialization_and_destruction_0ii
FN:1099,_GLOBAL__I__ZN7Game1v1C2ERK10CoordinateS2_
FN:1090,_ZN7Game1v18SaveGameERSo
FN:118,_ZNK7Game1v113GetPlayerTypeERK6Player
FN:97,_ZNK7Game1v111GetOpponentENS_16eGame1v1Player_tE
FN:76,_ZNK7Game1v19GetPlayerENS_16eGame1v1Player_tE
FN:1019,_ZN7Game1v15ResetERK10CoordinateS2_
FN:984,_ZN7Game1v123RecalculateNKInAllBoardERK5BoardR6PlayerS4_
FN:1028,_ZN7Game1v18LoadGameERSi
FN:291,_ZN7Game1v112PutDownPieceER5BoardRK10CoordinateRKSt6vectorIS2_SaIS2_EEiR6PlayerSB_
FN:253,_ZN7Game1v112PutDownPieceERK5PieceRK10CoordinateNS_16eGame1v1Player_tE
FN:203,_ZN7Game1v111RemovePieceER5BoardRK10CoordinateRKSt6vectorIS2_SaIS2_EEiR6PlayerSB_
FN:731,_ZN7Game1v122MinMaxAlphaBetaComputeER5BoardR6PlayerPP13CoordinateSetILi14ELi14EEPP5PieceS3_S7_SA_PFiRKS0_RKS2_SE_EiiiiRVKiRi
FN:595,_ZN7Game1v117ComputeFirstPieceER5BoardR6PlayerS3_RK10CoordinateRK5PieceRS7_RS4_
FN:336,_ZN7Game1v16MinMaxEPFiRK5BoardRK6PlayerS5_EiNS_16eGame1v1Player_tER5PieceR10CoordinateRVKiRKSB_RKS9_
FN:165,_ZN7Game1v111RemovePieceERK5PieceRK10CoordinateNS_16eGame1v1Player_tE
FN:140,_ZN7Game1v115SetPlayerColourENS_16eGame1v1Player_tEhhh
FN:67,_ZN7Game1v1D0Ev
FN:67,_ZN7Game1v1D1Ev
FN:67,_ZN7Game1v1D2Ev
FN:55,_ZN7Game1v1C1ERK10CoordinateS2_
FN:55,_ZN7Game1v1C2ERK10CoordinateS2_
FNDA:0,_ZN7Game1v1C1ERK10CoordinateS2_
FNDA:1,_ZN7Game1v1C2ERK10CoordinateS2_
FNDA:0,_ZN7Game1v1D0Ev
FNDA:0,_ZN7Game1v1D1Ev
FNDA:1,_ZN7Game1v1D2Ev
FNDA:0,_ZN7Game1v118SetProgressHandlerEPFvfE
FNDA:1311,_ZNK7Game1v19GetPlayerENS_16eGame1v1Player_tE
FNDA:0,_ZNK7Game1v111GetOpponentENS_16eGame1v1Player_tE
FNDA:0,_ZNK7Game1v113GetPlayerTypeERK6Player
FNDA:0,_ZN7Game1v115SetPlayerColourENS_16eGame1v1Player_tEhhh
FNDA:91,_ZN7Game1v111RemovePieceERK5PieceRK10CoordinateNS_16eGame1v1Player_tE
FNDA:91,_ZN7Game1v111RemovePieceER5BoardRK10CoordinateRKSt6vectorIS2_SaIS2_EEiR6PlayerSB_
FNDA:100,_ZN7Game1v112PutDownPieceERK5PieceRK10CoordinateNS_16eGame1v1Player_tE
FNDA:100,_ZN7Game1v112PutDownPieceER5BoardRK10CoordinateRKSt6vectorIS2_SaIS2_EEiR6PlayerSB_
FNDA:0,_ZN7Game1v16MinMaxEPFiRK5BoardRK6PlayerS5_EiNS_16eGame1v1Player_tER5PieceR10CoordinateRVKiRKSB_RKS9_
FNDA:0,_ZN7Game1v117ComputeFirstPieceER5BoardR6PlayerS3_RK10CoordinateRK5PieceRS7_RS4_
FNDA:0,_ZN7Game1v122MinMaxAlphaBetaComputeER5BoardR6PlayerPP13CoordinateSetILi14ELi14EEPP5PieceS3_S7_SA_PFiRKS0_RKS2_SE_EiiiiRVKiRi
FNDA:1,_ZN7Game1v123RecalculateNKInAllBoardERK5BoardR6PlayerS4_
FNDA:3,_ZN7Game1v15ResetERK10CoordinateS2_
FNDA:0,_ZN7Game1v18LoadGameERSi
FNDA:0,_ZN7Game1v18SaveGameERSo
FNDA:1,_Z41__static_initialization_and_destruction_0ii
FNDA:1,_GLOBAL__I__ZN7Game1v1C2ERK10CoordinateS2_
FNF:23
FNH:11
DA:55,1
DA:61,1
DA:64,1
DA:65,1
DA:67,1
DA:69,1
DA:71,0
DA:73,0
DA:74,0
DA:76,1311
DA:78,1311
DA:82,1311
DA:86,0
DA:91,0
DA:97,0
DA:99,0
DA:103,0
DA:107,0
DA:112,0
DA:118,0
DA:120,0
DA:122,0
DA:124,0
DA:126,0
DA:128,0
DA:133,0
DA:137,0
DA:140,0
DA:146,0
DA:150,0
DA:151,0
DA:155,0
DA:156,0
DA:160,0
DA:163,0
DA:165,91
DA:170,91
DA:180,91
DA:181,91
DA:182,91
DA:192,0
DA:193,0
DA:194,0
DA:198,0
DA:201,91
DA:203,91
DA:212,91
DA:213,91
DA:215,91
DA:216,91
DA:219,505
DA:224,414
DA:227,414
DA:229,414
DA:233,414
DA:236,414
DA:240,414
DA:245,0
DA:250,91
DA:251,91
DA:253,100
DA:258,100
DA:268,96
DA:269,96
DA:270,96
DA:280,4
DA:281,4
DA:282,4
DA:286,0
DA:289,100
DA:291,100
DA:300,100
DA:301,100
DA:303,100
DA:304,100
DA:307,547
DA:312,447
DA:316,447
DA:318,447
DA:320,447
DA:325,447
DA:329,447
DA:333,100
DA:334,100
DA:336,0
DA:346,0
DA:347,0
DA:349,0
DA:353,0
DA:354,0
DA:355,0
DA:359,0
DA:360,0
DA:361,0
DA:365,0
DA:370,0
DA:379,0
DA:382,0
DA:384,0
DA:385,0
DA:388,0
DA:389,0
DA:393,0
DA:397,0
DA:398,0
DA:407,0
DA:409,0
DA:410,0
DA:411,0
DA:412,0
DA:417,0
DA:426,0
DA:427,0
DA:430,0
DA:433,0
DA:437,0
DA:441,0
DA:446,0
DA:448,0
DA:450,0
DA:452,0
DA:455,0
DA:456,0
DA:457,0
DA:459,0
DA:463,0
DA:464,0
DA:471,0
DA:474,0
DA:477,0
DA:478,0
DA:480,0
DA:485,0
DA:488,0
DA:489,0
DA:497,0
DA:498,0
DA:500,0
DA:502,0
DA:504,0
DA:510,0
DA:512,0
DA:515,0
DA:518,0
DA:537,0
DA:539,0
DA:541,0
DA:543,0
DA:545,0
DA:547,0
DA:548,0
DA:550,0
DA:557,0
DA:559,0
DA:561,0
DA:569,0
DA:573,0
DA:578,0
DA:581,0
DA:584,0
DA:589,0
DA:592,0
DA:595,0
DA:605,0
DA:612,0
DA:613,0
DA:614,0
DA:616,0
DA:617,0
DA:627,0
DA:629,0
DA:630,0
DA:632,0
DA:634,0
DA:636,0
DA:640,0
DA:643,0
DA:647,0
DA:656,0
DA:657,0
DA:659,0
DA:662,0
DA:664,0
DA:667,0
DA:670,0
DA:674,0
DA:675,0
DA:676,0
DA:685,0
DA:686,0
DA:688,0
DA:694,0
DA:696,0
DA:701,0
DA:703,0
DA:706,0
DA:707,0
DA:709,0
DA:711,0
DA:712,0
DA:719,0
DA:721,0
DA:725,0
DA:728,0
DA:731,0
DA:751,0
DA:754,0
DA:762,0
DA:766,0
DA:768,0
DA:772,0
DA:773,0
DA:778,0
DA:783,0
DA:785,0
DA:787,0
DA:788,0
DA:795,0
DA:798,0
DA:801,0
DA:802,0
DA:804,0
DA:809,0
DA:812,0
DA:813,0
DA:822,0
DA:831,0
DA:832,0
DA:834,0
DA:836,0
DA:837,0
DA:842,0
DA:845,0
DA:854,0
DA:855,0
DA:857,0
DA:859,0
DA:861,0
DA:867,0
DA:869,0
DA:872,0
DA:875,0
DA:894,0
DA:896,0
DA:898,0
DA:905,0
DA:907,0
DA:909,0
DA:917,0
DA:920,0
DA:924,0
DA:925,0
DA:930,0
DA:933,0
DA:936,0
DA:939,0
DA:943,0
DA:961,0
DA:963,0
DA:971,0
DA:974,0
DA:976,0
DA:980,0
DA:984,1
DA:989,1
DA:990,15
DA:994,210
DA:998,196
DA:1000,0
DA:1004,196
DA:1007,196
DA:1009,0
DA:1013,196
DA:1016,1
DA:1017,1
DA:1019,3
DA:1023,3
DA:1024,3
DA:1025,3
DA:1026,3
DA:1028,0
DA:1030,0
DA:1032,0
DA:1034,0
DA:1037,0
DA:1038,0
DA:1040,0
DA:1041,0
DA:1043,0
DA:1044,0
DA:1046,0
DA:1049,0
DA:1050,0
DA:1052,0
DA:1053,0
DA:1055,0
DA:1056,0
DA:1058,0
DA:1060,0
DA:1063,0
DA:1066,0
DA:1068,0
DA:1069,0
DA:1071,0
DA:1073,0
DA:1076,0
DA:1077,0
DA:1079,0
DA:1081,0
DA:1085,0
DA:1087,0
DA:1090,0
DA:1092,0
DA:1093,0
DA:1094,0
DA:1096,0
DA:1098,0
DA:1099,3
BA:69,0
BA:69,0
BA:69,0
BA:69,0
BA:69,1
BA:69,2
BA:78,2
BA:78,1
BA:78,1
BA:99,0
BA:99,0
BA:99,0
BA:122,0
BA:122,0
BA:126,0
BA:126,0
BA:146,0
BA:146,0
BA:146,0
BA:170,2
BA:170,1
BA:170,1
BA:212,1
BA:212,2
BA:213,1
BA:213,2
BA:215,1
BA:215,2
BA:216,1
BA:216,2
BA:219,2
BA:219,2
BA:227,2
BA:227,1
BA:227,1
BA:227,2
BA:229,2
BA:229,1
BA:229,1
BA:229,2
BA:233,2
BA:233,1
BA:240,1
BA:240,2
BA:258,2
BA:258,2
BA:258,1
BA:300,1
BA:300,2
BA:301,1
BA:301,2
BA:303,1
BA:303,2
BA:304,1
BA:304,2
BA:307,2
BA:307,2
BA:316,2
BA:316,1
BA:316,1
BA:316,2
BA:318,2
BA:318,1
BA:318,1
BA:318,2
BA:320,2
BA:320,1
BA:349,0
BA:349,0
BA:349,0
BA:370,0
BA:370,0
BA:407,0
BA:407,0
BA:430,0
BA:430,0
BA:448,0
BA:448,0
BA:450,0
BA:450,0
BA:457,0
BA:457,0
BA:463,0
BA:463,0
BA:463,0
BA:463,0
BA:463,0
BA:463,0
BA:463,0
BA:463,0
BA:463,0
BA:463,0
BA:480,0
BA:480,0
BA:480,0
BA:480,0
BA:489,0
BA:489,0
BA:500,0
BA:500,0
BA:502,0
BA:502,0
BA:539,0
BA:539,0
BA:541,0
BA:541,0
BA:561,0
BA:561,0
BA:573,0
BA:573,0
BA:605,0
BA:605,0
BA:605,0
BA:605,0
BA:605,0
BA:605,0
BA:605,0
BA:605,0
BA:605,0
BA:605,0
BA:630,0
BA:630,0
BA:634,0
BA:634,0
BA:647,0
BA:647,0
BA:664,0
BA:664,0
BA:667,0
BA:667,0
BA:676,0
BA:676,0
BA:688,0
BA:688,0
BA:703,0
BA:703,0
BA:707,0
BA:707,0
BA:754,0
BA:754,0
BA:754,0
BA:754,0
BA:754,0
BA:754,0
BA:785,0
BA:785,0
BA:787,0
BA:787,0
BA:787,0
BA:787,0
BA:787,0
BA:787,0
BA:787,0
BA:787,0
BA:787,0
BA:787,0
BA:804,0
BA:804,0
BA:804,0
BA:804,0
BA:813,0
BA:813,0
BA:822,0
BA:822,0
BA:831,0
BA:831,0
BA:831,0
BA:831,0
BA:831,0
BA:831,0
BA:834,0
BA:834,0
BA:842,0
BA:842,0
BA:857,0
BA:857,0
BA:859,0
BA:859,0
BA:896,0
BA:896,0
BA:909,0
BA:909,0
BA:920,0
BA:920,0
BA:939,0
BA:939,0
BA:963,0
BA:963,0
BA:974,0
BA:974,0
BA:990,2
BA:990,2
BA:994,2
BA:994,2
BA:998,1
BA:998,2
BA:1007,1
BA:1007,2
BA:1032,0
BA:1032,0
BA:1038,0
BA:1038,0
BA:1044,0
BA:1044,0
BA:1046,0
BA:1046,0
BA:1046,0
BA:1046,0
BA:1069,0
BA:1069,0
BA:1071,0
BA:1071,0
BA:1077,0
BA:1077,0
BA:1079,0
BA:1079,0
BA:1099,2
BA:1099,1
BA:1099,2
BA:1099,1
LF:318
LH:68
end_of_record
SF:/home/frechilla/workspace/headless/blockem_sourceforge/src/game1v1.h
DA:53,1
DA:56,1
LF:2
LH:2
end_of_record
SF:/home/frechilla/workspace/headless/blockem_sourceforge/src/piece.h
FN:152,_ZNK5Piece7GetTypeEv
FN:167,_ZNK5Piece9GetRadiusEv
FN:173,_ZNK5Piece21GetPrecalculatedConfsEv
FN:195,_ZNK5Piece23GetCurrentConfigurationEv
FN:158,_ZNK5Piece11GetNSquaresEv
FN:187,_ZN5Piece23SetCurrentConfigurationERKSt6vectorI10CoordinateSaIS1_EE
FN:92,_ZN5PieceaSERKS_
FNDA:168,_ZN5PieceaSERKS_
FNDA:356,_ZNK5Piece7GetTypeEv
FNDA:1460,_ZNK5Piece11GetNSquaresEv
FNDA:368,_ZNK5Piece9GetRadiusEv
FNDA:0,_ZNK5Piece21GetPrecalculatedConfsEv
FNDA:0,_ZN5Piece23SetCurrentConfigurationERKSt6vectorI10CoordinateSaIS1_EE
FNDA:191,_ZNK5Piece23GetCurrentConfigurationEv
FNF:7
FNH:5
DA:92,168
DA:152,356
DA:154,356
DA:158,1460
DA:160,1460
DA:167,368
DA:169,368
DA:173,0
DA:175,0
DA:187,0
DA:189,0
DA:191,0
DA:193,0
DA:195,191
DA:197,191
BA:189,0
BA:189,0
LF:15
LH:9
end_of_record
SF:/home/frechilla/workspace/headless/blockem_sourceforge/src/player.h
FN:80,_ZNK6Player16PresentationCharEv
FN:98,_ZNK6Player21GetStartingCoordinateEv
FN:109,_ZNK6Player23NumberOfPiecesAvailableEv
FN:114,_ZNK6Player24NumberOfNucleationPointsEv
FN:120,_ZN6Player10UnsetPieceE12ePieceType_t
FN:161,_ZN6Player18SetNucleationPointERK10Coordinate
FN:178,_ZN6Player20UnsetNucleationPointERK10Coordinate
FN:151,_ZNK6Player17IsNucleationPointERK10Coordinate
FN:142,_ZNK6Player16IsPieceAvailableE12ePieceType_t
FN:214,_ZNK6Player22GetAllNucleationPointsILi14ELi14EEEiR13CoordinateSetIXT_EXT0_EE
FN:131,_ZN6Player8SetPieceE12ePieceType_t
FNDA:0,_ZNK6Player16PresentationCharEv
FNDA:0,_ZNK6Player21GetStartingCoordinateEv
FNDA:227,_ZNK6Player23NumberOfPiecesAvailableEv
FNDA:0,_ZNK6Player24NumberOfNucleationPointsEv
FNDA:122,_ZN6Player10UnsetPieceE12ePieceType_t
FNDA:96,_ZN6Player8SetPieceE12ePieceType_t
FNDA:0,_ZNK6Player16IsPieceAvailableE12ePieceType_t
FNDA:0,_ZNK6Player17IsNucleationPointERK10Coordinate
FNDA:0,_ZN6Player18SetNucleationPointERK10Coordinate
FNDA:0,_ZN6Player20UnsetNucleationPointERK10Coordinate
FNDA:0,_ZNK6Player22GetAllNucleationPointsILi14ELi14EEEiR13CoordinateSetIXT_EXT0_EE
FNF:11
FNH:3
DA:80,0
DA:82,0
DA:98,0
DA:100,0
DA:109,227
DA:111,227
DA:114,0
DA:116,0
DA:120,122
DA:123,122
DA:124,122
DA:126,122
DA:127,122
DA:128,122
DA:131,96
DA:134,96
DA:135,96
DA:137,96
DA:138,96
DA:139,96
DA:142,0
DA:145,0
DA:147,0
DA:151,0
DA:154,0
DA:155,0
DA:157,0
DA:161,0
DA:164,0
DA:165,0
DA:167,0
DA:170,0
DA:172,0
DA:173,0
DA:175,0
DA:178,0
DA:181,0
DA:182,0
DA:184,0
DA:187,0
DA:189,0
DA:190,0
DA:192,0
DA:214,0
DA:218,0
DA:219,0
DA:221,0
DA:222,0
DA:224,0
DA:226,0
DA:228,0
DA:230,0
DA:232,0
DA:237,0
BA:123,2
BA:123,1
BA:123,1
BA:123,2
BA:124,2
BA:124,1
BA:134,2
BA:134,1
BA:134,1
BA:134,2
BA:135,1
BA:135,2
BA:145,0
BA:145,0
BA:145,0
BA:145,0
BA:154,0
BA:154,0
BA:154,0
BA:154,0
BA:155,0
BA:155,0
BA:155,0
BA:155,0
BA:164,0
BA:164,0
BA:164,0
BA:164,0
BA:165,0
BA:165,0
BA:165,0
BA:165,0
BA:167,0
BA:167,0
BA:170,0
BA:170,0
BA:181,0
BA:181,0
BA:181,0
BA:181,0
BA:182,0
BA:182,0
BA:182,0
BA:182,0
BA:184,0
BA:184,0
BA:187,0
BA:187,0
BA:218,0
BA:218,0
BA:219,0
BA:219,0
BA:224,0
BA:224,0
BA:226,0
BA:226,0
BA:228,0
BA:228,0
LF:54
LH:14
end_of_record
TN:
SF:/usr/include/c++/4.4/bits/stl_list.h
FN:200,_ZNSt20_List_const_iteratorISt6vectorI10CoordinateSaIS1_EEEC1Ev
FN:255,_ZNKSt20_List_const_iteratorISt6vectorI10CoordinateSaIS1_EEEneERKS4_
FN:228,_ZNSt20_List_const_iteratorISt6vectorI10CoordinateSaIS1_EEEppEi
FN:213,_ZNKSt20_List_const_iteratorIyEdeEv
FN:213,_ZNKSt20_List_const_iteratorISt6vectorI10CoordinateSaIS1_EEEdeEv
FN:228,_ZNSt20_List_const_iteratorIyEppEi
FN:251,_ZNKSt20_List_const_iteratorIyEeqERKS0_
FN:204,_ZNSt20_List_const_iteratorIyEC1EPKSt15_List_node_base
FN:698,_ZNKSt4listIySaIyEE5beginEv
FN:716,_ZNKSt4listIySaIyEE3endEv
FN:204,_ZNSt20_List_const_iteratorISt6vectorI10CoordinateSaIS1_EEEC1EPKSt15_List_node_base
FN:698,_ZNKSt4listISt6vectorI10CoordinateSaIS1_EESaIS3_EE5beginEv
FN:716,_ZNKSt4listISt6vectorI10CoordinateSaIS1_EESaIS3_EE3endEv
FNDA:140,_ZNSt20_List_const_iteratorISt6vectorI10CoordinateSaIS1_EEEC1Ev
FNDA:530,_ZNSt20_List_const_iteratorIyEC1EPKSt15_List_node_base
FNDA:1139,_ZNSt20_List_const_iteratorISt6vectorI10CoordinateSaIS1_EEEC1EPKSt15_List_node_base
FNDA:1157,_ZNKSt20_List_const_iteratorIyEdeEv
FNDA:84989,_ZNKSt20_List_const_iteratorISt6vectorI10CoordinateSaIS1_EEEdeEv
FNDA:523,_ZNSt20_List_const_iteratorISt6vectorI10CoordinateSaIS1_EEEppEi
FNDA:429,_ZNSt20_List_const_iteratorIyEppEi
FNDA:265,_ZNKSt20_List_const_iteratorIyEeqERKS0_
FNDA:1517,_ZNKSt20_List_const_iteratorISt6vectorI10CoordinateSaIS1_EEEneERKS4_
FNDA:265,_ZNKSt4listIySaIyEE5beginEv
FNDA:308,_ZNKSt4listISt6vectorI10CoordinateSaIS1_EESaIS3_EE5beginEv
FNDA:265,_ZNKSt4listIySaIyEE3endEv
FNDA:831,_ZNKSt4listISt6vectorI10CoordinateSaIS1_EESaIS3_EE3endEv
FNF:13
FNH:13
DA:200,140
DA:201,140
DA:204,1669
DA:205,1669
DA:213,86146
DA:214,86146
DA:228,952
DA:230,952
DA:231,952
DA:251,265
DA:252,265
DA:255,1517
DA:256,1517
DA:698,573
DA:699,573
DA:716,1096
DA:717,1096
LF:17
LH:17
end_of_record
SF:/home/frechilla/workspace/headless/blockem_sourceforge/src/bitwise.h
FN:136,_ZN7bitwise17IsPieceDeployableEyyy
DA:136,84084
DA:139,84084
DA:145,52364
DA:151,47249
DA:156,2815
DA:161,81269
LF:6
LH:6
end_of_record
SF:/home/frechilla/workspace/headless/blockem_sourceforge/src/board.h
FN:103,_ZNK5Board8GetNRowsEv
FN:109,_ZNK5Board11GetNColumnsEv
FN:55,_ZNK5Board12IsCoordEmptyERK10Coordinate
DA:55,3972145
DA:58,3972145
DA:59,3972145
DA:60,3972145
DA:61,3972145
DA:63,3972145
DA:67,415
DA:70,415
DA:71,415
DA:72,415
DA:73,415
DA:75,415
DA:76,415
DA:91,537
DA:94,537
DA:95,537
DA:96,537
DA:97,537
DA:99,537
DA:100,537
DA:103,2610014
DA:105,2610014
DA:109,5690642
DA:111,5690642
LF:24
LH:24
end_of_record
SF:/home/frechilla/workspace/headless/blockem_sourceforge/src/coordinate.h
FN:53,_ZN10CoordinateC1Eii
FN:57,_ZN10CoordinateD0Ev
FN:57,_ZN10CoordinateD1Ev
DA:53,998871
DA:55,998871
DA:56,998871
DA:57,1008592
DA:58,1008592
LF:5
LH:5
end_of_record
SF:/home/frechilla/workspace/headless/blockem_sourceforge/src/game1v1.h
FN:91,_ZNK7Game1v18GetBoardEv
DA:53,2
DA:56,2
DA:91,828
DA:93,828
LF:4
LH:4
end_of_record
SF:/home/frechilla/workspace/headless/blockem_sourceforge/src/tests/game1v1_test.cpp
FN:3543,_Z41__static_initialization_and_destruction_0ii
FN:3543,_GLOBAL__I__ZN11Game1v1TestC2Ev
FN:3261,_ZN11Game1v1Test22TestPiece_5TheUltimateEv
FN:2977,_ZN11Game1v1Test22TestPiece_5BoringPieceEv
FN:2712,_ZN11Game1v1Test22TestPiece_5SquareAppenEv
FN:2568,_ZN11Game1v1Test14TestPiece_5MrTEv
FN:2300,_ZN11Game1v1Test15TestPiece_5BigLEv
FN:2164,_ZN11Game1v1Test21TestPiece_5HalfSquareEv
FN:2118,_ZN11Game1v1Test16TestPiece_5CrossEv
FN:2050,_ZN11Game1v1Test19TestPiece_5BigPenisEv
FN:1917,_ZN11Game1v1Test20TestPiece_5CuntPieceEv
FN:1763,_ZN11Game1v1Test17TestPiece_5WPieceEv
FN:1463,_ZN11Game1v1Test19TestPiece_5SafPieceEv
FN:1316,_ZN11Game1v1Test15TestPiece_5BigSEv
FN:1281,_ZN11Game1v1Test21TestPiece_4FullSquareEv
FN:1034,_ZN11Game1v1Test18TestPiece_4littleLEv
FN:900,_ZN11Game1v1Test18TestPiece_4LittleTEv
FN:760,_ZN11Game1v1Test18TestPiece_4LittleSEv
FN:697,_ZN11Game1v1Test20TestPiece_4LongPieceEv
FN:577,_ZN11Game1v1Test19TestPiece_3TriangleEv
FN:517,_ZN11Game1v1Test20TestPiece_3LongPieceEv
FN:461,_ZN11Game1v1Test19TestPiece_2TwoPieceEv
FN:430,_ZN11Game1v1Test20TestPiece_1BabyPieceEv
FN:362,_ZN11Game1v1Test10TestPiecesEv
FN:43,_ZN11Game1v1Test29TestBitwiseCheckConfigurationERK10CoordinateRKSt6vectorIS0_SaIS0_EEyyy
FN:83,_ZN11Game1v1Test25TestBoardAndPiecesBitwiseEi12ePieceType_t
FN:215,_ZN11Game1v1Test11TestBitwiseEv
FN:39,_ZN11Game1v1TestD0Ev
FN:39,_ZN11Game1v1TestD1Ev
FN:39,_ZN11Game1v1TestD2Ev
FN:34,_ZN11Game1v1TestC1Ev
FN:34,_ZN11Game1v1TestC2Ev
FNDA:1,_ZN11Game1v1TestC1Ev
FNDA:0,_ZN11Game1v1TestC2Ev
FNDA:0,_ZN11Game1v1TestD0Ev
FNDA:1,_ZN11Game1v1TestD1Ev
FNDA:0,_ZN11Game1v1TestD2Ev
FNDA:84084,_ZN11Game1v1Test29TestBitwiseCheckConfigurationERK10CoordinateRKSt6vectorIS0_SaIS0_EEyyy
FNDA:5,_ZN11Game1v1Test25TestBoardAndPiecesBitwiseEi12ePieceType_t
FNDA:1,_ZN11Game1v1Test11TestBitwiseEv
FNDA:1,_ZN11Game1v1Test10TestPiecesEv
FNDA:1,_ZN11Game1v1Test20TestPiece_1BabyPieceEv
FNDA:1,_ZN11Game1v1Test19TestPiece_2TwoPieceEv
FNDA:1,_ZN11Game1v1Test20TestPiece_3LongPieceEv
FNDA:1,_ZN11Game1v1Test19TestPiece_3TriangleEv
FNDA:1,_ZN11Game1v1Test20TestPiece_4LongPieceEv
FNDA:1,_ZN11Game1v1Test18TestPiece_4LittleSEv
FNDA:1,_ZN11Game1v1Test18TestPiece_4LittleTEv
FNDA:1,_ZN11Game1v1Test18TestPiece_4littleLEv
FNDA:1,_ZN11Game1v1Test21TestPiece_4FullSquareEv
FNDA:1,_ZN11Game1v1Test15TestPiece_5BigSEv
FNDA:1,_ZN11Game1v1Test19TestPiece_5SafPieceEv
FNDA:1,_ZN11Game1v1Test17TestPiece_5WPieceEv
FNDA:1,_ZN11Game1v1Test20TestPiece_5CuntPieceEv
FNDA:1,_ZN11Game1v1Test19TestPiece_5BigPenisEv
FNDA:1,_ZN11Game1v1Test16TestPiece_5CrossEv
FNDA:1,_ZN11Game1v1Test21TestPiece_5HalfSquareEv
FNDA:1,_ZN11Game1v1Test15TestPiece_5BigLEv
FNDA:1,_ZN11Game1v1Test14TestPiece_5MrTEv
FNDA:1,_ZN11Game1v1Test22TestPiece_5SquareAppenEv
FNDA:1,_ZN11Game1v1Test22TestPiece_5BoringPieceEv
FNDA:1,_ZN11Game1v1Test22TestPiece_5TheUltimateEv
FNDA:1,_Z41__static_initialization_and_destruction_0ii
FNDA:1,_GLOBAL__I__ZN11Game1v1TestC2Ev
FNF:32
FNH:29
DA:34,1
DA:35,1
DA:37,1
DA:39,1
DA:41,1
DA:43,84084
DA:59,84084
DA:60,84084
DA:61,84084
DA:70,84084
DA:76,84084
DA:80,84084
DA:81,84084
DA:83,5
DA:86,5
DA:88,3
DA:91,5
DA:93,110
DA:95,105
DA:98,8
DA:100,3
DA:102,8
DA:103,8
DA:106,97
DA:107,97
DA:111,97
DA:112,97
DA:114,526
DA:119,429
DA:125,429
DA:127,429
DA:132,2574
DA:134,42042
DA:144,39039
DA:146,39039
DA:155,3003
DA:157,3003
DA:159,0
DA:163,3003
DA:164,3003
DA:167,42042
DA:177,39039
DA:179,39039
DA:188,3003
DA:190,3003
DA:192,429
DA:196,2574
DA:197,2574
DA:203,429
DA:208,97
DA:213,5
DA:214,5
DA:215,1
DA:218,1
DA:237,1
DA:238,2
DA:242,1
DA:245,1
DA:264,2
DA:265,2
DA:268,1
DA:271,1
DA:294,1
DA:295,2
DA:296,1
DA:297,2
DA:300,1
DA:325,2
DA:326,1
DA:327,1
DA:328,2
DA:331,1
DA:356,2
DA:359,1
DA:360,1
DA:362,1
DA:364,1
DA:366,22
DA:368,29
DA:370,29
DA:371,149
DA:373,91
DA:374,91
DA:375,91
DA:378,29
DA:379,29
DA:381,21
DA:385,1
DA:388,1
DA:389,22
DA:393,21
DA:394,21
DA:396,112
DA:400,91
DA:405,1
DA:407,1
DA:408,1
DA:409,1
DA:410,1
DA:411,1
DA:412,1
DA:413,1
DA:414,1
DA:415,1
DA:416,1
DA:417,1
DA:418,1
DA:419,1
DA:420,1
DA:421,1
DA:422,1
DA:423,1
DA:424,1
DA:425,1
DA:426,1
DA:427,1
DA:428,1
DA:430,1
DA:433,1
DA:434,1
DA:436,1
DA:437,1
DA:438,1
DA:439,1
DA:440,2
DA:441,2
DA:442,2
DA:444,1
DA:445,2
DA:446,1
DA:447,1
DA:448,2
DA:449,2
DA:450,2
DA:453,1
DA:454,1
DA:455,1
DA:456,1
DA:458,1
DA:459,1
DA:461,1
DA:464,1
DA:465,1
DA:467,1
DA:468,1
DA:469,2
DA:470,1
DA:471,1
DA:472,2
DA:473,2
DA:474,2
DA:476,1
DA:477,2
DA:478,2
DA:479,1
DA:480,1
DA:481,2
DA:482,2
DA:483,2
DA:485,1
DA:486,1
DA:487,1
DA:491,1
DA:492,1
DA:493,2
DA:494,1
DA:495,1
DA:496,2
DA:497,2
DA:498,2
DA:500,1
DA:501,2
DA:502,2
DA:503,1
DA:504,1
DA:505,2
DA:506,2
DA:507,2
DA:509,1
DA:510,1
DA:511,1
DA:512,1
DA:514,1
DA:515,1
DA:517,1
DA:520,1
DA:521,1
DA:523,1
DA:524,1
DA:525,2
DA:526,2
DA:527,1
DA:528,1
DA:529,2
DA:530,2
DA:531,2
DA:533,1
DA:534,2
DA:535,2
DA:536,2
DA:537,1
DA:538,1
DA:539,2
DA:540,2
DA:541,2
DA:543,1
DA:544,1
DA:545,1
DA:550,1
DA:551,1
DA:552,2
DA:553,2
DA:554,1
DA:555,1
DA:556,2
DA:557,2
DA:558,2
DA:560,1
DA:561,2
DA:562,2
DA:563,2
DA:564,1
DA:565,1
DA:566,2
DA:567,2
DA:568,2
DA:570,1
DA:571,1
DA:572,1
DA:573,1
DA:575,1
DA:576,1
DA:577,1
DA:579,1
DA:580,1
DA:584,1
DA:585,1
DA:586,2
DA:587,2
DA:588,1
DA:589,1
DA:590,2
DA:591,2
DA:592,2
DA:593,2
DA:595,1
DA:596,2
DA:597,2
DA:598,2
DA:599,1
DA:600,1
DA:601,2
DA:602,2
DA:603,2
DA:604,2
DA:606,1
DA:607,1
DA:608,1
DA:612,1
DA:613,1
DA:614,2
DA:615,2
DA:616,1
DA:617,1
DA:618,2
DA:619,2
DA:620,2
DA:621,2
DA:623,1
DA:624,2
DA:625,2
DA:626,2
DA:627,1
DA:628,1
DA:629,2
DA:630,2
DA:631,2
DA:632,2
DA:634,1
DA:635,1
DA:636,1
DA:640,1
DA:641,1
DA:642,2
DA:643,2
DA:644,1
DA:645,1
DA:646,2
DA:647,2
DA:648,2
DA:649,2
DA:651,1
DA:652,2
DA:653,2
DA:654,2
DA:655,1
DA:656,1
DA:657,2
DA:658,2
DA:659,2
DA:660,2
DA:662,1
DA:663,1
DA:664,1
DA:668,1
DA:669,1
DA:670,2
DA:671,2
DA:672,1
DA:673,1
DA:674,2
DA:675,2
DA:676,2
DA:677,2
DA:679,1
DA:680,2
DA:681,2
DA:682,2
DA:683,1
DA:684,1
DA:685,2
DA:686,2
DA:687,2
DA:688,2
DA:690,1
DA:691,1
DA:692,1
DA:693,1
DA:695,1
DA:696,1
DA:697,1
DA:700,1
DA:701,1
DA:703,1
DA:704,1
DA:705,2
DA:706,2
DA:707,2
DA:708,1
DA:709,1
DA:710,2
DA:711,2
DA:712,2
DA:714,1
DA:715,2
DA:716,2
DA:717,2
DA:718,2
DA:719,1
DA:720,1
DA:721,2
DA:722,2
DA:723,2
DA:725,1
DA:726,1
DA:732,1
DA:733,1
DA:734,2
DA:735,2
DA:736,2
DA:737,1
DA:738,1
DA:739,2
DA:740,2
DA:741,2
DA:743,1
DA:744,2
DA:745,2
DA:746,2
DA:747,2
DA:748,1
DA:749,1
DA:750,2
DA:751,2
DA:752,2
DA:754,1
DA:755,1
DA:756,1
DA:758,1
DA:759,1
DA:760,1
DA:762,1
DA:763,1
DA:767,1
DA:768,1
DA:769,2
DA:770,2
DA:771,2
DA:772,1
DA:773,1
DA:774,2
DA:775,2
DA:776,2
DA:777,2
DA:778,2
DA:780,1
DA:781,2
DA:782,2
DA:783,2
DA:784,2
DA:785,1
DA:786,1
DA:787,2
DA:788,2
DA:789,2
DA:790,2
DA:791,2
DA:793,1
DA:794,1
DA:799,1
DA:800,1
DA:801,2
DA:802,2
DA:803,2
DA:804,1
DA:805,1
DA:806,2
DA:807,2
DA:808,2
DA:809,2
DA:810,2
DA:812,1
DA:813,2
DA:814,2
DA:815,2
DA:816,2
DA:817,1
DA:818,1
DA:819,2
DA:820,2
DA:821,2
DA:822,2
DA:823,2
DA:825,1
DA:826,1
DA:827,1
DA:828,1
DA:830,1
DA:831,1
DA:835,1
DA:836,2
DA:837,2
DA:838,2
DA:839,2
DA:840,1
DA:841,1
DA:842,2
DA:843,2
DA:844,2
DA:845,2
DA:846,2
DA:848,1
DA:849,2
DA:850,2
DA:851,2
DA:852,2
DA:853,1
DA:854,1
DA:855,2
DA:856,2
DA:857,2
DA:858,2
DA:859,2
DA:861,1
DA:862,1
DA:863,1
DA:868,1
DA:869,1
DA:870,2
DA:871,2
DA:872,2
DA:873,1
DA:874,1
DA:875,2
DA:876,2
DA:877,2
DA:878,2
DA:879,2
DA:881,1
DA:882,2
DA:883,2
DA:884,2
DA:885,2
DA:886,1
DA:887,1
DA:888,2
DA:889,2
DA:890,2
DA:891,2
DA:892,2
DA:894,1
DA:895,1
DA:896,1
DA:898,1
DA:899,1
DA:900,1
DA:904,1
DA:905,1
DA:907,1
DA:908,1
DA:909,2
DA:910,2
DA:911,2
DA:912,1
DA:913,1
DA:914,2
DA:915,2
DA:916,2
DA:917,2
DA:918,2
DA:920,1
DA:921,2
DA:922,2
DA:923,2
DA:924,2
DA:925,1
DA:926,1
DA:927,2
DA:928,2
DA:929,2
DA:930,2
DA:931,2
DA:933,1
DA:934,1
DA:939,1
DA:940,1
DA:941,2
DA:942,2
DA:943,2
DA:944,1
DA:945,1
DA:946,2
DA:947,2
DA:948,2
DA:949,2
DA:950,2
DA:952,1
DA:953,2
DA:954,2
DA:955,2
DA:956,2
DA:957,1
DA:958,1
DA:959,2
DA:960,2
DA:961,2
DA:962,2
DA:963,2
DA:965,1
DA:966,1
DA:970,1
DA:971,1
DA:972,2
DA:973,2
DA:974,2
DA:975,1
DA:976,1
DA:977,2
DA:978,2
DA:979,2
DA:980,2
DA:981,2
DA:983,1
DA:984,2
DA:985,2
DA:986,2
DA:987,2
DA:988,1
DA:989,1
DA:990,2
DA:991,2
DA:992,2
DA:993,2
DA:994,2
DA:996,1
DA:997,1
DA:1002,1
DA:1003,1
DA:1004,2
DA:1005,2
DA:1006,2
DA:1007,1
DA:1008,1
DA:1009,2
DA:1010,2
DA:1011,2
DA:1012,2
DA:1013,2
DA:1015,1
DA:1016,2
DA:1017,2
DA:1018,2
DA:1019,2
DA:1020,1
DA:1021,1
DA:1022,2
DA:1023,2
DA:1024,2
DA:1025,2
DA:1026,2
DA:1028,1
DA:1029,1
DA:1030,1
DA:1032,1
DA:1033,1
DA:1034,1
DA:1038,1
DA:1039,1
DA:1041,1
DA:1042,1
DA:1043,2
DA:1044,2
DA:1045,2
DA:1046,1
DA:1047,1
DA:1048,2
DA:1049,2
DA:1050,2
DA:1051,2
DA:1053,1
DA:1054,2
DA:1055,2
DA:1056,2
DA:1057,2
DA:1058,1
DA:1059,1
DA:1060,2
DA:1061,2
DA:1062,2
DA:1063,2
DA:1065,1
DA:1066,1
DA:1071,1
DA:1072,1
DA:1073,2
DA:1074,2
DA:1075,2
DA:1076,1
DA:1077,1
DA:1078,2
DA:1079,2
DA:1080,2
DA:1081,2
DA:1083,1
DA:1084,2
DA:1085,2
DA:1086,2
DA:1087,2
DA:1088,1
DA:1089,1
DA:1090,2
DA:1091,2
DA:1092,2
DA:1093,2
DA:1095,1
DA:1096,1
DA:1100,1
DA:1101,1
DA:1102,2
DA:1103,2
DA:1104,2
DA:1105,1
DA:1106,1
DA:1107,2
DA:1108,2
DA:1109,2
DA:1110,2
DA:1112,1
DA:1113,2
DA:1114,2
DA:1115,2
DA:1116,2
DA:1117,1
DA:1118,1
DA:1119,2
DA:1120,2
DA:1121,2
DA:1122,2
DA:1124,1
DA:1125,1
DA:1130,1
DA:1131,1
DA:1132,2
DA:1133,2
DA:1134,2
DA:1135,1
DA:1136,1
DA:1137,2
DA:1138,2
DA:1139,2
DA:1140,2
DA:1142,1
DA:1143,2
DA:1144,2
DA:1145,2
DA:1146,2
DA:1147,1
DA:1148,1
DA:1149,2
DA:1150,2
DA:1151,2
DA:1152,2
DA:1154,1
DA:1155,1
DA:1156,1
DA:1158,1
DA:1162,1
DA:1163,2
DA:1164,2
DA:1165,2
DA:1166,2
DA:1167,1
DA:1168,1
DA:1169,2
DA:1170,2
DA:1171,2
DA:1172,2
DA:1174,1
DA:1175,2
DA:1176,2
DA:1177,2
DA:1178,2
DA:1179,1
DA:1180,1
DA:1181,2
DA:1182,2
DA:1183,2
DA:1184,2
DA:1186,1
DA:1187,1
DA:1192,1
DA:1193,1
DA:1194,2
DA:1195,2
DA:1196,2
DA:1197,1
DA:1198,1
DA:1199,2
DA:1200,2
DA:1201,2
DA:1202,2
DA:1204,1
DA:1205,2
DA:1206,2
DA:1207,2
DA:1208,2
DA:1209,1
DA:1210,1
DA:1211,2
DA:1212,2
DA:1213,2
DA:1214,2
DA:1216,1
DA:1217,1
DA:1221,1
DA:1222,1
DA:1223,2
DA:1224,2
DA:1225,2
DA:1226,1
DA:1227,1
DA:1228,2
DA:1229,2
DA:1230,2
DA:1231,2
DA:1233,1
DA:1234,2
DA:1235,2
DA:1236,2
DA:1237,2
DA:1238,1
DA:1239,1
DA:1240,2
DA:1241,2
DA:1242,2
DA:1243,2
DA:1245,1
DA:1246,1
DA:1251,1
DA:1252,1
DA:1253,2
DA:1254,2
DA:1255,2
DA:1256,1
DA:1257,1
DA:1258,2
DA:1259,2
DA:1260,2
DA:1261,2
DA:1263,1
DA:1264,2
DA:1265,2
DA:1266,2
DA:1267,2
DA:1268,1
DA:1269,1
DA:1270,2
DA:1271,2
DA:1272,2
DA:1273,2
DA:1275,1
DA:1276,1
DA:1277,1
DA:1279,1
DA:1280,1
DA:1281,1
DA:1285,1
DA:1286,1
DA:1288,1
DA:1289,1
DA:1290,2
DA:1291,2
DA:1292,2
DA:1293,1
DA:1294,1
DA:1295,2
DA:1296,2
DA:1297,2
DA:1299,1
DA:1300,2
DA:1301,2
DA:1302,2
DA:1303,2
DA:1304,1
DA:1305,1
DA:1306,2
DA:1307,2
DA:1308,2
DA:1310,1
DA:1311,1
DA:1312,1
DA:1314,1
DA:1315,1
DA:1316,1
DA:1321,1
DA:1322,1
DA:1324,1
DA:1325,1
DA:1326,2
DA:1327,2
DA:1328,2
DA:1329,2
DA:1330,1
DA:1331,1
DA:1332,2
DA:1333,2
DA:1334,2
DA:1335,2
DA:1336,2
DA:1338,1
DA:1339,2
DA:1340,2
DA:1341,2
DA:1342,2
DA:1343,2
DA:1344,1
DA:1345,1
DA:1346,2
DA:1347,2
DA:1348,2
DA:1349,2
DA:1350,2
DA:1352,1
DA:1353,1
DA:1358,1
DA:1359,1
DA:1360,2
DA:1361,2
DA:1362,2
DA:1363,2
DA:1364,1
DA:1365,1
DA:1366,2
DA:1367,2
DA:1368,2
DA:1369,2
DA:1370,2
DA:1372,1
DA:1373,2
DA:1374,2
DA:1375,2
DA:1376,2
DA:1377,2
DA:1378,1
DA:1379,1
DA:1380,2
DA:1381,2
DA:1382,2
DA:1383,2
DA:1384,2
DA:1386,1
DA:1387,1
DA:1388,1
DA:1390,1
DA:1395,1
DA:1396,2
DA:1397,2
DA:1398,2
DA:1399,2
DA:1400,2
DA:1401,1
DA:1402,1
DA:1403,2
DA:1404,2
DA:1405,2
DA:1406,2
DA:1407,2
DA:1409,1
DA:1410,2
DA:1411,2
DA:1412,2
DA:1413,2
DA:1414,2
DA:1415,1
DA:1416,1
DA:1417,2
DA:1418,2
DA:1419,2
DA:1420,2
DA:1421,2
DA:1423,1
DA:1424,1
DA:1429,1
DA:1430,1
DA:1431,2
DA:1432,2
DA:1433,2
DA:1434,2
DA:1435,1
DA:1436,1
DA:1437,2
DA:1438,2
DA:1439,2
DA:1440,2
DA:1441,2
DA:1443,1
DA:1444,2
DA:1445,2
DA:1446,2
DA:1447,2
DA:1448,2
DA:1449,1
DA:1450,1
DA:1451,2
DA:1452,2
DA:1453,2
DA:1454,2
DA:1455,2
DA:1457,1
DA:1458,1
DA:1459,1
DA:1461,1
DA:1462,1
DA:1463,1
DA:1468,1
DA:1469,1
DA:1471,1
DA:1472,1
DA:1473,2
DA:1474,2
DA:1475,2
DA:1476,2
DA:1477,1
DA:1478,1
DA:1479,2
DA:1480,2
DA:1481,2
DA:1482,2
DA:1483,2
DA:1484,2
DA:1486,1
DA:1487,2
DA:1488,2
DA:1489,2
DA:1490,2
DA:1491,2
DA:1492,1
DA:1493,1
DA:1494,2
DA:1495,2
DA:1496,2
DA:1497,2
DA:1498,2
DA:1499,2
DA:1501,1
DA:1502,1
DA:1507,1
DA:1508,1
DA:1509,2
DA:1510,2
DA:1511,2
DA:1512,2
DA:1513,1
DA:1514,1
DA:1515,2
DA:1516,2
DA:1517,2
DA:1518,2
DA:1519,2
DA:1520,2
DA:1522,1
DA:1523,2
DA:1524,2
DA:1525,2
DA:1526,2
DA:1527,2
DA:1528,1
DA:1529,1
DA:1530,2
DA:1531,2
DA:1532,2
DA:1533,2
DA:1534,2
DA:1535,2
DA:1537,1
DA:1538,1
DA:1543,1
DA:1544,1
DA:1545,2
DA:1546,2
DA:1547,2
DA:1548,2
DA:1549,1
DA:1550,1
DA:1551,2
DA:1552,2
DA:1553,2
DA:1554,2
DA:1555,2
DA:1556,2
DA:1558,1
DA:1559,2
DA:1560,2
DA:1561,2
DA:1562,2
DA:1563,2
DA:1564,1
DA:1565,1
DA:1566,2
DA:1567,2
DA:1568,2
DA:1569,2
DA:1570,2
DA:1571,2
DA:1573,1
DA:1574,1
DA:1579,1
DA:1580,1
DA:1581,2
DA:1582,2
DA:1583,2
DA:1584,2
DA:1585,1
DA:1586,1
DA:1587,2
DA:1588,2
DA:1589,2
DA:1590,2
DA:1591,2
DA:1592,2
DA:1594,1
DA:1595,2
DA:1596,2
DA:1597,2
DA:1598,2
DA:1599,2
DA:1600,1
DA:1601,1
DA:1602,2
DA:1603,2
DA:1604,2
DA:1605,2
DA:1606,2
DA:1607,2
DA:1609,1
DA:1610,1
DA:1611,1
DA:1612,1
DA:1614,1
DA:1619,1
DA:1620,2
DA:1621,2
DA:1622,2
DA:1623,2
DA:1624,2
DA:1625,1
DA:1626,1
DA:1627,2
DA:1628,2
DA:1629,2
DA:1630,2
DA:1631,2
DA:1632,2
DA:1634,1
DA:1635,2
DA:1636,2
DA:1637,2
DA:1638,2
DA:1639,2
DA:1640,1
DA:1641,1
DA:1642,2
DA:1643,2
DA:1644,2
DA:1645,2
DA:1646,2
DA:1647,2
DA:1649,1
DA:1650,1
DA:1655,1
DA:1656,1
DA:1657,2
DA:1658,2
DA:1659,2
DA:1660,2
DA:1661,1
DA:1662,1
DA:1663,2
DA:1664,2
DA:1665,2
DA:1666,2
DA:1667,2
DA:1668,2
DA:1670,1
DA:1671,2
DA:1672,2
DA:1673,2
DA:1674,2
DA:1675,2
DA:1676,1
DA:1677,1
DA:1678,2
DA:1679,2
DA:1680,2
DA:1681,2
DA:1682,2
DA:1683,2
DA:1685,1
DA:1686,1
DA:1691,1
DA:1692,1
DA:1693,2
DA:1694,2
DA:1695,2
DA:1696,2
DA:1697,1
DA:1698,1
DA:1699,2
DA:1700,2
DA:1701,2
DA:1702,2
DA:1703,2
DA:1704,2
DA:1706,1
DA:1707,2
DA:1708,2
DA:1709,2
DA:1710,2
DA:1711,2
DA:1712,1
DA:1713,1
DA:1714,2
DA:1715,2
DA:1716,2
DA:1717,2
DA:1718,2
DA:1719,2
DA:1721,1
DA:1722,1
DA:1727,1
DA:1728,1
DA:1729,2
DA:1730,2
DA:1731,2
DA:1732,2
DA:1733,1
DA:1734,1
DA:1735,2
DA:1736,2
DA:1737,2
DA:1738,2
DA:1739,2
DA:1740,2
DA:1742,1
DA:1743,2
DA:1744,2
DA:1745,2
DA:1746,2
DA:1747,2
DA:1748,1
DA:1749,1
DA:1750,2
DA:1751,2
DA:1752,2
DA:1753,2
DA:1754,2
DA:1755,2
DA:1757,1
DA:1758,1
DA:1759,1
DA:1761,1
DA:1762,1
DA:1763,1
DA:1768,1
DA:1769,1
DA:1771,1
DA:1772,1
DA:1773,2
DA:1774,2
DA:1775,2
DA:1776,2
DA:1777,1
DA:1778,1
DA:1779,2
DA:1780,2
DA:1781,2
DA:1782,2
DA:1783,2
DA:1784,2
DA:1786,1
DA:1787,2
DA:1788,2
DA:1789,2
DA:1790,2
DA:1791,2
DA:1792,1
DA:1793,1
DA:1794,2
DA:1795,2
DA:1796,2
DA:1797,2
DA:1798,2
DA:1799,2
DA:1801,1
DA:1802,1
DA:1807,1
DA:1808,1
DA:1809,2
DA:1810,2
DA:1811,2
DA:1812,2
DA:1813,1
DA:1814,1
DA:1815,2
DA:1816,2
DA:1817,2
DA:1818,2
DA:1819,2
DA:1820,2
DA:1822,1
DA:1823,2
DA:1824,2
DA:1825,2
DA:1826,2
DA:1827,2
DA:1828,1
DA:1829,1
DA:1830,2
DA:1831,2
DA:1832,2
DA:1833,2
DA:1834,2
DA:1835,2
DA:1837,1
DA:1838,1
DA:1843,1
DA:1844,1
DA:1845,2
DA:1846,2
DA:1847,2
DA:1848,2
DA:1849,1
DA:1850,1
DA:1851,2
DA:1852,2
DA:1853,2
DA:1854,2
DA:1855,2
DA:1856,2
DA:1858,1
DA:1859,2
DA:1860,2
DA:1861,2
DA:1862,2
DA:1863,2
DA:1864,1
DA:1865,1
DA:1866,2
DA:1867,2
DA:1868,2
DA:1869,2
DA:1870,2
DA:1871,2
DA:1873,1
DA:1874,1
DA:1879,1
DA:1880,1
DA:1881,2
DA:1882,2
DA:1883,2
DA:1884,2
DA:1885,1
DA:1886,1
DA:1887,2
DA:1888,2
DA:1889,2
DA:1890,2
DA:1891,2
DA:1892,2
DA:1894,1
DA:1895,2
DA:1896,2
DA:1897,2
DA:1898,2
DA:1899,2
DA:1900,1
DA:1901,1
DA:1902,2
DA:1903,2
DA:1904,2
DA:1905,2
DA:1906,2
DA:1907,2
DA:1909,1
DA:1910,1
DA:1911,1
DA:1913,1
DA:1914,1
DA:1917,1
DA:1921,1
DA:1922,1
DA:1924,1
DA:1925,1
DA:1926,2
DA:1927,2
DA:1928,2
DA:1929,2
DA:1930,1
DA:1931,1
DA:1932,2
DA:1933,2
DA:1934,2
DA:1935,2
DA:1937,1
DA:1938,2
DA:1939,2
DA:1940,2
DA:1941,2
DA:1942,2
DA:1943,1
DA:1944,1
DA:1945,2
DA:1946,2
DA:1947,2
DA:1948,2
DA:1950,1
DA:1951,1
DA:1956,1
DA:1957,1
DA:1958,2
DA:1959,2
DA:1960,2
DA:1961,2
DA:1962,1
DA:1963,1
DA:1964,2
DA:1965,2
DA:1966,2
DA:1967,2
DA:1969,1
DA:1970,2
DA:1971,2
DA:1972,2
DA:1973,2
DA:1974,2
DA:1975,1
DA:1976,1
DA:1977,2
DA:1978,2
DA:1979,2
DA:1980,2
DA:1982,1
DA:1983,1
DA:1987,1
DA:1988,1
DA:1989,2
DA:1990,2
DA:1991,2
DA:1992,2
DA:1993,1
DA:1994,1
DA:1995,2
DA:1996,2
DA:1997,2
DA:1998,2
DA:2000,1
DA:2001,2
DA:2002,2
DA:2003,2
DA:2004,2
DA:2005,2
DA:2006,1
DA:2007,1
DA:2008,2
DA:2009,2
DA:2010,2
DA:2011,2
DA:2013,1
DA:2014,1
DA:2019,1
DA:2020,1
DA:2021,2
DA:2022,2
DA:2023,2
DA:2024,2
DA:2025,1
DA:2026,1
DA:2027,2
DA:2028,2
DA:2029,2
DA:2030,2
DA:2032,1
DA:2033,2
DA:2034,2
DA:2035,2
DA:2036,2
DA:2037,2
DA:2038,1
DA:2039,1
DA:2040,2
DA:2041,2
DA:2042,2
DA:2043,2
DA:2045,1
DA:2046,1
DA:2048,1
DA:2049,1
DA:2050,1
DA:2057,1
DA:2058,1
DA:2060,1
DA:2061,1
DA:2062,2
DA:2063,2
DA:2064,2
DA:2065,2
DA:2066,1
DA:2067,1
DA:2068,2
DA:2069,2
DA:2070,2
DA:2072,1
DA:2073,2
DA:2074,2
DA:2075,2
DA:2076,2
DA:2077,2
DA:2078,1
DA:2079,1
DA:2080,2
DA:2081,2
DA:2082,2
DA:2084,1
DA:2085,1
DA:2088,1
DA:2089,1
DA:2090,2
DA:2091,2
DA:2092,2
DA:2093,2
DA:2094,1
DA:2095,1
DA:2096,2
DA:2097,2
DA:2098,2
DA:2100,1
DA:2101,2
DA:2102,2
DA:2103,2
DA:2104,2
DA:2105,2
DA:2106,1
DA:2107,1
DA:2108,2
DA:2109,2
DA:2110,2
DA:2112,1
DA:2113,1
DA:2114,1
DA:2116,1
DA:2117,1
DA:2118,1
DA:2123,1
DA:2124,1
DA:2126,1
DA:2127,1
DA:2128,2
DA:2129,2
DA:2130,2
DA:2131,2
DA:2132,1
DA:2133,1
DA:2134,2
DA:2135,2
DA:2136,2
DA:2137,2
DA:2138,2
DA:2139,2
DA:2140,2
DA:2142,1
DA:2143,2
DA:2144,2
DA:2145,2
DA:2146,2
DA:2147,2
DA:2148,1
DA:2149,1
DA:2150,2
DA:2151,2
DA:2152,2
DA:2153,2
DA:2154,2
DA:2155,2
DA:2156,2
DA:2158,1
DA:2159,1
DA:2160,1
DA:2162,1
DA:2163,1
DA:2164,1
DA:2169,1
DA:2170,1
DA:2172,1
DA:2173,1
DA:2174,2
DA:2175,2
DA:2176,2
DA:2177,2
DA:2178,1
DA:2179,1
DA:2180,2
DA:2181,2
DA:2182,2
DA:2183,2
DA:2185,1
DA:2186,2
DA:2187,2
DA:2188,2
DA:2189,2
DA:2190,2
DA:2191,1
DA:2192,1
DA:2193,2
DA:2194,2
DA:2195,2
DA:2196,2
DA:2198,1
DA:2199,1
DA:2204,1
DA:2205,1
DA:2206,2
DA:2207,2
DA:2208,2
DA:2209,2
DA:2210,1
DA:2211,1
DA:2212,2
DA:2213,2
DA:2214,2
DA:2215,2
DA:2217,1
DA:2218,2
DA:2219,2
DA:2220,2
DA:2221,2
DA:2222,2
DA:2223,1
DA:2224,1
DA:2225,2
DA:2226,2
DA:2227,2
DA:2228,2
DA:2230,1
DA:2231,1
DA:2236,1
DA:2237,1
DA:2238,2
DA:2239,2
DA:2240,2
DA:2241,2
DA:2242,1
DA:2243,1
DA:2244,2
DA:2245,2
DA:2246,2
DA:2247,2
DA:2249,1
DA:2250,2
DA:2251,2
DA:2252,2
DA:2253,2
DA:2254,2
DA:2255,1
DA:2256,1
DA:2257,2
DA:2258,2
DA:2259,2
DA:2260,2
DA:2262,1
DA:2263,1
DA:2268,1
DA:2269,1
DA:2270,2
DA:2271,2
DA:2272,2
DA:2273,2
DA:2274,1
DA:2275,1
DA:2276,2
DA:2277,2
DA:2278,2
DA:2279,2
DA:2281,1
DA:2282,2
DA:2283,2
DA:2284,2
DA:2285,2
DA:2286,2
DA:2287,1
DA:2288,1
DA:2289,2
DA:2290,2
DA:2291,2
DA:2292,2
DA:2294,1
DA:2295,1
DA:2296,1
DA:2298,1
DA:2299,1
DA:2300,1
DA:2306,1
DA:2307,1
DA:2309,1
DA:2310,1
DA:2311,2
DA:2312,2
DA:2313,2
DA:2314,2
DA:2315,1
DA:2316,1
DA:2317,2
DA:2318,2
DA:2319,2
DA:2320,2
DA:2322,1
DA:2323,2
DA:2324,2
DA:2325,2
DA:2326,2
DA:2327,2
DA:2328,1
DA:2329,1
DA:2330,2
DA:2331,2
DA:2332,2
DA:2333,2
DA:2335,1
DA:2336,1
DA:2340,1
DA:2341,1
DA:2342,2
DA:2343,2
DA:2344,2
DA:2345,2
DA:2346,1
DA:2347,1
DA:2348,2
DA:2349,2
DA:2350,2
DA:2351,2
DA:2353,1
DA:2354,2
DA:2355,2
DA:2356,2
DA:2357,2
DA:2358,2
DA:2359,1
DA:2360,1
DA:2361,2
DA:2362,2
DA:2363,2
DA:2364,2
DA:2366,1
DA:2367,1
DA:2373,1
DA:2374,1
DA:2375,2
DA:2376,2
DA:2377,2
DA:2378,2
DA:2379,1
DA:2380,1
DA:2381,2
DA:2382,2
DA:2383,2
DA:2384,2
DA:2386,1
DA:2387,2
DA:2388,2
DA:2389,2
DA:2390,2
DA:2391,2
DA:2392,1
DA:2393,1
DA:2394,2
DA:2395,2
DA:2396,2
DA:2397,2
DA:2399,1
DA:2400,1
DA:2404,1
DA:2405,1
DA:2406,2
DA:2407,2
DA:2408,2
DA:2409,2
DA:2410,1
DA:2411,1
DA:2412,2
DA:2413,2
DA:2414,2
DA:2415,2
DA:2417,1
DA:2418,2
DA:2419,2
DA:2420,2
DA:2421,2
DA:2422,2
DA:2423,1
DA:2424,1
DA:2425,2
DA:2426,2
DA:2427,2
DA:2428,2
DA:2430,1
DA:2431,1
DA:2432,1
DA:2433,1
DA:2435,1
DA:2441,1
DA:2442,2
DA:2443,2
DA:2444,2
DA:2445,2
DA:2446,2
DA:2447,1
DA:2448,1
DA:2449,2
DA:2450,2
DA:2451,2
DA:2452,2
DA:2454,1
DA:2455,2
DA:2456,2
DA:2457,2
DA:2458,2
DA:2459,2
DA:2460,1
DA:2461,1
DA:2462,2
DA:2463,2
DA:2464,2
DA:2465,2
DA:2467,1
DA:2468,1
DA:2472,1
DA:2473,1
DA:2474,2
DA:2475,2
DA:2476,2
DA:2477,2
DA:2478,1
DA:2479,1
DA:2480,2
DA:2481,2
DA:2482,2
DA:2483,2
DA:2485,1
DA:2486,2
DA:2487,2
DA:2488,2
DA:2489,2
DA:2490,2
DA:2491,1
DA:2492,1
DA:2493,2
DA:2494,2
DA:2495,2
DA:2496,2
DA:2498,1
DA:2499,1
DA:2505,1
DA:2506,1
DA:2507,2
DA:2508,2
DA:2509,2
DA:2510,2
DA:2511,1
DA:2512,1
DA:2513,2
DA:2514,2
DA:2515,2
DA:2516,2
DA:2518,1
DA:2519,2
DA:2520,2
DA:2521,2
DA:2522,2
DA:2523,2
DA:2524,1
DA:2525,1
DA:2526,2
DA:2527,2
DA:2528,2
DA:2529,2
DA:2531,1
DA:2532,1
DA:2536,1
DA:2537,1
DA:2538,2
DA:2539,2
DA:2540,2
DA:2541,2
DA:2542,1
DA:2543,1
DA:2544,2
DA:2545,2
DA:2546,2
DA:2547,2
DA:2549,1
DA:2550,2
DA:2551,2
DA:2552,2
DA:2553,2
DA:2554,2
DA:2555,1
DA:2556,1
DA:2557,2
DA:2558,2
DA:2559,2
DA:2560,2
DA:2562,1
DA:2563,1
DA:2564,1
DA:2566,1
DA:2567,1
DA:2568,1
DA:2573,1
DA:2574,1
DA:2576,1
DA:2577,1
DA:2578,2
DA:2579,2
DA:2580,2
DA:2581,2
DA:2582,1
DA:2583,1
DA:2584,2
DA:2585,2
DA:2586,2
DA:2587,2
DA:2588,2
DA:2590,1
DA:2591,2
DA:2592,2
DA:2593,2
DA:2594,2
DA:2595,2
DA:2596,1
DA:2597,1
DA:2598,2
DA:2599,2
DA:2600,2
DA:2601,2
DA:2602,2
DA:2604,1
DA:2605,1
DA:2610,1
DA:2611,1
DA:2612,2
DA:2613,2
DA:2614,2
DA:2615,2
DA:2616,1
DA:2617,1
DA:2618,2
DA:2619,2
DA:2620,2
DA:2621,2
DA:2622,2
DA:2624,1
DA:2625,2
DA:2626,2
DA:2627,2
DA:2628,2
DA:2629,2
DA:2630,1
DA:2631,1
DA:2632,2
DA:2633,2
DA:2634,2
DA:2635,2
DA:2636,2
DA:2638,1
DA:2639,1
DA:2644,1
DA:2645,1
DA:2646,2
DA:2647,2
DA:2648,2
DA:2649,2
DA:2650,1
DA:2651,1
DA:2652,2
DA:2653,2
DA:2654,2
DA:2655,2
DA:2656,2
DA:2658,1
DA:2659,2
DA:2660,2
DA:2661,2
DA:2662,2
DA:2663,2
DA:2664,1
DA:2665,1
DA:2666,2
DA:2667,2
DA:2668,2
DA:2669,2
DA:2670,2
DA:2672,1
DA:2673,1
DA:2678,1
DA:2679,1
DA:2680,2
DA:2681,2
DA:2682,2
DA:2683,2
DA:2684,1
DA:2685,1
DA:2686,2
DA:2687,2
DA:2688,2
DA:2689,2
DA:2690,2
DA:2692,1
DA:2693,2
DA:2694,2
DA:2695,2
DA:2696,2
DA:2697,2
DA:2698,1
DA:2699,1
DA:2700,2
DA:2701,2
DA:2702,2
DA:2703,2
DA:2704,2
DA:2706,1
DA:2707,1
DA:2708,1
DA:2710,1
DA:2711,1
DA:2712,1
DA:2717,1
DA:2718,1
DA:2720,1
DA:2721,1
DA:2722,2
DA:2723,2
DA:2724,2
DA:2725,2
DA:2726,1
DA:2727,1
DA:2728,2
DA:2729,2
DA:2730,2
DA:2731,2
DA:2733,1
DA:2734,2
DA:2735,2
DA:2736,2
DA:2737,2
DA:2738,2
DA:2739,1
DA:2740,1
DA:2741,2
DA:2742,2
DA:2743,2
DA:2744,2
DA:2746,1
DA:2747,1
DA:2751,1
DA:2752,1
DA:2753,2
DA:2754,2
DA:2755,2
DA:2756,2
DA:2757,1
DA:2758,1
DA:2759,2
DA:2760,2
DA:2761,2
DA:2762,2
DA:2764,1
DA:2765,2
DA:2766,2
DA:2767,2
DA:2768,2
DA:2769,2
DA:2770,1
DA:2771,1
DA:2772,2
DA:2773,2
DA:2774,2
DA:2775,2
DA:2777,1
DA:2778,1
DA:2783,1
DA:2784,1
DA:2785,2
DA:2786,2
DA:2787,2
DA:2788,2
DA:2789,1
DA:2790,1
DA:2791,2
DA:2792,2
DA:2793,2
DA:2794,2
DA:2796,1
DA:2797,2
DA:2798,2
DA:2799,2
DA:2800,2
DA:2801,2
DA:2802,1
DA:2803,1
DA:2804,2
DA:2805,2
DA:2806,2
DA:2807,2
DA:2809,1
DA:2810,1
DA:2814,1
DA:2815,1
DA:2816,2
DA:2817,2
DA:2818,2
DA:2819,2
DA:2820,1
DA:2821,1
DA:2822,2
DA:2823,2
DA:2824,2
DA:2825,2
DA:2827,1
DA:2828,2
DA:2829,2
DA:2830,2
DA:2831,2
DA:2832,2
DA:2833,1
DA:2834,1
DA:2835,2
DA:2836,2
DA:2837,2
DA:2838,2
DA:2840,1
DA:2841,1
DA:2842,1
DA:2844,1
DA:2850,1
DA:2851,2
DA:2852,2
DA:2853,2
DA:2854,2
DA:2855,2
DA:2856,1
DA:2857,1
DA:2858,2
DA:2859,2
DA:2860,2
DA:2861,2
DA:2863,1
DA:2864,2
DA:2865,2
DA:2866,2
DA:2867,2
DA:2868,2
DA:2869,1
DA:2870,1
DA:2871,2
DA:2872,2
DA:2873,2
DA:2874,2
DA:2876,1
DA:2877,1
DA:2881,1
DA:2882,1
DA:2883,2
DA:2884,2
DA:2885,2
DA:2886,2
DA:2887,1
DA:2888,1
DA:2889,2
DA:2890,2
DA:2891,2
DA:2892,2
DA:2894,1
DA:2895,2
DA:2896,2
DA:2897,2
DA:2898,2
DA:2899,2
DA:2900,1
DA:2901,1
DA:2902,2
DA:2903,2
DA:2904,2
DA:2905,2
DA:2907,1
DA:2908,1
DA:2913,1
DA:2914,1
DA:2915,2
DA:2916,2
DA:2917,2
DA:2918,2
DA:2919,1
DA:2920,1
DA:2921,2
DA:2922,2
DA:2923,2
DA:2924,2
DA:2926,1
DA:2927,2
DA:2928,2
DA:2929,2
DA:2930,2
DA:2931,2
DA:2932,1
DA:2933,1
DA:2934,2
DA:2935,2
DA:2936,2
DA:2937,2
DA:2939,1
DA:2940,1
DA:2944,1
DA:2945,1
DA:2946,2
DA:2947,2
DA:2948,2
DA:2949,2
DA:2950,1
DA:2951,1
DA:2952,2
DA:2953,2
DA:2954,2
DA:2955,2
DA:2957,1
DA:2958,2
DA:2959,2
DA:2960,2
DA:2961,2
DA:2962,2
DA:2963,1
DA:2964,1
DA:2965,2
DA:2966,2
DA:2967,2
DA:2968,2
DA:2970,1
DA:2971,1
DA:2972,1
DA:2974,1
DA:2975,1
DA:2977,1
DA:2981,1
DA:2982,1
DA:2984,1
DA:2985,1
DA:2986,2
DA:2987,2
DA:2988,2
DA:2989,2
DA:2990,1
DA:2991,1
DA:2992,2
DA:2993,2
DA:2994,2
DA:2995,2
DA:2996,2
DA:2998,1
DA:2999,2
DA:3000,2
DA:3001,2
DA:3002,2
DA:3003,2
DA:3004,1
DA:3005,1
DA:3006,2
DA:3007,2
DA:3008,2
DA:3009,2
DA:3010,2
DA:3012,1
DA:3013,1
DA:3019,1
DA:3020,1
DA:3021,2
DA:3022,2
DA:3023,2
DA:3024,2
DA:3025,1
DA:3026,1
DA:3027,2
DA:3028,2
DA:3029,2
DA:3030,2
DA:3031,2
DA:3033,1
DA:3034,2
DA:3035,2
DA:3036,2
DA:3037,2
DA:3038,2
DA:3039,1
DA:3040,1
DA:3041,2
DA:3042,2
DA:3043,2
DA:3044,2
DA:3045,2
DA:3047,1
DA:3048,1
DA:3052,1
DA:3053,1
DA:3054,2
DA:3055,2
DA:3056,2
DA:3057,2
DA:3058,1
DA:3059,1
DA:3060,2
DA:3061,2
DA:3062,2
DA:3063,2
DA:3064,2
DA:3066,1
DA:3067,2
DA:3068,2
DA:3069,2
DA:3070,2
DA:3071,2
DA:3072,1
DA:3073,1
DA:3074,2
DA:3075,2
DA:3076,2
DA:3077,2
DA:3078,2
DA:3080,1
DA:3081,1
DA:3087,1
DA:3088,1
DA:3089,2
DA:3090,2
DA:3091,2
DA:3092,2
DA:3093,1
DA:3094,1
DA:3095,2
DA:3096,2
DA:3097,2
DA:3098,2
DA:3099,2
DA:3101,1
DA:3102,2
DA:3103,2
DA:3104,2
DA:3105,2
DA:3106,2
DA:3107,1
DA:3108,1
DA:3109,2
DA:3110,2
DA:3111,2
DA:3112,2
DA:3113,2
DA:3115,1
DA:3116,1
DA:3117,1
DA:3119,1
DA:3124,1
DA:3125,2
DA:3126,2
DA:3127,2
DA:3128,2
DA:3129,2
DA:3130,1
DA:3131,1
DA:3132,2
DA:3133,2
DA:3134,2
DA:3135,2
DA:3136,2
DA:3138,1
DA:3139,2
DA:3140,2
DA:3141,2
DA:3142,2
DA:3143,2
DA:3144,1
DA:3145,1
DA:3146,2
DA:3147,2
DA:3148,2
DA:3149,2
DA:3150,2
DA:3152,1
DA:3153,1
DA:3159,1
DA:3160,1
DA:3161,2
DA:3162,2
DA:3163,2
DA:3164,2
DA:3165,1
DA:3166,1
DA:3167,2
DA:3168,2
DA:3169,2
DA:3170,2
DA:3171,2
DA:3173,1
DA:3174,2
DA:3175,2
DA:3176,2
DA:3177,2
DA:3178,2
DA:3179,1
DA:3180,1
DA:3181,2
DA:3182,2
DA:3183,2
DA:3184,2
DA:3185,2
DA:3187,1
DA:3188,1
DA:3192,1
DA:3193,1
DA:3194,2
DA:3195,2
DA:3196,2
DA:3197,2
DA:3198,1
DA:3199,1
DA:3200,2
DA:3201,2
DA:3202,2
DA:3203,2
DA:3204,2
DA:3206,1
DA:3207,2
DA:3208,2
DA:3209,2
DA:3210,2
DA:3211,2
DA:3212,1
DA:3213,1
DA:3214,2
DA:3215,2
DA:3216,2
DA:3217,2
DA:3218,2
DA:3220,1
DA:3221,1
DA:3227,1
DA:3228,1
DA:3229,2
DA:3230,2
DA:3231,2
DA:3232,2
DA:3233,1
DA:3234,1
DA:3235,2
DA:3236,2
DA:3237,2
DA:3238,2
DA:3239,2
DA:3241,1
DA:3242,2
DA:3243,2
DA:3244,2
DA:3245,2
DA:3246,2
DA:3247,1
DA:3248,1
DA:3249,2
DA:3250,2
DA:3251,2
DA:3252,2
DA:3253,2
DA:3255,1
DA:3256,1
DA:3257,1
DA:3259,1
DA:3260,1
DA:3261,1
DA:3267,1
DA:3268,1
DA:3270,1
DA:3271,1
DA:3272,2
DA:3273,2
DA:3274,2
DA:3275,2
DA:3276,1
DA:3277,1
DA:3278,2
DA:3279,2
DA:3280,2
DA:3281,2
DA:3282,2
DA:3284,1
DA:3285,2
DA:3286,2
DA:3287,2
DA:3288,2
DA:3289,2
DA:3290,1
DA:3291,1
DA:3292,2
DA:3293,2
DA:3294,2
DA:3295,2
DA:3296,2
DA:3298,1
DA:3299,1
DA:3303,1
DA:3304,1
DA:3305,2
DA:3306,2
DA:3307,2
DA:3308,2
DA:3309,1
DA:3310,1
DA:3311,2
DA:3312,2
DA:3313,2
DA:3314,2
DA:3315,2
DA:3317,1
DA:3318,2
DA:3319,2
DA:3320,2
DA:3321,2
DA:3322,2
DA:3323,1
DA:3324,1
DA:3325,2
DA:3326,2
DA:3327,2
DA:3328,2
DA:3329,2
DA:3331,1
DA:3332,1
DA:3338,1
DA:3339,1
DA:3340,2
DA:3341,2
DA:3342,2
DA:3343,2
DA:3344,1
DA:3345,1
DA:3346,2
DA:3347,2
DA:3348,2
DA:3349,2
DA:3350,2
DA:3352,1
DA:3353,2
DA:3354,2
DA:3355,2
DA:3356,2
DA:3357,2
DA:3358,1
DA:3359,1
DA:3360,2
DA:3361,2
DA:3362,2
DA:3363,2
DA:3364,2
DA:3366,1
DA:3367,1
DA:3371,1
DA:3372,1
DA:3373,2
DA:3374,2
DA:3375,2
DA:3376,2
DA:3377,1
DA:3378,1
DA:3379,2
DA:3380,2
DA:3381,2
DA:3382,2
DA:3383,2
DA:3385,1
DA:3386,2
DA:3387,2
DA:3388,2
DA:3389,2
DA:3390,2
DA:3391,1
DA:3392,1
DA:3393,2
DA:3394,2
DA:3395,2
DA:3396,2
DA:3397,2
DA:3399,1
DA:3400,1
DA:3401,1
DA:3403,1
DA:3409,1
DA:3410,2
DA:3411,2
DA:3412,2
DA:3413,2
DA:3414,2
DA:3415,1
DA:3416,1
DA:3417,2
DA:3418,2
DA:3419,2
DA:3420,2
DA:3421,2
DA:3423,1
DA:3424,2
DA:3425,2
DA:3426,2
DA:3427,2
DA:3428,2
DA:3429,1
DA:3430,1
DA:3431,2
DA:3432,2
DA:3433,2
DA:3434,2
DA:3435,2
DA:3437,1
DA:3438,1
DA:3442,1
DA:3443,1
DA:3444,2
DA:3445,2
DA:3446,2
DA:3447,2
DA:3448,1
DA:3449,1
DA:3450,2
DA:3451,2
DA:3452,2
DA:3453,2
DA:3454,2
DA:3456,1
DA:3457,2
DA:3458,2
DA:3459,2
DA:3460,2
DA:3461,2
DA:3462,1
DA:3463,1
DA:3464,2
DA:3465,2
DA:3466,2
DA:3467,2
DA:3468,2
DA:3470,1
DA:3471,1
DA:3477,1
DA:3478,1
DA:3479,2
DA:3480,2
DA:3481,2
DA:3482,2
DA:3483,1
DA:3484,1
DA:3485,2
DA:3486,2
DA:3487,2
DA:3488,2
DA:3489,2
DA:3491,1
DA:3492,2
DA:3493,2
DA:3494,2
DA:3495,2
DA:3496,2
DA:3497,1
DA:3498,1
DA:3499,2
DA:3500,2
DA:3501,2
DA:3502,2
DA:3503,2
DA:3505,1
DA:3506,1
DA:3510,1
DA:3511,1
DA:3512,2
DA:3513,2
DA:3514,2
DA:3515,2
DA:3516,1
DA:3517,1
DA:3518,2
DA:3519,2
DA:3520,2
DA:3521,2
DA:3522,2
DA:3524,1
DA:3525,2
DA:3526,2
DA:3527,2
DA:3528,2
DA:3529,2
DA:3530,1
DA:3531,1
DA:3532,2
DA:3533,2
DA:3534,2
DA:3535,2
DA:3536,2
DA:3538,1
DA:3539,1
DA:3540,1
DA:3542,1
DA:3543,4
BA:41,0
BA:41,0
BA:41,1
BA:41,2
BA:41,0
BA:41,0
BA:60,1
BA:60,2
BA:61,1
BA:61,2
BA:80,1
BA:80,2
BA:86,2
BA:86,2
BA:88,1
BA:88,2
BA:93,2
BA:93,2
BA:95,2
BA:95,2
BA:98,2
BA:98,2
BA:100,1
BA:100,2
BA:114,2
BA:114,2
BA:134,2
BA:134,2
BA:157,1
BA:157,2
BA:167,2
BA:167,2
BA:190,2
BA:190,2
BA:208,2
BA:208,1
BA:213,1
BA:213,2
BA:366,2
BA:366,2
BA:368,2
BA:368,2
BA:371,2
BA:371,2
BA:385,1
BA:385,2
BA:389,2
BA:389,2
BA:396,2
BA:396,2
BA:405,1
BA:405,2
BA:437,1
BA:437,2
BA:438,1
BA:438,2
BA:439,2
BA:439,1
BA:440,2
BA:440,1
BA:441,2
BA:441,1
BA:442,2
BA:442,1
BA:445,2
BA:445,1
BA:446,1
BA:446,2
BA:447,1
BA:447,2
BA:448,1
BA:448,2
BA:449,1
BA:449,2
BA:450,1
BA:450,2
BA:455,1
BA:455,2
BA:456,1
BA:456,2
BA:468,1
BA:468,2
BA:469,1
BA:469,2
BA:470,1
BA:470,2
BA:471,2
BA:471,1
BA:472,2
BA:472,1
BA:473,2
BA:473,1
BA:474,2
BA:474,1
BA:477,2
BA:477,1
BA:478,2
BA:478,1
BA:479,1
BA:479,2
BA:480,1
BA:480,2
BA:481,1
BA:481,2
BA:482,1
BA:482,2
BA:483,1
BA:483,2
BA:487,1
BA:487,2
BA:492,1
BA:492,2
BA:493,1
BA:493,2
BA:494,1
BA:494,2
BA:495,2
BA:495,1
BA:496,2
BA:496,1
BA:497,2
BA:497,1
BA:498,2
BA:498,1
BA:501,2
BA:501,1
BA:502,2
BA:502,1
BA:503,1
BA:503,2
BA:504,1
BA:504,2
BA:505,1
BA:505,2
BA:506,1
BA:506,2
BA:507,1
BA:507,2
BA:511,1
BA:511,2
BA:512,1
BA:512,2
BA:524,1
BA:524,2
BA:525,1
BA:525,2
BA:526,1
BA:526,2
BA:527,1
BA:527,2
BA:528,2
BA:528,1
BA:529,2
BA:529,1
BA:530,2
BA:530,1
BA:531,2
BA:531,1
BA:534,2
BA:534,1
BA:535,2
BA:535,1
BA:536,2
BA:536,1
BA:537,1
BA:537,2
BA:538,1
BA:538,2
BA:539,1
BA:539,2
BA:540,1
BA:540,2
BA:541,1
BA:541,2
BA:545,1
BA:545,2
BA:551,1
BA:551,2
BA:552,1
BA:552,2
BA:553,1
BA:553,2
BA:554,1
BA:554,2
BA:555,2
BA:555,1
BA:556,2
BA:556,1
BA:557,2
BA:557,1
BA:558,2
BA:558,1
BA:561,2
BA:561,1
BA:562,2
BA:562,1
BA:563,2
BA:563,1
BA:564,1
BA:564,2
BA:565,1
BA:565,2
BA:566,1
BA:566,2
BA:567,1
BA:567,2
BA:568,1
BA:568,2
BA:572,1
BA:572,2
BA:573,1
BA:573,2
BA:585,1
BA:585,2
BA:586,1
BA:586,2
BA:587,1
BA:587,2
BA:588,1
BA:588,2
BA:589,2
BA:589,1
BA:590,2
BA:590,1
BA:591,2
BA:591,1
BA:592,2
BA:592,1
BA:593,2
BA:593,1
BA:596,2
BA:596,1
BA:597,2
BA:597,1
BA:598,2
BA:598,1
BA:599,1
BA:599,2
BA:600,1
BA:600,2
BA:601,1
BA:601,2
BA:602,1
BA:602,2
BA:603,1
BA:603,2
BA:604,1
BA:604,2
BA:608,1
BA:608,2
BA:613,1
BA:613,2
BA:614,1
BA:614,2
BA:615,1
BA:615,2
BA:616,1
BA:616,2
BA:617,2
BA:617,1
BA:618,2
BA:618,1
BA:619,2
BA:619,1
BA:620,2
BA:620,1
BA:621,2
BA:621,1
BA:624,2
BA:624,1
BA:625,2
BA:625,1
BA:626,2
BA:626,1
BA:627,1
BA:627,2
BA:628,1
BA:628,2
BA:629,1
BA:629,2
BA:630,1
BA:630,2
BA:631,1
BA:631,2
BA:632,1
BA:632,2
BA:636,1
BA:636,2
BA:641,1
BA:641,2
BA:642,1
BA:642,2
BA:643,1
BA:643,2
BA:644,1
BA:644,2
BA:645,2
BA:645,1
BA:646,2
BA:646,1
BA:647,2
BA:647,1
BA:648,2
BA:648,1
BA:649,2
BA:649,1
BA:652,2
BA:652,1
BA:653,2
BA:653,1
BA:654,2
BA:654,1
BA:655,1
BA:655,2
BA:656,1
BA:656,2
BA:657,1
BA:657,2
BA:658,1
BA:658,2
BA:659,1
BA:659,2
BA:660,1
BA:660,2
BA:664,1
BA:664,2
BA:669,1
BA:669,2
BA:670,1
BA:670,2
BA:671,1
BA:671,2
BA:672,1
BA:672,2
BA:673,2
BA:673,1
BA:674,2
BA:674,1
BA:675,2
BA:675,1
BA:676,2
BA:676,1
BA:677,2
BA:677,1
BA:680,2
BA:680,1
BA:681,2
BA:681,1
BA:682,2
BA:682,1
BA:683,1
BA:683,2
BA:684,1
BA:684,2
BA:685,1
BA:685,2
BA:686,1
BA:686,2
BA:687,1
BA:687,2
BA:688,1
BA:688,2
BA:692,1
BA:692,2
BA:693,1
BA:693,2
BA:704,1
BA:704,2
BA:705,1
BA:705,2
BA:706,1
BA:706,2
BA:707,1
BA:707,2
BA:708,1
BA:708,2
BA:709,2
BA:709,1
BA:710,2
BA:710,1
BA:711,2
BA:711,1
BA:712,2
BA:712,1
BA:715,2
BA:715,1
BA:716,2
BA:716,1
BA:717,2
BA:717,1
BA:718,2
BA:718,1
BA:719,1
BA:719,2
BA:720,1
BA:720,2
BA:721,1
BA:721,2
BA:722,1
BA:722,2
BA:723,1
BA:723,2
BA:726,1
BA:726,2
BA:733,1
BA:733,2
BA:734,1
BA:734,2
BA:735,1
BA:735,2
BA:736,1
BA:736,2
BA:737,1
BA:737,2
BA:738,2
BA:738,1
BA:739,2
BA:739,1
BA:740,2
BA:740,1
BA:741,2
BA:741,1
BA:744,2
BA:744,1
BA:745,2
BA:745,1
BA:746,2
BA:746,1
BA:747,2
BA:747,1
BA:748,1
BA:748,2
BA:749,1
BA:749,2
BA:750,1
BA:750,2
BA:751,1
BA:751,2
BA:752,1
BA:752,2
BA:755,1
BA:755,2
BA:756,1
BA:756,2
BA:768,1
BA:768,2
BA:769,1
BA:769,2
BA:770,1
BA:770,2
BA:771,1
BA:771,2
BA:772,1
BA:772,2
BA:773,2
BA:773,1
BA:774,2
BA:774,1
BA:775,2
BA:775,1
BA:776,2
BA:776,1
BA:777,2
BA:777,1
BA:778,2
BA:778,1
BA:781,2
BA:781,1
BA:782,2
BA:782,1
BA:783,2
BA:783,1
BA:784,2
BA:784,1
BA:785,1
BA:785,2
BA:786,1
BA:786,2
BA:787,1
BA:787,2
BA:788,1
BA:788,2
BA:789,1
BA:789,2
BA:790,1
BA:790,2
BA:791,1
BA:791,2
BA:794,1
BA:794,2
BA:800,1
BA:800,2
BA:801,1
BA:801,2
BA:802,1
BA:802,2
BA:803,1
BA:803,2
BA:804,1
BA:804,2
BA:805,2
BA:805,1
BA:806,2
BA:806,1
BA:807,2
BA:807,1
BA:808,2
BA:808,1
BA:809,2
BA:809,1
BA:810,2
BA:810,1
BA:813,2
BA:813,1
BA:814,2
BA:814,1
BA:815,2
BA:815,1
BA:816,2
BA:816,1
BA:817,1
BA:817,2
BA:818,1
BA:818,2
BA:819,1
BA:819,2
BA:820,1
BA:820,2
BA:821,1
BA:821,2
BA:822,1
BA:822,2
BA:823,1
BA:823,2
BA:827,1
BA:827,2
BA:830,2
BA:830,1
BA:836,1
BA:836,2
BA:837,1
BA:837,2
BA:838,1
BA:838,2
BA:839,1
BA:839,2
BA:840,1
BA:840,2
BA:841,2
BA:841,1
BA:842,2
BA:842,1
BA:843,2
BA:843,1
BA:844,2
BA:844,1
BA:845,2
BA:845,1
BA:846,2
BA:846,1
BA:849,2
BA:849,1
BA:850,2
BA:850,1
BA:851,2
BA:851,1
BA:852,2
BA:852,1
BA:853,1
BA:853,2
BA:854,1
BA:854,2
BA:855,1
BA:855,2
BA:856,1
BA:856,2
BA:857,1
BA:857,2
BA:858,1
BA:858,2
BA:859,1
BA:859,2
BA:863,1
BA:863,2
BA:869,1
BA:869,2
BA:870,1
BA:870,2
BA:871,1
BA:871,2
BA:872,1
BA:872,2
BA:873,1
BA:873,2
BA:874,2
BA:874,1
BA:875,2
BA:875,1
BA:876,2
BA:876,1
BA:877,2
BA:877,1
BA:878,2
BA:878,1
BA:879,2
BA:879,1
BA:882,2
BA:882,1
BA:883,2
BA:883,1
BA:884,2
BA:884,1
BA:885,2
BA:885,1
BA:886,1
BA:886,2
BA:887,1
BA:887,2
BA:888,1
BA:888,2
BA:889,1
BA:889,2
BA:890,1
BA:890,2
BA:891,1
BA:891,2
BA:892,1
BA:892,2
BA:895,1
BA:895,2
BA:896,1
BA:896,2
BA:908,1
BA:908,2
BA:909,1
BA:909,2
BA:910,1
BA:910,2
BA:911,1
BA:911,2
BA:912,1
BA:912,2
BA:913,2
BA:913,1
BA:914,2
BA:914,1
BA:915,2
BA:915,1
BA:916,2
BA:916,1
BA:917,2
BA:917,1
BA:918,2
BA:918,1
BA:921,2
BA:921,1
BA:922,2
BA:922,1
BA:923,2
BA:923,1
BA:924,2
BA:924,1
BA:925,1
BA:925,2
BA:926,1
BA:926,2
BA:927,1
BA:927,2
BA:928,1
BA:928,2
BA:929,1
BA:929,2
BA:930,1
BA:930,2
BA:931,1
BA:931,2
BA:934,1
BA:934,2
BA:940,1
BA:940,2
BA:941,1
BA:941,2
BA:942,1
BA:942,2
BA:943,1
BA:943,2
BA:944,1
BA:944,2
BA:945,2
BA:945,1
BA:946,2
BA:946,1
BA:947,2
BA:947,1
BA:948,2
BA:948,1
BA:949,2
BA:949,1
BA:950,2
BA:950,1
BA:953,2
BA:953,1
BA:954,2
BA:954,1
BA:955,2
BA:955,1
BA:956,2
BA:956,1
BA:957,1
BA:957,2
BA:958,1
BA:958,2
BA:959,1
BA:959,2
BA:960,1
BA:960,2
BA:961,1
BA:961,2
BA:962,1
BA:962,2
BA:963,1
BA:963,2
BA:966,1
BA:966,2
BA:971,1
BA:971,2
BA:972,1
BA:972,2
BA:973,1
BA:973,2
BA:974,1
BA:974,2
BA:975,1
BA:975,2
BA:976,2
BA:976,1
BA:977,2
BA:977,1
BA:978,2
BA:978,1
BA:979,2
BA:979,1
BA:980,2
BA:980,1
BA:981,2
BA:981,1
BA:984,2
BA:984,1
BA:985,2
BA:985,1
BA:986,2
BA:986,1
BA:987,2
BA:987,1
BA:988,1
BA:988,2
BA:989,1
BA:989,2
BA:990,1
BA:990,2
BA:991,1
BA:991,2
BA:992,1
BA:992,2
BA:993,1
BA:993,2
BA:994,1
BA:994,2
BA:997,1
BA:997,2
BA:1003,1
BA:1003,2
BA:1004,1
BA:1004,2
BA:1005,1
BA:1005,2
BA:1006,1
BA:1006,2
BA:1007,1
BA:1007,2
BA:1008,2
BA:1008,1
BA:1009,2
BA:1009,1
BA:1010,2
BA:1010,1
BA:1011,2
BA:1011,1
BA:1012,2
BA:1012,1
BA:1013,2
BA:1013,1
BA:1016,2
BA:1016,1
BA:1017,2
BA:1017,1
BA:1018,2
BA:1018,1
BA:1019,2
BA:1019,1
BA:1020,1
BA:1020,2
BA:1021,1
BA:1021,2
BA:1022,1
BA:1022,2
BA:1023,1
BA:1023,2
BA:1024,1
BA:1024,2
BA:1025,1
BA:1025,2
BA:1026,1
BA:1026,2
BA:1029,1
BA:1029,2
BA:1030,1
BA:1030,2
BA:1042,1
BA:1042,2
BA:1043,1
BA:1043,2
BA:1044,1
BA:1044,2
BA:1045,1
BA:1045,2
BA:1046,1
BA:1046,2
BA:1047,2
BA:1047,1
BA:1048,2
BA:1048,1
BA:1049,2
BA:1049,1
BA:1050,2
BA:1050,1
BA:1051,2
BA:1051,1
BA:1054,2
BA:1054,1
BA:1055,2
BA:1055,1
BA:1056,2
BA:1056,1
BA:1057,2
BA:1057,1
BA:1058,1
BA:1058,2
BA:1059,1
BA:1059,2
BA:1060,1
BA:1060,2
BA:1061,1
BA:1061,2
BA:1062,1
BA:1062,2
BA:1063,1
BA:1063,2
BA:1066,1
BA:1066,2
BA:1072,1
BA:1072,2
BA:1073,1
BA:1073,2
BA:1074,1
BA:1074,2
BA:1075,1
BA:1075,2
BA:1076,1
BA:1076,2
BA:1077,2
BA:1077,1
BA:1078,2
BA:1078,1
BA:1079,2
BA:1079,1
BA:1080,2
BA:1080,1
BA:1081,2
BA:1081,1
BA:1084,2
BA:1084,1
BA:1085,2
BA:1085,1
BA:1086,2
BA:1086,1
BA:1087,2
BA:1087,1
BA:1088,1
BA:1088,2
BA:1089,1
BA:1089,2
BA:1090,1
BA:1090,2
BA:1091,1
BA:1091,2
BA:1092,1
BA:1092,2
BA:1093,1
BA:1093,2
BA:1096,1
BA:1096,2
BA:1101,1
BA:1101,2
BA:1102,1
BA:1102,2
BA:1103,1
BA:1103,2
BA:1104,1
BA:1104,2
BA:1105,1
BA:1105,2
BA:1106,2
BA:1106,1
BA:1107,2
BA:1107,1
BA:1108,2
BA:1108,1
BA:1109,2
BA:1109,1
BA:1110,2
BA:1110,1
BA:1113,2
BA:1113,1
BA:1114,2
BA:1114,1
BA:1115,2
BA:1115,1
BA:1116,2
BA:1116,1
BA:1117,1
BA:1117,2
BA:1118,1
BA:1118,2
BA:1119,1
BA:1119,2
BA:1120,1
BA:1120,2
BA:1121,1
BA:1121,2
BA:1122,1
BA:1122,2
BA:1125,1
BA:1125,2
BA:1131,1
BA:1131,2
BA:1132,1
BA:1132,2
BA:1133,1
BA:1133,2
BA:1134,1
BA:1134,2
BA:1135,1
BA:1135,2
BA:1136,2
BA:1136,1
BA:1137,2
BA:1137,1
BA:1138,2
BA:1138,1
BA:1139,2
BA:1139,1
BA:1140,2
BA:1140,1
BA:1143,2
BA:1143,1
BA:1144,2
BA:1144,1
BA:1145,2
BA:1145,1
BA:1146,2
BA:1146,1
BA:1147,1
BA:1147,2
BA:1148,1
BA:1148,2
BA:1149,1
BA:1149,2
BA:1150,1
BA:1150,2
BA:1151,1
BA:1151,2
BA:1152,1
BA:1152,2
BA:1155,1
BA:1155,2
BA:1158,2
BA:1158,1
BA:1163,1
BA:1163,2
BA:1164,1
BA:1164,2
BA:1165,1
BA:1165,2
BA:1166,1
BA:1166,2
BA:1167,1
BA:1167,2
BA:1168,2
BA:1168,1
BA:1169,2
BA:1169,1
BA:1170,2
BA:1170,1
BA:1171,2
BA:1171,1
BA:1172,2
BA:1172,1
BA:1175,2
BA:1175,1
BA:1176,2
BA:1176,1
BA:1177,2
BA:1177,1
BA:1178,2
BA:1178,1
BA:1179,1
BA:1179,2
BA:1180,1
BA:1180,2
BA:1181,1
BA:1181,2
BA:1182,1
BA:1182,2
BA:1183,1
BA:1183,2
BA:1184,1
BA:1184,2
BA:1187,1
BA:1187,2
BA:1193,1
BA:1193,2
BA:1194,1
BA:1194,2
BA:1195,1
BA:1195,2
BA:1196,1
BA:1196,2
BA:1197,1
BA:1197,2
BA:1198,2
BA:1198,1
BA:1199,2
BA:1199,1
BA:1200,2
BA:1200,1
BA:1201,2
BA:1201,1
BA:1202,2
BA:1202,1
BA:1205,2
BA:1205,1
BA:1206,2
BA:1206,1
BA:1207,2
BA:1207,1
BA:1208,2
BA:1208,1
BA:1209,1
BA:1209,2
BA:1210,1
BA:1210,2
BA:1211,1
BA:1211,2
BA:1212,1
BA:1212,2
BA:1213,1
BA:1213,2
BA:1214,1
BA:1214,2
BA:1217,1
BA:1217,2
BA:1222,1
BA:1222,2
BA:1223,1
BA:1223,2
BA:1224,1
BA:1224,2
BA:1225,1
BA:1225,2
BA:1226,1
BA:1226,2
BA:1227,2
BA:1227,1
BA:1228,2
BA:1228,1
BA:1229,2
BA:1229,1
BA:1230,2
BA:1230,1
BA:1231,2
BA:1231,1
BA:1234,2
BA:1234,1
BA:1235,2
BA:1235,1
BA:1236,2
BA:1236,1
BA:1237,2
BA:1237,1
BA:1238,1
BA:1238,2
BA:1239,1
BA:1239,2
BA:1240,1
BA:1240,2
BA:1241,1
BA:1241,2
BA:1242,1
BA:1242,2
BA:1243,1
BA:1243,2
BA:1246,1
BA:1246,2
BA:1252,1
BA:1252,2
BA:1253,1
BA:1253,2
BA:1254,1
BA:1254,2
BA:1255,1
BA:1255,2
BA:1256,1
BA:1256,2
BA:1257,2
BA:1257,1
BA:1258,2
BA:1258,1
BA:1259,2
BA:1259,1
BA:1260,2
BA:1260,1
BA:1261,2
BA:1261,1
BA:1264,2
BA:1264,1
BA:1265,2
BA:1265,1
BA:1266,2
BA:1266,1
BA:1267,2
BA:1267,1
BA:1268,1
BA:1268,2
BA:1269,1
BA:1269,2
BA:1270,1
BA:1270,2
BA:1271,1
BA:1271,2
BA:1272,1
BA:1272,2
BA:1273,1
BA:1273,2
BA:1276,1
BA:1276,2
BA:1277,1
BA:1277,2
BA:1289,1
BA:1289,2
BA:1290,1
BA:1290,2
BA:1291,1
BA:1291,2
BA:1292,1
BA:1292,2
BA:1293,1
BA:1293,2
BA:1294,2
BA:1294,1
BA:1295,2
BA:1295,1
BA:1296,2
BA:1296,1
BA:1297,2
BA:1297,1
BA:1300,2
BA:1300,1
BA:1301,2
BA:1301,1
BA:1302,2
BA:1302,1
BA:1303,2
BA:1303,1
BA:1304,1
BA:1304,2
BA:1305,1
BA:1305,2
BA:1306,1
BA:1306,2
BA:1307,1
BA:1307,2
BA:1308,1
BA:1308,2
BA:1311,1
BA:1311,2
BA:1312,1
BA:1312,2
BA:1325,1
BA:1325,2
BA:1326,1
BA:1326,2
BA:1327,1
BA:1327,2
BA:1328,1
BA:1328,2
BA:1329,1
BA:1329,2
BA:1330,1
BA:1330,2
BA:1331,2
BA:1331,1
BA:1332,2
BA:1332,1
BA:1333,2
BA:1333,1
BA:1334,2
BA:1334,1
BA:1335,2
BA:1335,1
BA:1336,2
BA:1336,1
BA:1339,2
BA:1339,1
BA:1340,2
BA:1340,1
BA:1341,2
BA:1341,1
BA:1342,2
BA:1342,1
BA:1343,2
BA:1343,1
BA:1344,1
BA:1344,2
BA:1345,1
BA:1345,2
BA:1346,1
BA:1346,2
BA:1347,1
BA:1347,2
BA:1348,1
BA:1348,2
BA:1349,1
BA:1349,2
BA:1350,1
BA:1350,2
BA:1353,1
BA:1353,2
BA:1359,1
BA:1359,2
BA:1360,1
BA:1360,2
BA:1361,1
BA:1361,2
BA:1362,1
BA:1362,2
BA:1363,1
BA:1363,2
BA:1364,1
BA:1364,2
BA:1365,2
BA:1365,1
BA:1366,2
BA:1366,1
BA:1367,2
BA:1367,1
BA:1368,2
BA:1368,1
BA:1369,2
BA:1369,1
BA:1370,2
BA:1370,1
BA:1373,2
BA:1373,1
BA:1374,2
BA:1374,1
BA:1375,2
BA:1375,1
BA:1376,2
BA:1376,1
BA:1377,2
BA:1377,1
BA:1378,1
BA:1378,2
BA:1379,1
BA:1379,2
BA:1380,1
BA:1380,2
BA:1381,1
BA:1381,2
BA:1382,1
BA:1382,2
BA:1383,1
BA:1383,2
BA:1384,1
BA:1384,2
BA:1387,1
BA:1387,2
BA:1390,2
BA:1390,1
BA:1396,1
BA:1396,2
BA:1397,1
BA:1397,2
BA:1398,1
BA:1398,2
BA:1399,1
BA:1399,2
BA:1400,1
BA:1400,2
BA:1401,1
BA:1401,2
BA:1402,2
BA:1402,1
BA:1403,2
BA:1403,1
BA:1404,2
BA:1404,1
BA:1405,2
BA:1405,1
BA:1406,2
BA:1406,1
BA:1407,2
BA:1407,1
BA:1410,2
BA:1410,1
BA:1411,2
BA:1411,1
BA:1412,2
BA:1412,1
BA:1413,2
BA:1413,1
BA:1414,2
BA:1414,1
BA:1415,1
BA:1415,2
BA:1416,1
BA:1416,2
BA:1417,1
BA:1417,2
BA:1418,1
BA:1418,2
BA:1419,1
BA:1419,2
BA:1420,1
BA:1420,2
BA:1421,1
BA:1421,2
BA:1424,1
BA:1424,2
BA:1430,1
BA:1430,2
BA:1431,1
BA:1431,2
BA:1432,1
BA:1432,2
BA:1433,1
BA:1433,2
BA:1434,1
BA:1434,2
BA:1435,1
BA:1435,2
BA:1436,2
BA:1436,1
BA:1437,2
BA:1437,1
BA:1438,2
BA:1438,1
BA:1439,2
BA:1439,1
BA:1440,2
BA:1440,1
BA:1441,2
BA:1441,1
BA:1444,2
BA:1444,1
BA:1445,2
BA:1445,1
BA:1446,2
BA:1446,1
BA:1447,2
BA:1447,1
BA:1448,2
BA:1448,1
BA:1449,1
BA:1449,2
BA:1450,1
BA:1450,2
BA:1451,1
BA:1451,2
BA:1452,1
BA:1452,2
BA:1453,1
BA:1453,2
BA:1454,1
BA:1454,2
BA:1455,1
BA:1455,2
BA:1458,1
BA:1458,2
BA:1459,1
BA:1459,2
BA:1472,1
BA:1472,2
BA:1473,1
BA:1473,2
BA:1474,1
BA:1474,2
BA:1475,1
BA:1475,2
BA:1476,1
BA:1476,2
BA:1477,1
BA:1477,2
BA:1478,2
BA:1478,1
BA:1479,2
BA:1479,1
BA:1480,2
BA:1480,1
BA:1481,2
BA:1481,1
BA:1482,2
BA:1482,1
BA:1483,2
BA:1483,1
BA:1484,2
BA:1484,1
BA:1487,2
BA:1487,1
BA:1488,2
BA:1488,1
BA:1489,2
BA:1489,1
BA:1490,2
BA:1490,1
BA:1491,2
BA:1491,1
BA:1492,1
BA:1492,2
BA:1493,1
BA:1493,2
BA:1494,1
BA:1494,2
BA:1495,1
BA:1495,2
BA:1496,1
BA:1496,2
BA:1497,1
BA:1497,2
BA:1498,1
BA:1498,2
BA:1499,1
BA:1499,2
BA:1502,1
BA:1502,2
BA:1508,1
BA:1508,2
BA:1509,1
BA:1509,2
BA:1510,1
BA:1510,2
BA:1511,1
BA:1511,2
BA:1512,1
BA:1512,2
BA:1513,1
BA:1513,2
BA:1514,2
BA:1514,1
BA:1515,2
BA:1515,1
BA:1516,2
BA:1516,1
BA:1517,2
BA:1517,1
BA:1518,2
BA:1518,1
BA:1519,2
BA:1519,1
BA:1520,2
BA:1520,1
BA:1523,2
BA:1523,1
BA:1524,2
BA:1524,1
BA:1525,2
BA:1525,1
BA:1526,2
BA:1526,1
BA:1527,2
BA:1527,1
BA:1528,1
BA:1528,2
BA:1529,1
BA:1529,2
BA:1530,1
BA:1530,2
BA:1531,1
BA:1531,2
BA:1532,1
BA:1532,2
BA:1533,1
BA:1533,2
BA:1534,1
BA:1534,2
BA:1535,1
BA:1535,2
BA:1538,1
BA:1538,2
BA:1544,1
BA:1544,2
BA:1545,1
BA:1545,2
BA:1546,1
BA:1546,2
BA:1547,1
BA:1547,2
BA:1548,1
BA:1548,2
BA:1549,1
BA:1549,2
BA:1550,2
BA:1550,1
BA:1551,2
BA:1551,1
BA:1552,2
BA:1552,1
BA:1553,2
BA:1553,1
BA:1554,2
BA:1554,1
BA:1555,2
BA:1555,1
BA:1556,2
BA:1556,1
BA:1559,2
BA:1559,1
BA:1560,2
BA:1560,1
BA:1561,2
BA:1561,1
BA:1562,2
BA:1562,1
BA:1563,2
BA:1563,1
BA:1564,1
BA:1564,2
BA:1565,1
BA:1565,2
BA:1566,1
BA:1566,2
BA:1567,1
BA:1567,2
BA:1568,1
BA:1568,2
BA:1569,1
BA:1569,2
BA:1570,1
BA:1570,2
BA:1571,1
BA:1571,2
BA:1574,1
BA:1574,2
BA:1580,1
BA:1580,2
BA:1581,1
BA:1581,2
BA:1582,1
BA:1582,2
BA:1583,1
BA:1583,2
BA:1584,1
BA:1584,2
BA:1585,1
BA:1585,2
BA:1586,2
BA:1586,1
BA:1587,2
BA:1587,1
BA:1588,2
BA:1588,1
BA:1589,2
BA:1589,1
BA:1590,2
BA:1590,1
BA:1591,2
BA:1591,1
BA:1592,2
BA:1592,1
BA:1595,2
BA:1595,1
BA:1596,2
BA:1596,1
BA:1597,2
BA:1597,1
BA:1598,2
BA:1598,1
BA:1599,2
BA:1599,1
BA:1600,1
BA:1600,2
BA:1601,1
BA:1601,2
BA:1602,1
BA:1602,2
BA:1603,1
BA:1603,2
BA:1604,1
BA:1604,2
BA:1605,1
BA:1605,2
BA:1606,1
BA:1606,2
BA:1607,1
BA:1607,2
BA:1611,1
BA:1611,2
BA:1614,2
BA:1614,1
BA:1620,1
BA:1620,2
BA:1621,1
BA:1621,2
BA:1622,1
BA:1622,2
BA:1623,1
BA:1623,2
BA:1624,1
BA:1624,2
BA:1625,1
BA:1625,2
BA:1626,2
BA:1626,1
BA:1627,2
BA:1627,1
BA:1628,2
BA:1628,1
BA:1629,2
BA:1629,1
BA:1630,2
BA:1630,1
BA:1631,2
BA:1631,1
BA:1632,2
BA:1632,1
BA:1635,2
BA:1635,1
BA:1636,2
BA:1636,1
BA:1637,2
BA:1637,1
BA:1638,2
BA:1638,1
BA:1639,2
BA:1639,1
BA:1640,1
BA:1640,2
BA:1641,1
BA:1641,2
BA:1642,1
BA:1642,2
BA:1643,1
BA:1643,2
BA:1644,1
BA:1644,2
BA:1645,1
BA:1645,2
BA:1646,1
BA:1646,2
BA:1647,1
BA:1647,2
BA:1650,1
BA:1650,2
BA:1656,1
BA:1656,2
BA:1657,1
BA:1657,2
BA:1658,1
BA:1658,2
BA:1659,1
BA:1659,2
BA:1660,1
BA:1660,2
BA:1661,1
BA:1661,2
BA:1662,2
BA:1662,1
BA:1663,2
BA:1663,1
BA:1664,2
BA:1664,1
BA:1665,2
BA:1665,1
BA:1666,2
BA:1666,1
BA:1667,2
BA:1667,1
BA:1668,2
BA:1668,1
BA:1671,2
BA:1671,1
BA:1672,2
BA:1672,1
BA:1673,2
BA:1673,1
BA:1674,2
BA:1674,1
BA:1675,2
BA:1675,1
BA:1676,1
BA:1676,2
BA:1677,1
BA:1677,2
BA:1678,1
BA:1678,2
BA:1679,1
BA:1679,2
BA:1680,1
BA:1680,2
BA:1681,1
BA:1681,2
BA:1682,1
BA:1682,2
BA:1683,1
BA:1683,2
BA:1686,1
BA:1686,2
BA:1692,1
BA:1692,2
BA:1693,1
BA:1693,2
BA:1694,1
BA:1694,2
BA:1695,1
BA:1695,2
BA:1696,1
BA:1696,2
BA:1697,1
BA:1697,2
BA:1698,2
BA:1698,1
BA:1699,2
BA:1699,1
BA:1700,2
BA:1700,1
BA:1701,2
BA:1701,1
BA:1702,2
BA:1702,1
BA:1703,2
BA:1703,1
BA:1704,2
BA:1704,1
BA:1707,2
BA:1707,1
BA:1708,2
BA:1708,1
BA:1709,2
BA:1709,1
BA:1710,2
BA:1710,1
BA:1711,2
BA:1711,1
BA:1712,1
BA:1712,2
BA:1713,1
BA:1713,2
BA:1714,1
BA:1714,2
BA:1715,1
BA:1715,2
BA:1716,1
BA:1716,2
BA:1717,1
BA:1717,2
BA:1718,1
BA:1718,2
BA:1719,1
BA:1719,2
BA:1722,1
BA:1722,2
BA:1728,1
BA:1728,2
BA:1729,1
BA:1729,2
BA:1730,1
BA:1730,2
BA:1731,1
BA:1731,2
BA:1732,1
BA:1732,2
BA:1733,1
BA:1733,2
BA:1734,2
BA:1734,1
BA:1735,2
BA:1735,1
BA:1736,2
BA:1736,1
BA:1737,2
BA:1737,1
BA:1738,2
BA:1738,1
BA:1739,2
BA:1739,1
BA:1740,2
BA:1740,1
BA:1743,2
BA:1743,1
BA:1744,2
BA:1744,1
BA:1745,2
BA:1745,1
BA:1746,2
BA:1746,1
BA:1747,2
BA:1747,1
BA:1748,1
BA:1748,2
BA:1749,1
BA:1749,2
BA:1750,1
BA:1750,2
BA:1751,1
BA:1751,2
BA:1752,1
BA:1752,2
BA:1753,1
BA:1753,2
BA:1754,1
BA:1754,2
BA:1755,1
BA:1755,2
BA:1758,1
BA:1758,2
BA:1759,1
BA:1759,2
BA:1772,1
BA:1772,2
BA:1773,1
BA:1773,2
BA:1774,1
BA:1774,2
BA:1775,1
BA:1775,2
BA:1776,1
BA:1776,2
BA:1777,1
BA:1777,2
BA:1778,2
BA:1778,1
BA:1779,2
BA:1779,1
BA:1780,2
BA:1780,1
BA:1781,2
BA:1781,1
BA:1782,2
BA:1782,1
BA:1783,2
BA:1783,1
BA:1784,2
BA:1784,1
BA:1787,2
BA:1787,1
BA:1788,2
BA:1788,1
BA:1789,2
BA:1789,1
BA:1790,2
BA:1790,1
BA:1791,2
BA:1791,1
BA:1792,1
BA:1792,2
BA:1793,1
BA:1793,2
BA:1794,1
BA:1794,2
BA:1795,1
BA:1795,2
BA:1796,1
BA:1796,2
BA:1797,1
BA:1797,2
BA:1798,1
BA:1798,2
BA:1799,1
BA:1799,2
BA:1802,1
BA:1802,2
BA:1808,1
BA:1808,2
BA:1809,1
BA:1809,2
BA:1810,1
BA:1810,2
BA:1811,1
BA:1811,2
BA:1812,1
BA:1812,2
BA:1813,1
BA:1813,2
BA:1814,2
BA:1814,1
BA:1815,2
BA:1815,1
BA:1816,2
BA:1816,1
BA:1817,2
BA:1817,1
BA:1818,2
BA:1818,1
BA:1819,2
BA:1819,1
BA:1820,2
BA:1820,1
BA:1823,2
BA:1823,1
BA:1824,2
BA:1824,1
BA:1825,2
BA:1825,1
BA:1826,2
BA:1826,1
BA:1827,2
BA:1827,1
BA:1828,1
BA:1828,2
BA:1829,1
BA:1829,2
BA:1830,1
BA:1830,2
BA:1831,1
BA:1831,2
BA:1832,1
BA:1832,2
BA:1833,1
BA:1833,2
BA:1834,1
BA:1834,2
BA:1835,1
BA:1835,2
BA:1838,1
BA:1838,2
BA:1844,1
BA:1844,2
BA:1845,1
BA:1845,2
BA:1846,1
BA:1846,2
BA:1847,1
BA:1847,2
BA:1848,1
BA:1848,2
BA:1849,1
BA:1849,2
BA:1850,2
BA:1850,1
BA:1851,2
BA:1851,1
BA:1852,2
BA:1852,1
BA:1853,2
BA:1853,1
BA:1854,2
BA:1854,1
BA:1855,2
BA:1855,1
BA:1856,2
BA:1856,1
BA:1859,2
BA:1859,1
BA:1860,2
BA:1860,1
BA:1861,2
BA:1861,1
BA:1862,2
BA:1862,1
BA:1863,2
BA:1863,1
BA:1864,1
BA:1864,2
BA:1865,1
BA:1865,2
BA:1866,1
BA:1866,2
BA:1867,1
BA:1867,2
BA:1868,1
BA:1868,2
BA:1869,1
BA:1869,2
BA:1870,1
BA:1870,2
BA:1871,1
BA:1871,2
BA:1874,1
BA:1874,2
BA:1880,1
BA:1880,2
BA:1881,1
BA:1881,2
BA:1882,1
BA:1882,2
BA:1883,1
BA:1883,2
BA:1884,1
BA:1884,2
BA:1885,1
BA:1885,2
BA:1886,2
BA:1886,1
BA:1887,2
BA:1887,1
BA:1888,2
BA:1888,1
BA:1889,2
BA:1889,1
BA:1890,2
BA:1890,1
BA:1891,2
BA:1891,1
BA:1892,2
BA:1892,1
BA:1895,2
BA:1895,1
BA:1896,2
BA:1896,1
BA:1897,2
BA:1897,1
BA:1898,2
BA:1898,1
BA:1899,2
BA:1899,1
BA:1900,1
BA:1900,2
BA:1901,1
BA:1901,2
BA:1902,1
BA:1902,2
BA:1903,1
BA:1903,2
BA:1904,1
BA:1904,2
BA:1905,1
BA:1905,2
BA:1906,1
BA:1906,2
BA:1907,1
BA:1907,2
BA:1910,1
BA:1910,2
BA:1911,1
BA:1911,2
BA:1925,1
BA:1925,2
BA:1926,1
BA:1926,2
BA:1927,1
BA:1927,2
BA:1928,1
BA:1928,2
BA:1929,1
BA:1929,2
BA:1930,1
BA:1930,2
BA:1931,2
BA:1931,1
BA:1932,2
BA:1932,1
BA:1933,2
BA:1933,1
BA:1934,2
BA:1934,1
BA:1935,2
BA:1935,1
BA:1938,2
BA:1938,1
BA:1939,2
BA:1939,1
BA:1940,2
BA:1940,1
BA:1941,2
BA:1941,1
BA:1942,2
BA:1942,1
BA:1943,1
BA:1943,2
BA:1944,1
BA:1944,2
BA:1945,1
BA:1945,2
BA:1946,1
BA:1946,2
BA:1947,1
BA:1947,2
BA:1948,1
BA:1948,2
BA:1951,1
BA:1951,2
BA:1957,1
BA:1957,2
BA:1958,1
BA:1958,2
BA:1959,1
BA:1959,2
BA:1960,1
BA:1960,2
BA:1961,1
BA:1961,2
BA:1962,1
BA:1962,2
BA:1963,2
BA:1963,1
BA:1964,2
BA:1964,1
BA:1965,2
BA:1965,1
BA:1966,2
BA:1966,1
BA:1967,2
BA:1967,1
BA:1970,2
BA:1970,1
BA:1971,2
BA:1971,1
BA:1972,2
BA:1972,1
BA:1973,2
BA:1973,1
BA:1974,2
BA:1974,1
BA:1975,1
BA:1975,2
BA:1976,1
BA:1976,2
BA:1977,1
BA:1977,2
BA:1978,1
BA:1978,2
BA:1979,1
BA:1979,2
BA:1980,1
BA:1980,2
BA:1983,1
BA:1983,2
BA:1988,1
BA:1988,2
BA:1989,1
BA:1989,2
BA:1990,1
BA:1990,2
BA:1991,1
BA:1991,2
BA:1992,1
BA:1992,2
BA:1993,1
BA:1993,2
BA:1994,2
BA:1994,1
BA:1995,2
BA:1995,1
BA:1996,2
BA:1996,1
BA:1997,2
BA:1997,1
BA:1998,2
BA:1998,1
BA:2001,2
BA:2001,1
BA:2002,2
BA:2002,1
BA:2003,2
BA:2003,1
BA:2004,2
BA:2004,1
BA:2005,2
BA:2005,1
BA:2006,1
BA:2006,2
BA:2007,1
BA:2007,2
BA:2008,1
BA:2008,2
BA:2009,1
BA:2009,2
BA:2010,1
BA:2010,2
BA:2011,1
BA:2011,2
BA:2014,1
BA:2014,2
BA:2020,1
BA:2020,2
BA:2021,1
BA:2021,2
BA:2022,1
BA:2022,2
BA:2023,1
BA:2023,2
BA:2024,1
BA:2024,2
BA:2025,1
BA:2025,2
BA:2026,2
BA:2026,1
BA:2027,2
BA:2027,1
BA:2028,2
BA:2028,1
BA:2029,2
BA:2029,1
BA:2030,2
BA:2030,1
BA:2033,2
BA:2033,1
BA:2034,2
BA:2034,1
BA:2035,2
BA:2035,1
BA:2036,2
BA:2036,1
BA:2037,2
BA:2037,1
BA:2038,1
BA:2038,2
BA:2039,1
BA:2039,2
BA:2040,1
BA:2040,2
BA:2041,1
BA:2041,2
BA:2042,1
BA:2042,2
BA:2043,1
BA:2043,2
BA:2046,1
BA:2046,2
BA:2061,1
BA:2061,2
BA:2062,1
BA:2062,2
BA:2063,1
BA:2063,2
BA:2064,1
BA:2064,2
BA:2065,1
BA:2065,2
BA:2066,1
BA:2066,2
BA:2067,2
BA:2067,1
BA:2068,2
BA:2068,1
BA:2069,2
BA:2069,1
BA:2070,2
BA:2070,1
BA:2073,2
BA:2073,1
BA:2074,2
BA:2074,1
BA:2075,2
BA:2075,1
BA:2076,2
BA:2076,1
BA:2077,2
BA:2077,1
BA:2078,1
BA:2078,2
BA:2079,1
BA:2079,2
BA:2080,1
BA:2080,2
BA:2081,1
BA:2081,2
BA:2082,1
BA:2082,2
BA:2085,1
BA:2085,2
BA:2089,1
BA:2089,2
BA:2090,1
BA:2090,2
BA:2091,1
BA:2091,2
BA:2092,1
BA:2092,2
BA:2093,1
BA:2093,2
BA:2094,1
BA:2094,2
BA:2095,2
BA:2095,1
BA:2096,2
BA:2096,1
BA:2097,2
BA:2097,1
BA:2098,2
BA:2098,1
BA:2101,2
BA:2101,1
BA:2102,2
BA:2102,1
BA:2103,2
BA:2103,1
BA:2104,2
BA:2104,1
BA:2105,2
BA:2105,1
BA:2106,1
BA:2106,2
BA:2107,1
BA:2107,2
BA:2108,1
BA:2108,2
BA:2109,1
BA:2109,2
BA:2110,1
BA:2110,2
BA:2113,1
BA:2113,2
BA:2114,1
BA:2114,2
BA:2127,1
BA:2127,2
BA:2128,1
BA:2128,2
BA:2129,1
BA:2129,2
BA:2130,1
BA:2130,2
BA:2131,1
BA:2131,2
BA:2132,1
BA:2132,2
BA:2133,2
BA:2133,1
BA:2134,2
BA:2134,1
BA:2135,2
BA:2135,1
BA:2136,2
BA:2136,1
BA:2137,2
BA:2137,1
BA:2138,2
BA:2138,1
BA:2139,2
BA:2139,1
BA:2140,2
BA:2140,1
BA:2143,2
BA:2143,1
BA:2144,2
BA:2144,1
BA:2145,2
BA:2145,1
BA:2146,2
BA:2146,1
BA:2147,2
BA:2147,1
BA:2148,1
BA:2148,2
BA:2149,1
BA:2149,2
BA:2150,1
BA:2150,2
BA:2151,1
BA:2151,2
BA:2152,1
BA:2152,2
BA:2153,1
BA:2153,2
BA:2154,1
BA:2154,2
BA:2155,1
BA:2155,2
BA:2156,1
BA:2156,2
BA:2159,1
BA:2159,2
BA:2160,1
BA:2160,2
BA:2173,1
BA:2173,2
BA:2174,1
BA:2174,2
BA:2175,1
BA:2175,2
BA:2176,1
BA:2176,2
BA:2177,1
BA:2177,2
BA:2178,1
BA:2178,2
BA:2179,2
BA:2179,1
BA:2180,2
BA:2180,1
BA:2181,2
BA:2181,1
BA:2182,2
BA:2182,1
BA:2183,2
BA:2183,1
BA:2186,2
BA:2186,1
BA:2187,2
BA:2187,1
BA:2188,2
BA:2188,1
BA:2189,2
BA:2189,1
BA:2190,2
BA:2190,1
BA:2191,1
BA:2191,2
BA:2192,1
BA:2192,2
BA:2193,1
BA:2193,2
BA:2194,1
BA:2194,2
BA:2195,1
BA:2195,2
BA:2196,1
BA:2196,2
BA:2199,1
BA:2199,2
BA:2205,1
BA:2205,2
BA:2206,1
BA:2206,2
BA:2207,1
BA:2207,2
BA:2208,1
BA:2208,2
BA:2209,1
BA:2209,2
BA:2210,1
BA:2210,2
BA:2211,2
BA:2211,1
BA:2212,2
BA:2212,1
BA:2213,2
BA:2213,1
BA:2214,2
BA:2214,1
BA:2215,2
BA:2215,1
BA:2218,2
BA:2218,1
BA:2219,2
BA:2219,1
BA:2220,2
BA:2220,1
BA:2221,2
BA:2221,1
BA:2222,2
BA:2222,1
BA:2223,1
BA:2223,2
BA:2224,1
BA:2224,2
BA:2225,1
BA:2225,2
BA:2226,1
BA:2226,2
BA:2227,1
BA:2227,2
BA:2228,1
BA:2228,2
BA:2231,1
BA:2231,2
BA:2237,1
BA:2237,2
BA:2238,1
BA:2238,2
BA:2239,1
BA:2239,2
BA:2240,1
BA:2240,2
BA:2241,1
BA:2241,2
BA:2242,1
BA:2242,2
BA:2243,2
BA:2243,1
BA:2244,2
BA:2244,1
BA:2245,2
BA:2245,1
BA:2246,2
BA:2246,1
BA:2247,2
BA:2247,1
BA:2250,2
BA:2250,1
BA:2251,2
BA:2251,1
BA:2252,2
BA:2252,1
BA:2253,2
BA:2253,1
BA:2254,2
BA:2254,1
BA:2255,1
BA:2255,2
BA:2256,1
BA:2256,2
BA:2257,1
BA:2257,2
BA:2258,1
BA:2258,2
BA:2259,1
BA:2259,2
BA:2260,1
BA:2260,2
BA:2263,1
BA:2263,2
BA:2269,1
BA:2269,2
BA:2270,1
BA:2270,2
BA:2271,1
BA:2271,2
BA:2272,1
BA:2272,2
BA:2273,1
BA:2273,2
BA:2274,1
BA:2274,2
BA:2275,2
BA:2275,1
BA:2276,2
BA:2276,1
BA:2277,2
BA:2277,1
BA:2278,2
BA:2278,1
BA:2279,2
BA:2279,1
BA:2282,2
BA:2282,1
BA:2283,2
BA:2283,1
BA:2284,2
BA:2284,1
BA:2285,2
BA:2285,1
BA:2286,2
BA:2286,1
BA:2287,1
BA:2287,2
BA:2288,1
BA:2288,2
BA:2289,1
BA:2289,2
BA:2290,1
BA:2290,2
BA:2291,1
BA:2291,2
BA:2292,1
BA:2292,2
BA:2295,1
BA:2295,2
BA:2296,1
BA:2296,2
BA:2310,1
BA:2310,2
BA:2311,1
BA:2311,2
BA:2312,1
BA:2312,2
BA:2313,1
BA:2313,2
BA:2314,1
BA:2314,2
BA:2315,1
BA:2315,2
BA:2316,2
BA:2316,1
BA:2317,2
BA:2317,1
BA:2318,2
BA:2318,1
BA:2319,2
BA:2319,1
BA:2320,2
BA:2320,1
BA:2323,2
BA:2323,1
BA:2324,2
BA:2324,1
BA:2325,2
BA:2325,1
BA:2326,2
BA:2326,1
BA:2327,2
BA:2327,1
BA:2328,1
BA:2328,2
BA:2329,1
BA:2329,2
BA:2330,1
BA:2330,2
BA:2331,1
BA:2331,2
BA:2332,1
BA:2332,2
BA:2333,1
BA:2333,2
BA:2336,1
BA:2336,2
BA:2341,1
BA:2341,2
BA:2342,1
BA:2342,2
BA:2343,1
BA:2343,2
BA:2344,1
BA:2344,2
BA:2345,1
BA:2345,2
BA:2346,1
BA:2346,2
BA:2347,2
BA:2347,1
BA:2348,2
BA:2348,1
BA:2349,2
BA:2349,1
BA:2350,2
BA:2350,1
BA:2351,2
BA:2351,1
BA:2354,2
BA:2354,1
BA:2355,2
BA:2355,1
BA:2356,2
BA:2356,1
BA:2357,2
BA:2357,1
BA:2358,2
BA:2358,1
BA:2359,1
BA:2359,2
BA:2360,1
BA:2360,2
BA:2361,1
BA:2361,2
BA:2362,1
BA:2362,2
BA:2363,1
BA:2363,2
BA:2364,1
BA:2364,2
BA:2367,1
BA:2367,2
BA:2374,1
BA:2374,2
BA:2375,1
BA:2375,2
BA:2376,1
BA:2376,2
BA:2377,1
BA:2377,2
BA:2378,1
BA:2378,2
BA:2379,1
BA:2379,2
BA:2380,2
BA:2380,1
BA:2381,2
BA:2381,1
BA:2382,2
BA:2382,1
BA:2383,2
BA:2383,1
BA:2384,2
BA:2384,1
BA:2387,2
BA:2387,1
BA:2388,2
BA:2388,1
BA:2389,2
BA:2389,1
BA:2390,2
BA:2390,1
BA:2391,2
BA:2391,1
BA:2392,1
BA:2392,2
BA:2393,1
BA:2393,2
BA:2394,1
BA:2394,2
BA:2395,1
BA:2395,2
BA:2396,1
BA:2396,2
BA:2397,1
BA:2397,2
BA:2400,1
BA:2400,2
BA:2405,1
BA:2405,2
BA:2406,1
BA:2406,2
BA:2407,1
BA:2407,2
BA:2408,1
BA:2408,2
BA:2409,1
BA:2409,2
BA:2410,1
BA:2410,2
BA:2411,2
BA:2411,1
BA:2412,2
BA:2412,1
BA:2413,2
BA:2413,1
BA:2414,2
BA:2414,1
BA:2415,2
BA:2415,1
BA:2418,2
BA:2418,1
BA:2419,2
BA:2419,1
BA:2420,2
BA:2420,1
BA:2421,2
BA:2421,1
BA:2422,2
BA:2422,1
BA:2423,1
BA:2423,2
BA:2424,1
BA:2424,2
BA:2425,1
BA:2425,2
BA:2426,1
BA:2426,2
BA:2427,1
BA:2427,2
BA:2428,1
BA:2428,2
BA:2432,1
BA:2432,2
BA:2435,2
BA:2435,1
BA:2442,1
BA:2442,2
BA:2443,1
BA:2443,2
BA:2444,1
BA:2444,2
BA:2445,1
BA:2445,2
BA:2446,1
BA:2446,2
BA:2447,1
BA:2447,2
BA:2448,2
BA:2448,1
BA:2449,2
BA:2449,1
BA:2450,2
BA:2450,1
BA:2451,2
BA:2451,1
BA:2452,2
BA:2452,1
BA:2455,2
BA:2455,1
BA:2456,2
BA:2456,1
BA:2457,2
BA:2457,1
BA:2458,2
BA:2458,1
BA:2459,2
BA:2459,1
BA:2460,1
BA:2460,2
BA:2461,1
BA:2461,2
BA:2462,1
BA:2462,2
BA:2463,1
BA:2463,2
BA:2464,1
BA:2464,2
BA:2465,1
BA:2465,2
BA:2468,1
BA:2468,2
BA:2473,1
BA:2473,2
BA:2474,1
BA:2474,2
BA:2475,1
BA:2475,2
BA:2476,1
BA:2476,2
BA:2477,1
BA:2477,2
BA:2478,1
BA:2478,2
BA:2479,2
BA:2479,1
BA:2480,2
BA:2480,1
BA:2481,2
BA:2481,1
BA:2482,2
BA:2482,1
BA:2483,2
BA:2483,1
BA:2486,2
BA:2486,1
BA:2487,2
BA:2487,1
BA:2488,2
BA:2488,1
BA:2489,2
BA:2489,1
BA:2490,2
BA:2490,1
BA:2491,1
BA:2491,2
BA:2492,1
BA:2492,2
BA:2493,1
BA:2493,2
BA:2494,1
BA:2494,2
BA:2495,1
BA:2495,2
BA:2496,1
BA:2496,2
BA:2499,1
BA:2499,2
BA:2506,1
BA:2506,2
BA:2507,1
BA:2507,2
BA:2508,1
BA:2508,2
BA:2509,1
BA:2509,2
BA:2510,1
BA:2510,2
BA:2511,1
BA:2511,2
BA:2512,2
BA:2512,1
BA:2513,2
BA:2513,1
BA:2514,2
BA:2514,1
BA:2515,2
BA:2515,1
BA:2516,2
BA:2516,1
BA:2519,2
BA:2519,1
BA:2520,2
BA:2520,1
BA:2521,2
BA:2521,1
BA:2522,2
BA:2522,1
BA:2523,2
BA:2523,1
BA:2524,1
BA:2524,2
BA:2525,1
BA:2525,2
BA:2526,1
BA:2526,2
BA:2527,1
BA:2527,2
BA:2528,1
BA:2528,2
BA:2529,1
BA:2529,2
BA:2532,1
BA:2532,2
BA:2537,1
BA:2537,2
BA:2538,1
BA:2538,2
BA:2539,1
BA:2539,2
BA:2540,1
BA:2540,2
BA:2541,1
BA:2541,2
BA:2542,1
BA:2542,2
BA:2543,2
BA:2543,1
BA:2544,2
BA:2544,1
BA:2545,2
BA:2545,1
BA:2546,2
BA:2546,1
BA:2547,2
BA:2547,1
BA:2550,2
BA:2550,1
BA:2551,2
BA:2551,1
BA:2552,2
BA:2552,1
BA:2553,2
BA:2553,1
BA:2554,2
BA:2554,1
BA:2555,1
BA:2555,2
BA:2556,1
BA:2556,2
BA:2557,1
BA:2557,2
BA:2558,1
BA:2558,2
BA:2559,1
BA:2559,2
BA:2560,1
BA:2560,2
BA:2563,1
BA:2563,2
BA:2564,1
BA:2564,2
BA:2577,1
BA:2577,2
BA:2578,1
BA:2578,2
BA:2579,1
BA:2579,2
BA:2580,1
BA:2580,2
BA:2581,1
BA:2581,2
BA:2582,1
BA:2582,2
BA:2583,2
BA:2583,1
BA:2584,2
BA:2584,1
BA:2585,2
BA:2585,1
BA:2586,2
BA:2586,1
BA:2587,2
BA:2587,1
BA:2588,2
BA:2588,1
BA:2591,2
BA:2591,1
BA:2592,2
BA:2592,1
BA:2593,2
BA:2593,1
BA:2594,2
BA:2594,1
BA:2595,2
BA:2595,1
BA:2596,1
BA:2596,2
BA:2597,1
BA:2597,2
BA:2598,1
BA:2598,2
BA:2599,1
BA:2599,2
BA:2600,1
BA:2600,2
BA:2601,1
BA:2601,2
BA:2602,1
BA:2602,2
BA:2605,1
BA:2605,2
BA:2611,1
BA:2611,2
BA:2612,1
BA:2612,2
BA:2613,1
BA:2613,2
BA:2614,1
BA:2614,2
BA:2615,1
BA:2615,2
BA:2616,1
BA:2616,2
BA:2617,2
BA:2617,1
BA:2618,2
BA:2618,1
BA:2619,2
BA:2619,1
BA:2620,2
BA:2620,1
BA:2621,2
BA:2621,1
BA:2622,2
BA:2622,1
BA:2625,2
BA:2625,1
BA:2626,2
BA:2626,1
BA:2627,2
BA:2627,1
BA:2628,2
BA:2628,1
BA:2629,2
BA:2629,1
BA:2630,1
BA:2630,2
BA:2631,1
BA:2631,2
BA:2632,1
BA:2632,2
BA:2633,1
BA:2633,2
BA:2634,1
BA:2634,2
BA:2635,1
BA:2635,2
BA:2636,1
BA:2636,2
BA:2639,1
BA:2639,2
BA:2645,1
BA:2645,2
BA:2646,1
BA:2646,2
BA:2647,1
BA:2647,2
BA:2648,1
BA:2648,2
BA:2649,1
BA:2649,2
BA:2650,1
BA:2650,2
BA:2651,2
BA:2651,1
BA:2652,2
BA:2652,1
BA:2653,2
BA:2653,1
BA:2654,2
BA:2654,1
BA:2655,2
BA:2655,1
BA:2656,2
BA:2656,1
BA:2659,2
BA:2659,1
BA:2660,2
BA:2660,1
BA:2661,2
BA:2661,1
BA:2662,2
BA:2662,1
BA:2663,2
BA:2663,1
BA:2664,1
BA:2664,2
BA:2665,1
BA:2665,2
BA:2666,1
BA:2666,2
BA:2667,1
BA:2667,2
BA:2668,1
BA:2668,2
BA:2669,1
BA:2669,2
BA:2670,1
BA:2670,2
BA:2673,1
BA:2673,2
BA:2679,1
BA:2679,2
BA:2680,1
BA:2680,2
BA:2681,1
BA:2681,2
BA:2682,1
BA:2682,2
BA:2683,1
BA:2683,2
BA:2684,1
BA:2684,2
BA:2685,2
BA:2685,1
BA:2686,2
BA:2686,1
BA:2687,2
BA:2687,1
BA:2688,2
BA:2688,1
BA:2689,2
BA:2689,1
BA:2690,2
BA:2690,1
BA:2693,2
BA:2693,1
BA:2694,2
BA:2694,1
BA:2695,2
BA:2695,1
BA:2696,2
BA:2696,1
BA:2697,2
BA:2697,1
BA:2698,1
BA:2698,2
BA:2699,1
BA:2699,2
BA:2700,1
BA:2700,2
BA:2701,1
BA:2701,2
BA:2702,1
BA:2702,2
BA:2703,1
BA:2703,2
BA:2704,1
BA:2704,2
BA:2707,1
BA:2707,2
BA:2708,1
BA:2708,2
BA:2721,1
BA:2721,2
BA:2722,1
BA:2722,2
BA:2723,1
BA:2723,2
BA:2724,1
BA:2724,2
BA:2725,1
BA:2725,2
BA:2726,1
BA:2726,2
BA:2727,2
BA:2727,1
BA:2728,2
BA:2728,1
BA:2729,2
BA:2729,1
BA:2730,2
BA:2730,1
BA:2731,2
BA:2731,1
BA:2734,2
BA:2734,1
BA:2735,2
BA:2735,1
BA:2736,2
BA:2736,1
BA:2737,2
BA:2737,1
BA:2738,2
BA:2738,1
BA:2739,1
BA:2739,2
BA:2740,1
BA:2740,2
BA:2741,1
BA:2741,2
BA:2742,1
BA:2742,2
BA:2743,1
BA:2743,2
BA:2744,1
BA:2744,2
BA:2747,1
BA:2747,2
BA:2752,1
BA:2752,2
BA:2753,1
BA:2753,2
BA:2754,1
BA:2754,2
BA:2755,1
BA:2755,2
BA:2756,1
BA:2756,2
BA:2757,1
BA:2757,2
BA:2758,2
BA:2758,1
BA:2759,2
BA:2759,1
BA:2760,2
BA:2760,1
BA:2761,2
BA:2761,1
BA:2762,2
BA:2762,1
BA:2765,2
BA:2765,1
BA:2766,2
BA:2766,1
BA:2767,2
BA:2767,1
BA:2768,2
BA:2768,1
BA:2769,2
BA:2769,1
BA:2770,1
BA:2770,2
BA:2771,1
BA:2771,2
BA:2772,1
BA:2772,2
BA:2773,1
BA:2773,2
BA:2774,1
BA:2774,2
BA:2775,1
BA:2775,2
BA:2778,1
BA:2778,2
BA:2784,1
BA:2784,2
BA:2785,1
BA:2785,2
BA:2786,1
BA:2786,2
BA:2787,1
BA:2787,2
BA:2788,1
BA:2788,2
BA:2789,1
BA:2789,2
BA:2790,2
BA:2790,1
BA:2791,2
BA:2791,1
BA:2792,2
BA:2792,1
BA:2793,2
BA:2793,1
BA:2794,2
BA:2794,1
BA:2797,2
BA:2797,1
BA:2798,2
BA:2798,1
BA:2799,2
BA:2799,1
BA:2800,2
BA:2800,1
BA:2801,2
BA:2801,1
BA:2802,1
BA:2802,2
BA:2803,1
BA:2803,2
BA:2804,1
BA:2804,2
BA:2805,1
BA:2805,2
BA:2806,1
BA:2806,2
BA:2807,1
BA:2807,2
BA:2810,1
BA:2810,2
BA:2815,1
BA:2815,2
BA:2816,1
BA:2816,2
BA:2817,1
BA:2817,2
BA:2818,1
BA:2818,2
BA:2819,1
BA:2819,2
BA:2820,1
BA:2820,2
BA:2821,2
BA:2821,1
BA:2822,2
BA:2822,1
BA:2823,2
BA:2823,1
BA:2824,2
BA:2824,1
BA:2825,2
BA:2825,1
BA:2828,2
BA:2828,1
BA:2829,2
BA:2829,1
BA:2830,2
BA:2830,1
BA:2831,2
BA:2831,1
BA:2832,2
BA:2832,1
BA:2833,1
BA:2833,2
BA:2834,1
BA:2834,2
BA:2835,1
BA:2835,2
BA:2836,1
BA:2836,2
BA:2837,1
BA:2837,2
BA:2838,1
BA:2838,2
BA:2841,1
BA:2841,2
BA:2844,2
BA:2844,1
BA:2851,1
BA:2851,2
BA:2852,1
BA:2852,2
BA:2853,1
BA:2853,2
BA:2854,1
BA:2854,2
BA:2855,1
BA:2855,2
BA:2856,1
BA:2856,2
BA:2857,2
BA:2857,1
BA:2858,2
BA:2858,1
BA:2859,2
BA:2859,1
BA:2860,2
BA:2860,1
BA:2861,2
BA:2861,1
BA:2864,2
BA:2864,1
BA:2865,2
BA:2865,1
BA:2866,2
BA:2866,1
BA:2867,2
BA:2867,1
BA:2868,2
BA:2868,1
BA:2869,1
BA:2869,2
BA:2870,1
BA:2870,2
BA:2871,1
BA:2871,2
BA:2872,1
BA:2872,2
BA:2873,1
BA:2873,2
BA:2874,1
BA:2874,2
BA:2877,1
BA:2877,2
BA:2882,1
BA:2882,2
BA:2883,1
BA:2883,2
BA:2884,1
BA:2884,2
BA:2885,1
BA:2885,2
BA:2886,1
BA:2886,2
BA:2887,1
BA:2887,2
BA:2888,2
BA:2888,1
BA:2889,2
BA:2889,1
BA:2890,2
BA:2890,1
BA:2891,2
BA:2891,1
BA:2892,2
BA:2892,1
BA:2895,2
BA:2895,1
BA:2896,2
BA:2896,1
BA:2897,2
BA:2897,1
BA:2898,2
BA:2898,1
BA:2899,2
BA:2899,1
BA:2900,1
BA:2900,2
BA:2901,1
BA:2901,2
BA:2902,1
BA:2902,2
BA:2903,1
BA:2903,2
BA:2904,1
BA:2904,2
BA:2905,1
BA:2905,2
BA:2908,1
BA:2908,2
BA:2914,1
BA:2914,2
BA:2915,1
BA:2915,2
BA:2916,1
BA:2916,2
BA:2917,1
BA:2917,2
BA:2918,1
BA:2918,2
BA:2919,1
BA:2919,2
BA:2920,2
BA:2920,1
BA:2921,2
BA:2921,1
BA:2922,2
BA:2922,1
BA:2923,2
BA:2923,1
BA:2924,2
BA:2924,1
BA:2927,2
BA:2927,1
BA:2928,2
BA:2928,1
BA:2929,2
BA:2929,1
BA:2930,2
BA:2930,1
BA:2931,2
BA:2931,1
BA:2932,1
BA:2932,2
BA:2933,1
BA:2933,2
BA:2934,1
BA:2934,2
BA:2935,1
BA:2935,2
BA:2936,1
BA:2936,2
BA:2937,1
BA:2937,2
BA:2940,1
BA:2940,2
BA:2945,1
BA:2945,2
BA:2946,1
BA:2946,2
BA:2947,1
BA:2947,2
BA:2948,1
BA:2948,2
BA:2949,1
BA:2949,2
BA:2950,1
BA:2950,2
BA:2951,2
BA:2951,1
BA:2952,2
BA:2952,1
BA:2953,2
BA:2953,1
BA:2954,2
BA:2954,1
BA:2955,2
BA:2955,1
BA:2958,2
BA:2958,1
BA:2959,2
BA:2959,1
BA:2960,2
BA:2960,1
BA:2961,2
BA:2961,1
BA:2962,2
BA:2962,1
BA:2963,1
BA:2963,2
BA:2964,1
BA:2964,2
BA:2965,1
BA:2965,2
BA:2966,1
BA:2966,2
BA:2967,1
BA:2967,2
BA:2968,1
BA:2968,2
BA:2971,1
BA:2971,2
BA:2972,1
BA:2972,2
BA:2985,1
BA:2985,2
BA:2986,1
BA:2986,2
BA:2987,1
BA:2987,2
BA:2988,1
BA:2988,2
BA:2989,1
BA:2989,2
BA:2990,1
BA:2990,2
BA:2991,2
BA:2991,1
BA:2992,2
BA:2992,1
BA:2993,2
BA:2993,1
BA:2994,2
BA:2994,1
BA:2995,2
BA:2995,1
BA:2996,2
BA:2996,1
BA:2999,2
BA:2999,1
BA:3000,2
BA:3000,1
BA:3001,2
BA:3001,1
BA:3002,2
BA:3002,1
BA:3003,2
BA:3003,1
BA:3004,1
BA:3004,2
BA:3005,1
BA:3005,2
BA:3006,1
BA:3006,2
BA:3007,1
BA:3007,2
BA:3008,1
BA:3008,2
BA:3009,1
BA:3009,2
BA:3010,1
BA:3010,2
BA:3013,1
BA:3013,2
BA:3020,1
BA:3020,2
BA:3021,1
BA:3021,2
BA:3022,1
BA:3022,2
BA:3023,1
BA:3023,2
BA:3024,1
BA:3024,2
BA:3025,1
BA:3025,2
BA:3026,2
BA:3026,1
BA:3027,2
BA:3027,1
BA:3028,2
BA:3028,1
BA:3029,2
BA:3029,1
BA:3030,2
BA:3030,1
BA:3031,2
BA:3031,1
BA:3034,2
BA:3034,1
BA:3035,2
BA:3035,1
BA:3036,2
BA:3036,1
BA:3037,2
BA:3037,1
BA:3038,2
BA:3038,1
BA:3039,1
BA:3039,2
BA:3040,1
BA:3040,2
BA:3041,1
BA:3041,2
BA:3042,1
BA:3042,2
BA:3043,1
BA:3043,2
BA:3044,1
BA:3044,2
BA:3045,1
BA:3045,2
BA:3048,1
BA:3048,2
BA:3053,1
BA:3053,2
BA:3054,1
BA:3054,2
BA:3055,1
BA:3055,2
BA:3056,1
BA:3056,2
BA:3057,1
BA:3057,2
BA:3058,1
BA:3058,2
BA:3059,2
BA:3059,1
BA:3060,2
BA:3060,1
BA:3061,2
BA:3061,1
BA:3062,2
BA:3062,1
BA:3063,2
BA:3063,1
BA:3064,2
BA:3064,1
BA:3067,2
BA:3067,1
BA:3068,2
BA:3068,1
BA:3069,2
BA:3069,1
BA:3070,2
BA:3070,1
BA:3071,2
BA:3071,1
BA:3072,1
BA:3072,2
BA:3073,1
BA:3073,2
BA:3074,1
BA:3074,2
BA:3075,1
BA:3075,2
BA:3076,1
BA:3076,2
BA:3077,1
BA:3077,2
BA:3078,1
BA:3078,2
BA:3081,1
BA:3081,2
BA:3088,1
BA:3088,2
BA:3089,1
BA:3089,2
BA:3090,1
BA:3090,2
BA:3091,1
BA:3091,2
BA:3092,1
BA:3092,2
BA:3093,1
BA:3093,2
BA:3094,2
BA:3094,1
BA:3095,2
BA:3095,1
BA:3096,2
BA:3096,1
BA:3097,2
BA:3097,1
BA:3098,2
BA:3098,1
BA:3099,2
BA:3099,1
BA:3102,2
BA:3102,1
BA:3103,2
BA:3103,1
BA:3104,2
BA:3104,1
BA:3105,2
BA:3105,1
BA:3106,2
BA:3106,1
BA:3107,1
BA:3107,2
BA:3108,1
BA:3108,2
BA:3109,1
BA:3109,2
BA:3110,1
BA:3110,2
BA:3111,1
BA:3111,2
BA:3112,1
BA:3112,2
BA:3113,1
BA:3113,2
BA:3116,1
BA:3116,2
BA:3119,2
BA:3119,1
BA:3125,1
BA:3125,2
BA:3126,1
BA:3126,2
BA:3127,1
BA:3127,2
BA:3128,1
BA:3128,2
BA:3129,1
BA:3129,2
BA:3130,1
BA:3130,2
BA:3131,2
BA:3131,1
BA:3132,2
BA:3132,1
BA:3133,2
BA:3133,1
BA:3134,2
BA:3134,1
BA:3135,2
BA:3135,1
BA:3136,2
BA:3136,1
BA:3139,2
BA:3139,1
BA:3140,2
BA:3140,1
BA:3141,2
BA:3141,1
BA:3142,2
BA:3142,1
BA:3143,2
BA:3143,1
BA:3144,1
BA:3144,2
BA:3145,1
BA:3145,2
BA:3146,1
BA:3146,2
BA:3147,1
BA:3147,2
BA:3148,1
BA:3148,2
BA:3149,1
BA:3149,2
BA:3150,1
BA:3150,2
BA:3153,1
BA:3153,2
BA:3160,1
BA:3160,2
BA:3161,1
BA:3161,2
BA:3162,1
BA:3162,2
BA:3163,1
BA:3163,2
BA:3164,1
BA:3164,2
BA:3165,1
BA:3165,2
BA:3166,2
BA:3166,1
BA:3167,2
BA:3167,1
BA:3168,2
BA:3168,1
BA:3169,2
BA:3169,1
BA:3170,2
BA:3170,1
BA:3171,2
BA:3171,1
BA:3174,2
BA:3174,1
BA:3175,2
BA:3175,1
BA:3176,2
BA:3176,1
BA:3177,2
BA:3177,1
BA:3178,2
BA:3178,1
BA:3179,1
BA:3179,2
BA:3180,1
BA:3180,2
BA:3181,1
BA:3181,2
BA:3182,1
BA:3182,2
BA:3183,1
BA:3183,2
BA:3184,1
BA:3184,2
BA:3185,1
BA:3185,2
BA:3188,1
BA:3188,2
BA:3193,1
BA:3193,2
BA:3194,1
BA:3194,2
BA:3195,1
BA:3195,2
BA:3196,1
BA:3196,2
BA:3197,1
BA:3197,2
BA:3198,1
BA:3198,2
BA:3199,2
BA:3199,1
BA:3200,2
BA:3200,1
BA:3201,2
BA:3201,1
BA:3202,2
BA:3202,1
BA:3203,2
BA:3203,1
BA:3204,2
BA:3204,1
BA:3207,2
BA:3207,1
BA:3208,2
BA:3208,1
BA:3209,2
BA:3209,1
BA:3210,2
BA:3210,1
BA:3211,2
BA:3211,1
BA:3212,1
BA:3212,2
BA:3213,1
BA:3213,2
BA:3214,1
BA:3214,2
BA:3215,1
BA:3215,2
BA:3216,1
BA:3216,2
BA:3217,1
BA:3217,2
BA:3218,1
BA:3218,2
BA:3221,1
BA:3221,2
BA:3228,1
BA:3228,2
BA:3229,1
BA:3229,2
BA:3230,1
BA:3230,2
BA:3231,1
BA:3231,2
BA:3232,1
BA:3232,2
BA:3233,1
BA:3233,2
BA:3234,2
BA:3234,1
BA:3235,2
BA:3235,1
BA:3236,2
BA:3236,1
BA:3237,2
BA:3237,1
BA:3238,2
BA:3238,1
BA:3239,2
BA:3239,1
BA:3242,2
BA:3242,1
BA:3243,2
BA:3243,1
BA:3244,2
BA:3244,1
BA:3245,2
BA:3245,1
BA:3246,2
BA:3246,1
BA:3247,1
BA:3247,2
BA:3248,1
BA:3248,2
BA:3249,1
BA:3249,2
BA:3250,1
BA:3250,2
BA:3251,1
BA:3251,2
BA:3252,1
BA:3252,2
BA:3253,1
BA:3253,2
BA:3256,1
BA:3256,2
BA:3257,1
BA:3257,2
BA:3271,1
BA:3271,2
BA:3272,1
BA:3272,2
BA:3273,1
BA:3273,2
BA:3274,1
BA:3274,2
BA:3275,1
BA:3275,2
BA:3276,1
BA:3276,2
BA:3277,2
BA:3277,1
BA:3278,2
BA:3278,1
BA:3279,2
BA:3279,1
BA:3280,2
BA:3280,1
BA:3281,2
BA:3281,1
BA:3282,2
BA:3282,1
BA:3285,2
BA:3285,1
BA:3286,2
BA:3286,1
BA:3287,2
BA:3287,1
BA:3288,2
BA:3288,1
BA:3289,2
BA:3289,1
BA:3290,1
BA:3290,2
BA:3291,1
BA:3291,2
BA:3292,1
BA:3292,2
BA:3293,1
BA:3293,2
BA:3294,1
BA:3294,2
BA:3295,1
BA:3295,2
BA:3296,1
BA:3296,2
BA:3299,1
BA:3299,2
BA:3304,1
BA:3304,2
BA:3305,1
BA:3305,2
BA:3306,1
BA:3306,2
BA:3307,1
BA:3307,2
BA:3308,1
BA:3308,2
BA:3309,1
BA:3309,2
BA:3310,2
BA:3310,1
BA:3311,2
BA:3311,1
BA:3312,2
BA:3312,1
BA:3313,2
BA:3313,1
BA:3314,2
BA:3314,1
BA:3315,2
BA:3315,1
BA:3318,2
BA:3318,1
BA:3319,2
BA:3319,1
BA:3320,2
BA:3320,1
BA:3321,2
BA:3321,1
BA:3322,2
BA:3322,1
BA:3323,1
BA:3323,2
BA:3324,1
BA:3324,2
BA:3325,1
BA:3325,2
BA:3326,1
BA:3326,2
BA:3327,1
BA:3327,2
BA:3328,1
BA:3328,2
BA:3329,1
BA:3329,2
BA:3332,1
BA:3332,2
BA:3339,1
BA:3339,2
BA:3340,1
BA:3340,2
BA:3341,1
BA:3341,2
BA:3342,1
BA:3342,2
BA:3343,1
BA:3343,2
BA:3344,1
BA:3344,2
BA:3345,2
BA:3345,1
BA:3346,2
BA:3346,1
BA:3347,2
BA:3347,1
BA:3348,2
BA:3348,1
BA:3349,2
BA:3349,1
BA:3350,2
BA:3350,1
BA:3353,2
BA:3353,1
BA:3354,2
BA:3354,1
BA:3355,2
BA:3355,1
BA:3356,2
BA:3356,1
BA:3357,2
BA:3357,1
BA:3358,1
BA:3358,2
BA:3359,1
BA:3359,2
BA:3360,1
BA:3360,2
BA:3361,1
BA:3361,2
BA:3362,1
BA:3362,2
BA:3363,1
BA:3363,2
BA:3364,1
BA:3364,2
BA:3367,1
BA:3367,2
BA:3372,1
BA:3372,2
BA:3373,1
BA:3373,2
BA:3374,1
BA:3374,2
BA:3375,1
BA:3375,2
BA:3376,1
BA:3376,2
BA:3377,1
BA:3377,2
BA:3378,2
BA:3378,1
BA:3379,2
BA:3379,1
BA:3380,2
BA:3380,1
BA:3381,2
BA:3381,1
BA:3382,2
BA:3382,1
BA:3383,2
BA:3383,1
BA:3386,2
BA:3386,1
BA:3387,2
BA:3387,1
BA:3388,2
BA:3388,1
BA:3389,2
BA:3389,1
BA:3390,2
BA:3390,1
BA:3391,1
BA:3391,2
BA:3392,1
BA:3392,2
BA:3393,1
BA:3393,2
BA:3394,1
BA:3394,2
BA:3395,1
BA:3395,2
BA:3396,1
BA:3396,2
BA:3397,1
BA:3397,2
BA:3400,1
BA:3400,2
BA:3403,2
BA:3403,1
BA:3410,1
BA:3410,2
BA:3411,1
BA:3411,2
BA:3412,1
BA:3412,2
BA:3413,1
BA:3413,2
BA:3414,1
BA:3414,2
BA:3415,1
BA:3415,2
BA:3416,2
BA:3416,1
BA:3417,2
BA:3417,1
BA:3418,2
BA:3418,1
BA:3419,2
BA:3419,1
BA:3420,2
BA:3420,1
BA:3421,2
BA:3421,1
BA:3424,2
BA:3424,1
BA:3425,2
BA:3425,1
BA:3426,2
BA:3426,1
BA:3427,2
BA:3427,1
BA:3428,2
BA:3428,1
BA:3429,1
BA:3429,2
BA:3430,1
BA:3430,2
BA:3431,1
BA:3431,2
BA:3432,1
BA:3432,2
BA:3433,1
BA:3433,2
BA:3434,1
BA:3434,2
BA:3435,1
BA:3435,2
BA:3438,1
BA:3438,2
BA:3443,1
BA:3443,2
BA:3444,1
BA:3444,2
BA:3445,1
BA:3445,2
BA:3446,1
BA:3446,2
BA:3447,1
BA:3447,2
BA:3448,1
BA:3448,2
BA:3449,2
BA:3449,1
BA:3450,2
BA:3450,1
BA:3451,2
BA:3451,1
BA:3452,2
BA:3452,1
BA:3453,2
BA:3453,1
BA:3454,2
BA:3454,1
BA:3457,2
BA:3457,1
BA:3458,2
BA:3458,1
BA:3459,2
BA:3459,1
BA:3460,2
BA:3460,1
BA:3461,2
BA:3461,1
BA:3462,1
BA:3462,2
BA:3463,1
BA:3463,2
BA:3464,1
BA:3464,2
BA:3465,1
BA:3465,2
BA:3466,1
BA:3466,2
BA:3467,1
BA:3467,2
BA:3468,1
BA:3468,2
BA:3471,1
BA:3471,2
BA:3478,1
BA:3478,2
BA:3479,1
BA:3479,2
BA:3480,1
BA:3480,2
BA:3481,1
BA:3481,2
BA:3482,1
BA:3482,2
BA:3483,1
BA:3483,2
BA:3484,2
BA:3484,1
BA:3485,2
BA:3485,1
BA:3486,2
BA:3486,1
BA:3487,2
BA:3487,1
BA:3488,2
BA:3488,1
BA:3489,2
BA:3489,1
BA:3492,2
BA:3492,1
BA:3493,2
BA:3493,1
BA:3494,2
BA:3494,1
BA:3495,2
BA:3495,1
BA:3496,2
BA:3496,1
BA:3497,1
BA:3497,2
BA:3498,1
BA:3498,2
BA:3499,1
BA:3499,2
BA:3500,1
BA:3500,2
BA:3501,1
BA:3501,2
BA:3502,1
BA:3502,2
BA:3503,1
BA:3503,2
BA:3506,1
BA:3506,2
BA:3511,1
BA:3511,2
BA:3512,1
BA:3512,2
BA:3513,1
BA:3513,2
BA:3514,1
BA:3514,2
BA:3515,1
BA:3515,2
BA:3516,1
BA:3516,2
BA:3517,2
BA:3517,1
BA:3518,2
BA:3518,1
BA:3519,2
BA:3519,1
BA:3520,2
BA:3520,1
BA:3521,2
BA:3521,1
BA:3522,2
BA:3522,1
BA:3525,2
BA:3525,1
BA:3526,2
BA:3526,1
BA:3527,2
BA:3527,1
BA:3528,2
BA:3528,1
BA:3529,2
BA:3529,1
BA:3530,1
BA:3530,2
BA:3531,1
BA:3531,2
BA:3532,1
BA:3532,2
BA:3533,1
BA:3533,2
BA:3534,1
BA:3534,2
BA:3535,1
BA:3535,2
BA:3536,1
BA:3536,2
BA:3539,1
BA:3539,2
BA:3540,1
BA:3540,2
BA:3543,2
BA:3543,1
BA:3543,2
BA:3543,1
LF:2654
LH:2653
end_of_record
SF:/home/frechilla/workspace/headless/blockem_sourceforge/src/tests/game1v1_test.h
FN:73,_ZN11Game1v1Test12PutDownPieceER5Piece
FN:81,_ZN11Game1v1Test11RemovePieceER5Piece
FNDA:91,_ZN11Game1v1Test12PutDownPieceER5Piece
FNDA:91,_ZN11Game1v1Test11RemovePieceER5Piece
FNF:2
FNH:2
DA:73,91
DA:78,91
DA:79,91
DA:81,91
DA:86,91
DA:87,91
LF:6
LH:6
end_of_record
SF:/home/frechilla/workspace/headless/blockem_sourceforge/src/piece.h
FN:173,_ZNK5Piece21GetPrecalculatedConfsEv
FN:181,_ZNK5Piece14GetBitwiseListEv
FN:125,_ZNK5Piece13GetNRotationsEv
DA:125,749
DA:128,749
DA:130,749
DA:173,140
DA:175,140
DA:181,97
DA:183,97
LF:7
LH:7
end_of_record
SF:/home/frechilla/workspace/headless/blockem_sourceforge/src/player.h
FN:114,_ZNK6Player24NumberOfNucleationPointsEv
FN:151,_ZNK6Player17IsNucleationPointERK10Coordinate
FN:142,_ZNK6Player16IsPieceAvailableE12ePieceType_t
DA:80,6449710
DA:82,6449710
DA:114,182
DA:116,182
DA:142,587
DA:145,587
DA:147,587
DA:151,8541
DA:154,8541
DA:155,8541
DA:157,8541
DA:161,602
DA:164,602
DA:165,602
DA:167,602
DA:170,588
DA:172,588
DA:173,588
DA:175,602
DA:178,8173
DA:181,8173
DA:182,8173
DA:184,8173
DA:187,566
DA:189,566
DA:190,566
DA:192,8173
LF:27
LH:27
end_of_record
SF:/usr/include/c++/4.4/bits/stl_list.h
FN:200,_ZNSt20_List_const_iteratorISt6vectorI10CoordinateSaIS1_EEEC1Ev
FN:255,_ZNKSt20_List_const_iteratorISt6vectorI10CoordinateSaIS1_EEEneERKS4_
FN:228,_ZNSt20_List_const_iteratorISt6vectorI10CoordinateSaIS1_EEEppEi
FN:213,_ZNKSt20_List_const_iteratorIyEdeEv
FN:213,_ZNKSt20_List_const_iteratorISt6vectorI10CoordinateSaIS1_EEEdeEv
FN:228,_ZNSt20_List_const_iteratorIyEppEi
FN:251,_ZNKSt20_List_const_iteratorIyEeqERKS0_
FN:204,_ZNSt20_List_const_iteratorIyEC1EPKSt15_List_node_base
FN:698,_ZNKSt4listIySaIyEE5beginEv
FN:716,_ZNKSt4listIySaIyEE3endEv
FN:204,_ZNSt20_List_const_iteratorISt6vectorI10CoordinateSaIS1_EEEC1EPKSt15_List_node_base
FN:698,_ZNKSt4listISt6vectorI10CoordinateSaIS1_EESaIS3_EE5beginEv
FN:716,_ZNKSt4listISt6vectorI10CoordinateSaIS1_EESaIS3_EE3endEv
DA:200,140
DA:201,140
DA:204,1669
DA:205,1669
DA:213,86146
DA:214,86146
DA:228,952
DA:230,952
DA:231,952
DA:251,265
DA:252,265
DA:255,1517
DA:256,1517
DA:698,573
DA:699,573
DA:716,1096
DA:717,1096
LF:17
LH:17
end_of_record
TN:
SF:/usr/include/c++/4.4/bits/allocator.h
FN:101,_ZNSaIcEC1Ev
FN:103,_ZNSaIcEC1ERKS_
FN:109,_ZNSaIcED2Ev
FN:109,_ZNSaIcED1Ev
FNDA:0,_ZNSaIcEC1Ev
FNDA:0,_ZNSaIcEC1ERKS_
FNDA:0,_ZNSaIcED2Ev
FNDA:0,_ZNSaIcED1Ev
FNF:4
FNH:0
DA:101,0
DA:103,0
DA:104,0
DA:109,0
LF:4
LH:0
end_of_record
SF:/usr/include/c++/4.4/bits/basic_ios.h
FN:127,_ZNKSt9basic_iosIcSt11char_traitsIcEE7rdstateEv
FN:147,_ZNSt9basic_iosIcSt11char_traitsIcEE8setstateESt12_Ios_Iostate
FN:46,_ZSt13__check_facetISt5ctypeIcEERKT_PS3_
FN:439,_ZNKSt9basic_iosIcSt11char_traitsIcEE5widenEc
FNDA:0,_ZSt13__check_facetISt5ctypeIcEERKT_PS3_
FNDA:0,_ZNKSt9basic_iosIcSt11char_traitsIcEE7rdstateEv
FNDA:0,_ZNSt9basic_iosIcSt11char_traitsIcEE8setstateESt12_Ios_Iostate
FNDA:0,_ZNKSt9basic_iosIcSt11char_traitsIcEE5widenEc
FNF:4
FNH:0
DA:46,0
DA:48,0
DA:49,0
DA:50,0
DA:127,0
DA:128,0
DA:147,0
DA:148,0
DA:439,0
DA:440,0
BA:48,0
BA:48,0
LF:10
LH:0
end_of_record
SF:/usr/include/c++/4.4/bits/basic_string.h
FN:272,_ZNKSs7_M_dataEv
FN:280,_ZNKSs6_M_repEv
FN:173,_ZNSs4_Rep12_S_empty_repEv
FN:1632,_ZNKSs13get_allocatorEv
FN:253,_ZNSs12_Alloc_hiderD1Ev
FN:224,_ZNSs4_Rep10_M_disposeERKSaIcE
FN:497,_ZNSsD1Ev
FNDA:0,_ZNSs4_Rep12_S_empty_repEv
FNDA:0,_ZNSs4_Rep10_M_disposeERKSaIcE
FNDA:0,_ZNSs12_Alloc_hiderD1Ev
FNDA:0,_ZNKSs7_M_dataEv
FNDA:0,_ZNKSs6_M_repEv
FNDA:0,_ZNSsD1Ev
FNDA:0,_ZNKSs13get_allocatorEv
FNF:7
FNH:0
DA:173,0
DA:178,0
DA:179,0
DA:224,0
DA:227,0
DA:229,0
DA:231,0
DA:232,0
DA:253,0
DA:272,0
DA:273,0
DA:280,0
DA:281,0
DA:497,0
DA:498,0
DA:1632,0
DA:1633,0
BA:227,0
BA:227,0
BA:229,0
BA:229,0
LF:17
LH:0
end_of_record
SF:/usr/include/c++/4.4/bits/char_traits.h
FN:262,_ZNSt11char_traitsIcE6lengthEPKc
FNDA:0,_ZNSt11char_traitsIcE6lengthEPKc
FNF:1
FNH:0
DA:262,0
DA:263,0
LF:2
LH:0
end_of_record
SF:/usr/include/c++/4.4/bits/ios_base.h
FN:166,_ZStorSt12_Ios_IostateS_
FNDA:0,_ZStorSt12_Ios_IostateS_
FNF:1
FNH:0
DA:166,0
DA:167,0
LF:2
LH:0
end_of_record
SF:/usr/include/c++/4.4/bits/locale_facets.h
FN:865,_ZNKSt5ctypeIcE5widenEc
FNDA:0,_ZNKSt5ctypeIcE5widenEc
FNF:1
FNH:0
DA:865,0
DA:867,0
DA:868,0
DA:869,0
DA:870,0
BA:867,0
BA:867,0
LF:5
LH:0
end_of_record
SF:/usr/include/c++/4.4/ext/atomicity.h
FN:62,_ZN9__gnu_cxxL25__exchange_and_add_singleEPii
FN:45,_ZN9__gnu_cxxL18__exchange_and_addEPVii
FN:75,_ZN9__gnu_cxxL27__exchange_and_add_dispatchEPii
FNDA:0,_ZN9__gnu_cxxL18__exchange_and_addEPVii
FNDA:0,_ZN9__gnu_cxxL25__exchange_and_add_singleEPii
FNDA:0,_ZN9__gnu_cxxL27__exchange_and_add_dispatchEPii
FNF:3
FNH:0
DA:45,0
DA:46,0
DA:62,0
DA:64,0
DA:65,0
DA:66,0
DA:75,0
DA:78,0
DA:79,0
DA:81,0
BA:78,0
BA:78,0
LF:10
LH:0
end_of_record
SF:/usr/include/c++/4.4/ext/new_allocator.h
FN:66,_ZN9__gnu_cxx13new_allocatorIcEC2Ev
FN:73,_ZN9__gnu_cxx13new_allocatorIcED2Ev
FN:68,_ZN9__gnu_cxx13new_allocatorIcEC2ERKS1_
FNDA:0,_ZN9__gnu_cxx13new_allocatorIcEC2Ev
FNDA:0,_ZN9__gnu_cxx13new_allocatorIcEC2ERKS1_
FNDA:0,_ZN9__gnu_cxx13new_allocatorIcED2Ev
FNF:3
FNH:0
DA:66,0
DA:68,0
DA:73,0
LF:3
LH:0
end_of_record
SF:/usr/include/c++/4.4/i486-linux-gnu/bits/gthr-default.h
FN:238,_ZL18__gthread_active_pv
FNDA:0,_ZL18__gthread_active_pv
FNF:1
FNH:0
DA:238,0
DA:242,0
LF:2
LH:0
end_of_record
SF:/usr/include/c++/4.4/iostream
DA:72,1
LF:1
LH:1
end_of_record
SF:/usr/include/c++/4.4/ostream
FN:108,_ZNSolsEPFRSoS_E
FN:559,_ZSt5flushIcSt11char_traitsIcEERSt13basic_ostreamIT_T0_ES6_
FN:505,_ZStlsISt11char_traitsIcEERSt13basic_ostreamIcT_ES5_PKc
FN:538,_ZSt4endlIcSt11char_traitsIcEERSt13basic_ostreamIT_T0_ES6_
FNDA:0,_ZNSolsEPFRSoS_E
FNDA:0,_ZStlsISt11char_traitsIcEERSt13basic_ostreamIcT_ES5_PKc
FNDA:0,_ZSt4endlIcSt11char_traitsIcEERSt13basic_ostreamIT_T0_ES6_
FNDA:0,_ZSt5flushIcSt11char_traitsIcEERSt13basic_ostreamIT_T0_ES6_
FNF:4
FNH:0
DA:108,0
DA:113,0
DA:505,0
DA:507,0
DA:508,0
DA:510,0
DA:512,0
DA:538,0
DA:539,0
DA:559,0
DA:560,0
BA:507,0
BA:507,0
LF:11
LH:0
end_of_record
SF:/home/frechilla/workspace/headless/blockem_sourceforge/src/tests/main_test.cpp
FN:107,_Z41__static_initialization_and_destruction_0ii
FN:107,_GLOBAL__I_main
FN:37,main
FNDA:1,main
FNDA:1,_Z41__static_initialization_and_destruction_0ii
FNDA:1,_GLOBAL__I_main
FNF:3
FNH:3
DA:37,1
DA:46,1
DA:47,1
DA:49,1
DA:50,1
DA:51,1
DA:53,1
DA:56,1
DA:57,1
DA:59,1
DA:60,1
DA:61,1
DA:63,1
DA:64,1
DA:65,1
DA:67,1
DA:68,1
DA:70,1
DA:72,1
DA:73,1
DA:75,1
DA:76,1
DA:77,1
DA:78,1
DA:80,1
DA:81,1
DA:83,1
DA:84,1
DA:86,1
DA:87,1
DA:89,1
DA:90,1
DA:92,1
DA:96,1
DA:98,1
DA:99,1
DA:103,1
DA:106,1
DA:107,3
BA:65,1
BA:65,2
BA:68,1
BA:68,2
BA:78,1
BA:78,2
BA:81,1
BA:81,2
BA:84,1
BA:84,2
BA:87,1
BA:87,2
BA:90,1
BA:90,2
BA:99,2
BA:99,1
BA:107,2
BA:107,1
BA:107,2
BA:107,1
LF:39
LH:39
end_of_record
TN:
SF:/usr/include/c++/4.4/bits/allocator.h
FN:101,_ZNSaI10CoordinateEC1Ev
FN:103,_ZNSaI10CoordinateEC2ERKS0_
FN:109,_ZNSaI10CoordinateED2Ev
FN:109,_ZNSaI10CoordinateED1Ev
FNDA:0,_ZNSaI10CoordinateEC1Ev
FNDA:0,_ZNSaI10CoordinateEC2ERKS0_
FNDA:0,_ZNSaI10CoordinateED2Ev
FNDA:0,_ZNSaI10CoordinateED1Ev
FNF:4
FNH:0
DA:101,0
DA:103,0
DA:104,0
DA:109,0
LF:4
LH:0
end_of_record
SF:/usr/include/c++/4.4/bits/stl_algobase.h
FN:186,_ZSt3minIiERKT_S2_S2_
FN:209,_ZSt3maxIiERKT_S2_S2_
FNDA:424,_ZSt3minIiERKT_S2_S2_
FNDA:0,_ZSt3maxIiERKT_S2_S2_
FNF:2
FNH:1
DA:186,424
DA:191,424
DA:192,7
DA:193,417
DA:209,0
DA:214,0
DA:215,0
DA:216,0
BA:191,2
BA:191,2
BA:214,0
BA:214,0
LF:8
LH:4
end_of_record
SF:/usr/include/c++/4.4/bits/stl_construct.h
FN:82,_ZSt8_DestroyI10CoordinateEvPT_
FN:90,_ZNSt12_Destroy_auxILb0EE9__destroyIP10CoordinateEEvT_S4_
FN:112,_ZSt8_DestroyIP10CoordinateEvT_S2_
FN:139,_ZSt8_DestroyIP10CoordinateS0_EvT_S2_RSaIT0_E
FN:70,_ZSt10_ConstructI10CoordinateS0_EvPT_RKT0_
FNDA:0,_ZSt10_ConstructI10CoordinateS0_EvPT_RKT0_
FNDA:0,_ZSt8_DestroyI10CoordinateEvPT_
FNDA:0,_ZNSt12_Destroy_auxILb0EE9__destroyIP10CoordinateEEvT_S4_
FNDA:0,_ZSt8_DestroyIP10CoordinateEvT_S2_
FNDA:0,_ZSt8_DestroyIP10CoordinateS0_EvT_S2_RSaIT0_E
FNF:5
FNH:0
DA:70,0
DA:74,0
DA:75,0
DA:82,0
DA:83,0
DA:90,0
DA:92,0
DA:93,0
DA:94,0
DA:112,0
DA:116,0
DA:118,0
DA:139,0
DA:142,0
DA:143,0
BA:74,0
BA:74,0
BA:92,0
BA:92,0
LF:15
LH:0
end_of_record
SF:/usr/include/c++/4.4/bits/stl_iterator.h
FN:702,_ZNK9__gnu_cxx17__normal_iteratorIPK10CoordinateSt6vectorIS1_SaIS1_EEEptEv
FN:686,_ZN9__gnu_cxx17__normal_iteratorIPK10CoordinateSt6vectorIS1_SaIS1_EEEC1ERKS3_
FN:713,_ZN9__gnu_cxx17__normal_iteratorIPK10CoordinateSt6vectorIS1_SaIS1_EEEppEi
FN:750,_ZNK9__gnu_cxx17__normal_iteratorIPK10CoordinateSt6vectorIS1_SaIS1_EEE4baseEv
FN:783,_ZN9__gnu_cxxneIPK10CoordinateSt6vectorIS1_SaIS1_EEEEbRKNS_17__normal_iteratorIT_T0_EESC_
FNDA:0,_ZN9__gnu_cxx17__normal_iteratorIPK10CoordinateSt6vectorIS1_SaIS1_EEEC1ERKS3_
FNDA:0,_ZNK9__gnu_cxx17__normal_iteratorIPK10CoordinateSt6vectorIS1_SaIS1_EEEptEv
FNDA:0,_ZN9__gnu_cxx17__normal_iteratorIPK10CoordinateSt6vectorIS1_SaIS1_EEEppEi
FNDA:0,_ZNK9__gnu_cxx17__normal_iteratorIPK10CoordinateSt6vectorIS1_SaIS1_EEE4baseEv
FNDA:0,_ZN9__gnu_cxxneIPK10CoordinateSt6vectorIS1_SaIS1_EEEEbRKNS_17__normal_iteratorIT_T0_EESC_
FNF:5
FNH:0
DA:686,0
DA:702,0
DA:703,0
DA:713,0
DA:714,0
DA:750,0
DA:751,0
DA:783,0
DA:785,0
LF:9
LH:0
end_of_record
SF:/usr/include/c++/4.4/bits/stl_list.h
FN:200,_ZNSt20_List_const_iteratorISt6vectorI10CoordinateSaIS1_EEEC1Ev
FN:255,_ZNKSt20_List_const_iteratorISt6vectorI10CoordinateSaIS1_EEEneERKS4_
FN:228,_ZNSt20_List_const_iteratorISt6vectorI10CoordinateSaIS1_EEEppEi
FN:213,_ZNKSt20_List_const_iteratorISt6vectorI10CoordinateSaIS1_EEEdeEv
FN:204,_ZNSt20_List_const_iteratorISt6vectorI10CoordinateSaIS1_EEEC1EPKSt15_List_node_base
FN:698,_ZNKSt4listISt6vectorI10CoordinateSaIS1_EESaIS3_EE5beginEv
FN:716,_ZNKSt4listISt6vectorI10CoordinateSaIS1_EESaIS3_EE3endEv
FNDA:0,_ZNSt20_List_const_iteratorISt6vectorI10CoordinateSaIS1_EEEC1Ev
FNDA:0,_ZNSt20_List_const_iteratorISt6vectorI10CoordinateSaIS1_EEEC1EPKSt15_List_node_base
FNDA:0,_ZNKSt20_List_const_iteratorISt6vectorI10CoordinateSaIS1_EEEdeEv
FNDA:0,_ZNSt20_List_const_iteratorISt6vectorI10CoordinateSaIS1_EEEppEi
FNDA:0,_ZNKSt20_List_const_iteratorISt6vectorI10CoordinateSaIS1_EEEneERKS4_
FNDA:0,_ZNKSt4listISt6vectorI10CoordinateSaIS1_EESaIS3_EE5beginEv
FNDA:0,_ZNKSt4listISt6vectorI10CoordinateSaIS1_EESaIS3_EE3endEv
FNF:7
FNH:0
DA:200,0
DA:201,0
DA:204,0
DA:205,0
DA:213,0
DA:214,0
DA:228,0
DA:230,0
DA:231,0
DA:255,0
DA:256,0
DA:698,0
DA:699,0
DA:716,0
DA:717,0
LF:15
LH:0
end_of_record
SF:/usr/include/c++/4.4/bits/stl_uninitialized.h
FN:180,_ZNSt22__uninitialized_fill_nILb0EE20uninitialized_fill_nIP10CoordinatejS2_EEvT_T0_RKT1_
FN:218,_ZSt20uninitialized_fill_nIP10CoordinatejS0_EvT_T0_RKT1_
FN:316,_ZSt24__uninitialized_fill_n_aIP10CoordinatejS0_S0_EvT_T0_RKT1_RSaIT2_E
FNDA:0,_ZNSt22__uninitialized_fill_nILb0EE20uninitialized_fill_nIP10CoordinatejS2_EEvT_T0_RKT1_
FNDA:0,_ZSt20uninitialized_fill_nIP10CoordinatejS0_EvT_T0_RKT1_
FNDA:0,_ZSt24__uninitialized_fill_n_aIP10CoordinatejS0_S0_EvT_T0_RKT1_RSaIT2_E
FNF:3
FNH:0
DA:180,0
DA:183,0
DA:186,0
DA:187,0
DA:189,0
DA:191,0
DA:192,0
DA:194,0
DA:218,0
DA:223,0
DA:225,0
DA:316,0
DA:318,0
BA:186,0
BA:186,0
LF:13
LH:0
end_of_record
SF:/usr/include/c++/4.4/bits/stl_vector.h
FN:532,_ZNKSt6vectorI10CoordinateSaIS0_EE4sizeEv
FN:610,_ZNSt6vectorI10CoordinateSaIS0_EEixEj
FN:434,_ZNKSt6vectorI10CoordinateSaIS0_EE5beginEv
FN:452,_ZNKSt6vectorI10CoordinateSaIS0_EE3endEv
FN:93,_ZNSt12_Vector_baseI10CoordinateSaIS0_EE19_M_get_Tp_allocatorEv
FN:84,_ZNSt12_Vector_baseI10CoordinateSaIS0_EE12_Vector_implC1ERKS1_
FN:75,_ZNSt12_Vector_baseI10CoordinateSaIS0_EE12_Vector_implD1Ev
FN:139,_ZNSt12_Vector_baseI10CoordinateSaIS0_EE11_M_allocateEj
FN:110,_ZNSt12_Vector_baseI10CoordinateSaIS0_EEC2EjRKS1_
FN:1033,_ZNSt6vectorI10CoordinateSaIS0_EE18_M_fill_initializeEjRKS0_
FN:143,_ZNSt12_Vector_baseI10CoordinateSaIS0_EE13_M_deallocateEPS0_j
FN:131,_ZNSt12_Vector_baseI10CoordinateSaIS0_EED2Ev
FN:227,_ZNSt6vectorI10CoordinateSaIS0_EEC1EjRKS0_RKS1_
FN:312,_ZNSt6vectorI10CoordinateSaIS0_EED1Ev
FNDA:0,_ZNSt12_Vector_baseI10CoordinateSaIS0_EE12_Vector_implD1Ev
FNDA:0,_ZNSt12_Vector_baseI10CoordinateSaIS0_EE12_Vector_implC1ERKS1_
FNDA:0,_ZNSt12_Vector_baseI10CoordinateSaIS0_EE19_M_get_Tp_allocatorEv
FNDA:0,_ZNSt12_Vector_baseI10CoordinateSaIS0_EEC2EjRKS1_
FNDA:0,_ZNSt12_Vector_baseI10CoordinateSaIS0_EED2Ev
FNDA:0,_ZNSt12_Vector_baseI10CoordinateSaIS0_EE11_M_allocateEj
FNDA:0,_ZNSt12_Vector_baseI10CoordinateSaIS0_EE13_M_deallocateEPS0_j
FNDA:0,_ZNSt6vectorI10CoordinateSaIS0_EEC1EjRKS0_RKS1_
FNDA:0,_ZNSt6vectorI10CoordinateSaIS0_EED1Ev
FNDA:0,_ZNKSt6vectorI10CoordinateSaIS0_EE5beginEv
FNDA:0,_ZNKSt6vectorI10CoordinateSaIS0_EE3endEv
FNDA:0,_ZNKSt6vectorI10CoordinateSaIS0_EE4sizeEv
FNDA:0,_ZNSt6vectorI10CoordinateSaIS0_EEixEj
FNDA:0,_ZNSt6vectorI10CoordinateSaIS0_EE18_M_fill_initializeEjRKS0_
FNF:14
FNH:0
DA:75,0
DA:84,0
DA:85,0
DA:86,0
DA:93,0
DA:94,0
DA:110,0
DA:111,0
DA:113,0
DA:114,0
DA:115,0
DA:116,0
DA:131,0
DA:132,0
DA:133,0
DA:139,0
DA:140,0
DA:143,0
DA:145,0
DA:146,0
DA:147,0
DA:227,0
DA:229,0
DA:230,0
DA:312,0
DA:313,0
DA:314,0
DA:434,0
DA:435,0
DA:452,0
DA:453,0
DA:532,0
DA:533,0
DA:610,0
DA:611,0
DA:1033,0
DA:1035,0
DA:1037,0
DA:1038,0
BA:140,0
BA:140,0
BA:145,0
BA:145,0
LF:39
LH:0
end_of_record
SF:/usr/include/c++/4.4/ext/new_allocator.h
FN:66,_ZN9__gnu_cxx13new_allocatorI10CoordinateEC2Ev
FN:73,_ZN9__gnu_cxx13new_allocatorI10CoordinateED2Ev
FN:68,_ZN9__gnu_cxx13new_allocatorI10CoordinateEC2ERKS2_
FN:98,_ZNK9__gnu_cxx13new_allocatorI10CoordinateE8max_sizeEv
FN:84,_ZN9__gnu_cxx13new_allocatorI10CoordinateE8allocateEjPKv
FN:94,_ZN9__gnu_cxx13new_allocatorI10CoordinateE10deallocateEPS1_j
FNDA:0,_ZN9__gnu_cxx13new_allocatorI10CoordinateEC2Ev
FNDA:0,_ZN9__gnu_cxx13new_allocatorI10CoordinateEC2ERKS2_
FNDA:0,_ZN9__gnu_cxx13new_allocatorI10CoordinateED2Ev
FNDA:0,_ZN9__gnu_cxx13new_allocatorI10CoordinateE8allocateEjPKv
FNDA:0,_ZN9__gnu_cxx13new_allocatorI10CoordinateE10deallocateEPS1_j
FNDA:0,_ZNK9__gnu_cxx13new_allocatorI10CoordinateE8max_sizeEv
FNF:6
FNH:0
DA:66,0
DA:68,0
DA:73,0
DA:84,0
DA:86,0
DA:87,0
DA:89,0
DA:94,0
DA:95,0
DA:98,0
DA:99,0
BA:86,0
BA:86,0
LF:11
LH:0
end_of_record
SF:/usr/include/c++/4.4/new
FN:101,_ZnwjPv
FN:105,_ZdlPvS_
FNDA:0,_ZnwjPv
FNDA:0,_ZdlPvS_
FNF:2
FNH:0
DA:101,0
DA:105,0
LF:2
LH:0
end_of_record
SF:/home/frechilla/workspace/headless/blockem_sourceforge/src/board.h
FN:103,_ZNK5Board8GetNRowsEv
FN:109,_ZNK5Board11GetNColumnsEv
FN:55,_ZNK5Board12IsCoordEmptyERK10Coordinate
FN:79,_ZNK5Board15IsPlayerInCoordERK10CoordinateRK6Player
FNDA:0,_ZNK5Board12IsCoordEmptyERK10Coordinate
FNDA:0,_ZNK5Board15IsPlayerInCoordERK10CoordinateRK6Player
FNDA:0,_ZNK5Board8GetNRowsEv
FNDA:0,_ZNK5Board11GetNColumnsEv
FNF:4
FNH:0
DA:55,0
DA:58,0
DA:59,0
DA:60,0
DA:61,0
DA:63,0
DA:79,0
DA:82,0
DA:83,0
DA:84,0
DA:85,0
DA:87,0
DA:103,0
DA:105,0
DA:109,0
DA:111,0
BA:58,0
BA:58,0
BA:59,0
BA:59,0
BA:60,0
BA:60,0
BA:61,0
BA:61,0
BA:82,0
BA:82,0
BA:83,0
BA:83,0
BA:84,0
BA:84,0
BA:85,0
BA:85,0
LF:16
LH:0
end_of_record
SF:/home/frechilla/workspace/headless/blockem_sourceforge/src/coordinate.h
FN:49,_ZN10CoordinateC1Ev
FN:53,_ZN10CoordinateC1Eii
FN:47,_ZN10CoordinateaSERKS_
FN:47,_ZN10CoordinateC1ERKS_
FN:57,_ZN10CoordinateD0Ev
FN:57,_ZN10CoordinateD1Ev
FNDA:0,_ZN10CoordinateaSERKS_
FNDA:0,_ZN10CoordinateC1ERKS_
FNDA:0,_ZN10CoordinateC1Ev
FNDA:0,_ZN10CoordinateC1Eii
FNDA:0,_ZN10CoordinateD0Ev
FNDA:0,_ZN10CoordinateD1Ev
FNF:6
FNH:0
DA:47,0
DA:49,0
DA:51,0
DA:52,0
DA:53,0
DA:55,0
DA:56,0
DA:57,0
DA:58,0
BA:58,0
BA:58,0
BA:58,0
BA:58,0
LF:9
LH:0
end_of_record
SF:/home/frechilla/workspace/headless/blockem_sourceforge/src/piece.h
FN:167,_ZNK5Piece9GetRadiusEv
FN:173,_ZNK5Piece21GetPrecalculatedConfsEv
FNDA:0,_ZNK5Piece9GetRadiusEv
FNDA:0,_ZNK5Piece21GetPrecalculatedConfsEv
FNF:2
FNH:0
DA:167,0
DA:169,0
DA:173,0
DA:175,0
LF:4
LH:0
end_of_record
SF:/home/frechilla/workspace/headless/blockem_sourceforge/src/player.h
FN:80,_ZNK6Player16PresentationCharEv
FN:98,_ZNK6Player21GetStartingCoordinateEv
FN:109,_ZNK6Player23NumberOfPiecesAvailableEv
FN:142,_ZNK6Player16IsPieceAvailableE12ePieceType_t
FN:161,_ZN6Player18SetNucleationPointERK10Coordinate
FN:178,_ZN6Player20UnsetNucleationPointERK10Coordinate
FN:151,_ZNK6Player17IsNucleationPointERK10Coordinate
FNDA:0,_ZNK6Player16PresentationCharEv
FNDA:0,_ZNK6Player21GetStartingCoordinateEv
FNDA:0,_ZNK6Player23NumberOfPiecesAvailableEv
FNDA:0,_ZNK6Player16IsPieceAvailableE12ePieceType_t
FNDA:0,_ZNK6Player17IsNucleationPointERK10Coordinate
FNDA:0,_ZN6Player18SetNucleationPointERK10Coordinate
FNDA:0,_ZN6Player20UnsetNucleationPointERK10Coordinate
FNF:7
FNH:0
DA:80,0
DA:82,0
DA:98,0
DA:100,0
DA:109,0
DA:111,0
DA:142,0
DA:145,0
DA:147,0
DA:151,0
DA:154,0
DA:155,0
DA:157,0
DA:161,0
DA:164,0
DA:165,0
DA:167,0
DA:170,0
DA:172,0
DA:173,0
DA:175,0
DA:178,0
DA:181,0
DA:182,0
DA:184,0
DA:187,0
DA:189,0
DA:190,0
DA:192,0
BA:145,0
BA:145,0
BA:145,0
BA:145,0
BA:154,0
BA:154,0
BA:154,0
BA:154,0
BA:155,0
BA:155,0
BA:155,0
BA:155,0
BA:164,0
BA:164,0
BA:164,0
BA:164,0
BA:165,0
BA:165,0
BA:165,0
BA:165,0
BA:167,0
BA:167,0
BA:170,0
BA:170,0
BA:181,0
BA:181,0
BA:181,0
BA:181,0
BA:182,0
BA:182,0
BA:182,0
BA:182,0
BA:184,0
BA:184,0
BA:187,0
BA:187,0
LF:29
LH:0
end_of_record
SF:/home/frechilla/workspace/headless/blockem_sourceforge/src/rules.cpp
FN:33,_ZN5RulesC2Ev
FN:33,_ZN5RulesC1Ev
FN:396,_ZN5Rules35CalculateValidCoordsInStartingPointERK5BoardRK6PlayerRK10CoordinateRKSt6vectorIS6_SaIS6_EEiRSB_
FN:210,_ZN5Rules24IsNucleationPointComputeERK5BoardRK6PlayerRK10Coordinate
FN:467,_ZN5Rules24RecalculateNKAroundCoordERK5BoardRK10CoordinateiR6Player
FN:176,_ZN5Rules32IsPieceDeployableInStartingPointERK5BoardRKSt6vectorI10CoordinateSaIS4_EERKS4_SA_
FN:41,_ZN5Rules21IsCoordTouchingPlayerERK5BoardRK10CoordinateRK6Player
FN:132,_ZN5Rules26IsPieceDeployableInNKPointERK5BoardRKSt6vectorI10CoordinateSaIS4_EERKS4_SA_RK6Player
FN:358,_ZN5Rules30HasValidCoordInNucleationPointERK5BoardRK6PlayerRK10CoordinateRKSt6vectorIS6_SaIS6_EEi
FN:497,_ZN5Rules11CanPlayerGoERK5BoardRK6Player
FN:306,_ZN5Rules37CalculateValidCoordsInNucleationPointERK5BoardRK6PlayerRK10CoordinateRKSt6vectorIS6_SaIS6_EEiRSB_
FN:89,_ZN5Rules17IsPieceDeployableERK5BoardRKSt6vectorI10CoordinateSaIS4_EERKS4_RK6Player
FN:37,_ZN5RulesD0Ev
FN:37,_ZN5RulesD1Ev
FN:37,_ZN5RulesD2Ev
FNDA:0,_ZN5RulesC2Ev
FNDA:0,_ZN5RulesC1Ev
FNDA:0,_ZN5RulesD0Ev
FNDA:0,_ZN5RulesD1Ev
FNDA:0,_ZN5RulesD2Ev
FNDA:269350,_ZN5Rules21IsCoordTouchingPlayerERK5BoardRK10CoordinateRK6Player
FNDA:84084,_ZN5Rules17IsPieceDeployableERK5BoardRKSt6vectorI10CoordinateSaIS4_EERKS4_RK6Player
FNDA:2426,_ZN5Rules26IsPieceDeployableInNKPointERK5BoardRKSt6vectorI10CoordinateSaIS4_EERKS4_SA_RK6Player
FNDA:0,_ZN5Rules32IsPieceDeployableInStartingPointERK5BoardRKSt6vectorI10CoordinateSaIS4_EERKS4_SA_
FNDA:258418,_ZN5Rules24IsNucleationPointComputeERK5BoardRK6PlayerRK10Coordinate
FNDA:155,_ZN5Rules37CalculateValidCoordsInNucleationPointERK5BoardRK6PlayerRK10CoordinateRKSt6vectorIS6_SaIS6_EEiRSB_
FNDA:0,_ZN5Rules30HasValidCoordInNucleationPointERK5BoardRK6PlayerRK10CoordinateRKSt6vectorIS6_SaIS6_EEi
FNDA:1,_ZN5Rules35CalculateValidCoordsInStartingPointERK5BoardRK6PlayerRK10CoordinateRKSt6vectorIS6_SaIS6_EEiRSB_
FNDA:212,_ZN5Rules24RecalculateNKAroundCoordERK5BoardRK10CoordinateiR6Player
FNDA:0,_ZN5Rules11CanPlayerGoERK5BoardRK6Player
FNF:15
FNH:7
DA:33,0
DA:35,0
DA:37,0
DA:39,0
DA:41,269350
DA:47,269350
DA:48,269350
DA:49,269350
DA:50,269350
DA:53,269350
DA:54,269350
DA:58,3381
DA:61,265969
DA:62,265969
DA:66,2568
DA:69,263401
DA:70,263401
DA:71,263401
DA:75,2048
DA:78,261353
DA:79,261353
DA:83,1860
DA:86,259493
DA:89,84084
DA:95,84084
DA:97,84084
DA:103,295514
DA:105,295514
DA:110,27932
DA:113,267582
DA:115,8903
DA:119,258679
DA:125,5923
DA:129,47249
DA:132,2426
DA:140,2426
DA:143,2426
DA:145,2426
DA:151,3185
DA:153,3185
DA:158,1417
DA:161,1768
DA:163,954
DA:166,814
DA:169,199
DA:173,55
DA:176,0
DA:182,0
DA:184,0
DA:190,0
DA:192,0
DA:197,0
DA:200,0
DA:203,0
DA:207,0
DA:210,258418
DA:216,258418
DA:217,258418
DA:218,258418
DA:219,258418
DA:222,258418
DA:224,626
DA:227,257792
DA:229,257792
DA:230,257792
DA:234,367
DA:237,257425
DA:238,257425
DA:242,343
DA:245,257082
DA:247,243613
DA:248,243613
DA:249,243613
DA:252,234
DA:255,243379
DA:256,243379
DA:260,2489
DA:264,240890
DA:265,240890
DA:269,1578
DA:274,256848
DA:276,241689
DA:277,241689
DA:278,241689
DA:281,203
DA:284,241486
DA:285,241486
DA:289,1204
DA:293,240282
DA:294,240282
DA:298,1453
DA:303,256645
DA:306,155
DA:319,155
DA:321,155
DA:323,746
DA:325,3018
DA:329,2426
DA:331,2426
DA:335,20
DA:337,20
DA:338,20
DA:348,1
DA:349,1
DA:351,1
DA:352,1
DA:355,155
DA:358,0
DA:365,0
DA:367,0
DA:369,0
DA:373,0
DA:375,0
DA:378,0
DA:388,0
DA:390,0
DA:393,0
DA:396,1
DA:409,1
DA:411,1
DA:413,4
DA:415,12
DA:417,9
DA:418,9
DA:424,45
DA:426,45
DA:430,0
DA:433,45
DA:437,5
DA:441,9
DA:444,5
DA:448,5
DA:449,5
DA:454,0
DA:457,0
DA:460,0
DA:461,0
DA:464,1
DA:467,212
DA:473,212
DA:474,212
DA:476,212
DA:477,1389
DA:481,7935
DA:485,6758
DA:487,601
DA:491,6157
DA:494,212
DA:495,212
DA:497,0
DA:499,0
DA:501,0
DA:504,0
DA:506,0
DA:508,0
DA:512,0
DA:513,0
DA:515,0
DA:519,0
DA:521,0
DA:528,0
DA:529,0
DA:531,0
DA:533,0
DA:534,0
DA:538,0
DA:541,0
DA:542,0
DA:550,0
DA:552,0
DA:554,0
DA:557,0
DA:562,0
BA:39,0
BA:39,0
BA:39,0
BA:39,0
BA:39,0
BA:39,0
BA:47,1
BA:47,2
BA:48,1
BA:48,2
BA:49,1
BA:49,2
BA:50,1
BA:50,2
BA:54,2
BA:54,2
BA:54,2
BA:54,2
BA:54,2
BA:54,2
BA:62,2
BA:62,2
BA:62,2
BA:62,2
BA:62,2
BA:62,2
BA:71,2
BA:71,2
BA:71,2
BA:71,2
BA:71,2
BA:71,2
BA:79,2
BA:79,2
BA:79,2
BA:79,2
BA:79,2
BA:79,2
BA:97,2
BA:97,2
BA:97,2
BA:97,2
BA:105,2
BA:105,2
BA:105,2
BA:105,2
BA:105,2
BA:105,2
BA:105,2
BA:105,2
BA:105,2
BA:105,2
BA:105,2
BA:105,2
BA:113,2
BA:113,2
BA:119,2
BA:119,2
BA:119,2
BA:119,2
BA:119,2
BA:119,2
BA:140,2
BA:140,1
BA:145,2
BA:145,2
BA:145,2
BA:145,2
BA:153,2
BA:153,2
BA:153,2
BA:153,2
BA:153,2
BA:153,2
BA:153,2
BA:153,2
BA:153,2
BA:153,2
BA:153,2
BA:153,2
BA:161,2
BA:161,2
BA:166,2
BA:166,2
BA:166,2
BA:166,2
BA:184,0
BA:184,0
BA:184,0
BA:184,0
BA:192,0
BA:192,0
BA:192,0
BA:192,0
BA:192,0
BA:192,0
BA:192,0
BA:192,0
BA:192,0
BA:192,0
BA:192,0
BA:192,0
BA:200,0
BA:200,0
BA:200,0
BA:200,0
BA:216,1
BA:216,2
BA:217,1
BA:217,2
BA:218,1
BA:218,2
BA:219,1
BA:219,2
BA:222,2
BA:222,2
BA:230,2
BA:230,2
BA:230,2
BA:230,2
BA:230,2
BA:230,2
BA:238,2
BA:238,2
BA:238,2
BA:238,2
BA:238,2
BA:238,2
BA:245,2
BA:245,2
BA:249,2
BA:249,2
BA:256,2
BA:256,2
BA:256,2
BA:256,2
BA:256,2
BA:256,2
BA:265,2
BA:265,2
BA:265,2
BA:265,2
BA:265,2
BA:265,2
BA:274,2
BA:274,2
BA:278,2
BA:278,2
BA:285,2
BA:285,2
BA:285,2
BA:285,2
BA:285,2
BA:285,2
BA:294,2
BA:294,2
BA:294,2
BA:294,2
BA:294,2
BA:294,2
BA:321,2
BA:321,2
BA:323,2
BA:323,2
BA:325,2
BA:325,2
BA:331,2
BA:331,2
BA:335,1
BA:335,2
BA:348,2
BA:348,1
BA:349,1
BA:349,2
BA:365,0
BA:365,0
BA:367,0
BA:367,0
BA:369,0
BA:369,0
BA:369,0
BA:369,0
BA:375,0
BA:375,0
BA:388,0
BA:388,0
BA:411,2
BA:411,1
BA:413,2
BA:413,2
BA:415,2
BA:415,2
BA:418,1
BA:418,2
BA:418,2
BA:418,2
BA:426,2
BA:426,1
BA:426,2
BA:426,1
BA:426,2
BA:426,1
BA:426,2
BA:426,1
BA:426,1
BA:426,2
BA:426,1
BA:426,2
BA:433,2
BA:433,2
BA:433,2
BA:433,2
BA:441,2
BA:441,2
BA:441,2
BA:441,1
BA:441,2
BA:441,2
BA:444,1
BA:444,2
BA:454,0
BA:454,0
BA:457,0
BA:457,0
BA:477,2
BA:477,2
BA:481,2
BA:481,2
BA:485,2
BA:485,2
BA:499,0
BA:499,0
BA:504,0
BA:504,0
BA:506,0
BA:506,0
BA:515,0
BA:515,0
BA:515,0
BA:515,0
BA:519,0
BA:519,0
BA:531,0
BA:531,0
BA:534,0
BA:534,0
BA:542,0
BA:542,0
BA:552,0
BA:552,0
LF:173
LH:121
end_of_record
TN:
SF:/usr/include/c++/4.4/bits/allocator.h
FN:167,_ZNSt11__alloc_neqISaISt10_List_nodeISt6vectorI10CoordinateSaIS2_EEEELb1EE8_S_do_itERKS6_S9_
FN:167,_ZNSt11__alloc_neqISaISt10_List_nodeIyEELb1EE8_S_do_itERKS2_S5_
FN:107,_ZNSaI10CoordinateEC1ISt13_Rb_tree_nodeIS_EEERKSaIT_E
FN:109,_ZNSaI10CoordinateED1Ev
FN:107,_ZNSaISt6vectorI10CoordinateSaIS0_EEEC1ISt10_List_nodeIS2_EEERKSaIT_E
FN:109,_ZNSaI10CoordinateED2Ev
FN:109,_ZNSaISt6vectorI10CoordinateSaIS0_EEED1Ev
FN:107,_ZNSaISt10_List_nodeISt6vectorI10CoordinateSaIS1_EEEEC1IS3_EERKSaIT_E
FN:103,_ZNSaISt10_List_nodeISt6vectorI10CoordinateSaIS1_EEEEC2ERKS5_
FN:109,_ZNSaISt10_List_nodeISt6vectorI10CoordinateSaIS1_EEEED1Ev
FN:109,_ZNSaISt10_List_nodeISt6vectorI10CoordinateSaIS1_EEEED2Ev
FN:103,_ZNSaI10CoordinateEC2ERKS0_
FN:107,_ZNSaIyEC1ISt10_List_nodeIyEEERKSaIT_E
FN:109,_ZNSaIyED1Ev
FN:107,_ZNSaISt10_List_nodeIyEEC1IyEERKSaIT_E
FN:103,_ZNSaISt10_List_nodeIyEEC2ERKS1_
FN:109,_ZNSaISt10_List_nodeIyEED1Ev
FN:109,_ZNSaISt10_List_nodeIyEED2Ev
FN:101,_ZNSaIcEC1Ev
FN:103,_ZNSaIcEC2ERKS_
FN:109,_ZNSaIcED1Ev
FN:103,_ZNSaIcEC1ERKS_
FN:109,_ZNSaIcED2Ev
FNDA:0,_ZNSaIcEC1Ev
FNDA:0,_ZNSaISt10_List_nodeISt6vectorI10CoordinateSaIS1_EEEEC2ERKS5_
FNDA:0,_ZNSaI10CoordinateEC2ERKS0_
FNDA:0,_ZNSaISt10_List_nodeIyEEC2ERKS1_
FNDA:0,_ZNSaIcEC2ERKS_
FNDA:0,_ZNSaIcEC1ERKS_
FNDA:0,_ZNSaI10CoordinateEC1ISt13_Rb_tree_nodeIS_EEERKSaIT_E
FNDA:0,_ZNSaISt6vectorI10CoordinateSaIS0_EEEC1ISt10_List_nodeIS2_EEERKSaIT_E
FNDA:0,_ZNSaISt10_List_nodeISt6vectorI10CoordinateSaIS1_EEEEC1IS3_EERKSaIT_E
FNDA:0,_ZNSaIyEC1ISt10_List_nodeIyEEERKSaIT_E
FNDA:0,_ZNSaISt10_List_nodeIyEEC1IyEERKSaIT_E
FNDA:0,_ZNSaI10CoordinateED1Ev
FNDA:0,_ZNSaI10CoordinateED2Ev
FNDA:0,_ZNSaISt6vectorI10CoordinateSaIS0_EEED1Ev
FNDA:0,_ZNSaISt10_List_nodeISt6vectorI10CoordinateSaIS1_EEEED1Ev
FNDA:0,_ZNSaISt10_List_nodeISt6vectorI10CoordinateSaIS1_EEEED2Ev
FNDA:0,_ZNSaIyED1Ev
FNDA:0,_ZNSaISt10_List_nodeIyEED1Ev
FNDA:0,_ZNSaISt10_List_nodeIyEED2Ev
FNDA:0,_ZNSaIcED1Ev
FNDA:0,_ZNSaIcED2Ev
FNDA:0,_ZNSt11__alloc_neqISaISt10_List_nodeISt6vectorI10CoordinateSaIS2_EEEELb1EE8_S_do_itERKS6_S9_
FNDA:0,_ZNSt11__alloc_neqISaISt10_List_nodeIyEELb1EE8_S_do_itERKS2_S5_
FNF:23
FNH:0
DA:101,0
DA:103,0
DA:104,0
DA:107,0
DA:109,0
DA:167,0
DA:168,0
LF:7
LH:0
end_of_record
SF:/usr/include/c++/4.4/bits/basic_ios.h
FN:127,_ZNKSt9basic_iosIcSt11char_traitsIcEE7rdstateEv
FN:46,_ZSt13__check_facetISt5ctypeIcEERKT_PS3_
FN:439,_ZNKSt9basic_iosIcSt11char_traitsIcEE5widenEc
FN:360,_ZNKSt9basic_iosIcSt11char_traitsIcEE4fillEv
FN:380,_ZNSt9basic_iosIcSt11char_traitsIcEE4fillEc
FN:147,_ZNSt9basic_iosIcSt11char_traitsIcEE8setstateESt12_Ios_Iostate
FNDA:0,_ZSt13__check_facetISt5ctypeIcEERKT_PS3_
FNDA:0,_ZNKSt9basic_iosIcSt11char_traitsIcEE7rdstateEv
FNDA:0,_ZNSt9basic_iosIcSt11char_traitsIcEE8setstateESt12_Ios_Iostate
FNDA:0,_ZNKSt9basic_iosIcSt11char_traitsIcEE4fillEv
FNDA:0,_ZNSt9basic_iosIcSt11char_traitsIcEE4fillEc
FNDA:0,_ZNKSt9basic_iosIcSt11char_traitsIcEE5widenEc
FNF:6
FNH:0
DA:46,0
DA:48,0
DA:49,0
DA:50,0
DA:127,0
DA:128,0
DA:147,0
DA:148,0
DA:360,0
DA:362,0
DA:364,0
DA:365,0
DA:367,0
DA:380,0
DA:382,0
DA:383,0
DA:384,0
DA:439,0
DA:440,0
BA:48,0
BA:48,0
BA:362,0
BA:362,0
LF:19
LH:0
end_of_record
SF:/usr/include/c++/4.4/bits/basic_string.h
FN:209,_ZNSs4_Rep10_M_refdataEv
FN:272,_ZNKSs7_M_dataEv
FN:280,_ZNKSs6_M_repEv
FN:173,_ZNSs4_Rep12_S_empty_repEv
FN:406,_ZNSs12_S_empty_repEv
FN:254,_ZNSs12_Alloc_hiderC1EPcRKSaIcE
FN:2147,_ZNSsC1Ev
FN:1632,_ZNKSs13get_allocatorEv
FN:253,_ZNSs12_Alloc_hiderD1Ev
FN:505,_ZNSsaSERKSs
FN:224,_ZNSs4_Rep10_M_disposeERKSaIcE
FN:497,_ZNSsD1Ev
FNDA:0,_ZNSs4_Rep12_S_empty_repEv
FNDA:0,_ZNSs4_Rep10_M_refdataEv
FNDA:0,_ZNSs4_Rep10_M_disposeERKSaIcE
FNDA:0,_ZNSs12_Alloc_hiderD1Ev
FNDA:0,_ZNSs12_Alloc_hiderC1EPcRKSaIcE
FNDA:0,_ZNKSs7_M_dataEv
FNDA:0,_ZNKSs6_M_repEv
FNDA:0,_ZNSs12_S_empty_repEv
FNDA:0,_ZNSsD1Ev
FNDA:0,_ZNSsaSERKSs
FNDA:0,_ZNKSs13get_allocatorEv
FNDA:0,_ZNSsC1Ev
FNF:12
FNH:0
DA:173,0
DA:178,0
DA:179,0
DA:209,0
DA:210,0
DA:224,0
DA:227,0
DA:229,0
DA:231,0
DA:232,0
DA:253,0
DA:254,0
DA:255,0
DA:272,0
DA:273,0
DA:280,0
DA:281,0
DA:406,0
DA:407,0
DA:497,0
DA:498,0
DA:505,0
DA:506,0
DA:1632,0
DA:1633,0
DA:2147,0
DA:2150,0
BA:227,0
BA:227,0
BA:229,0
BA:229,0
LF:27
LH:0
end_of_record
SF:/usr/include/c++/4.4/bits/char_traits.h
FN:262,_ZNSt11char_traitsIcE6lengthEPKc
FNDA:0,_ZNSt11char_traitsIcE6lengthEPKc
FNF:1
FNH:0
DA:262,0
DA:263,0
LF:2
LH:0
end_of_record
SF:/usr/include/c++/4.4/bits/ios_base.h
FN:166,_ZStorSt12_Ios_IostateS_
FN:657,_ZNSt8ios_base5widthEi
FNDA:0,_ZStorSt12_Ios_IostateS_
FNDA:0,_ZNSt8ios_base5widthEi
FNF:2
FNH:0
DA:166,0
DA:167,0
DA:657,0
DA:659,0
DA:660,0
DA:661,0
LF:6
LH:0
end_of_record
SF:/usr/include/c++/4.4/bits/list.tcc
FN:64,_ZNSt10_List_baseISt6vectorI10CoordinateSaIS1_EESaIS3_EE8_M_clearEv
FN:64,_ZNSt10_List_baseIySaIyEE8_M_clearEv
FN:107,_ZNSt4listISt6vectorI10CoordinateSaIS1_EESaIS3_EE5eraseESt14_List_iteratorIS3_E
FN:107,_ZNSt4listIySaIyEE5eraseESt14_List_iteratorIyE
FN:132,_ZNSt4listISt6vectorI10CoordinateSaIS1_EESaIS3_EEaSERKS5_
FN:132,_ZNSt4listIySaIyEEaSERKS1_
FNDA:0,_ZNSt10_List_baseISt6vectorI10CoordinateSaIS1_EESaIS3_EE8_M_clearEv
FNDA:0,_ZNSt10_List_baseIySaIyEE8_M_clearEv
FNDA:0,_ZNSt4listISt6vectorI10CoordinateSaIS1_EESaIS3_EE5eraseESt14_List_iteratorIS3_E
FNDA:0,_ZNSt4listIySaIyEE5eraseESt14_List_iteratorIyE
FNDA:0,_ZNSt4listISt6vectorI10CoordinateSaIS1_EESaIS3_EEaSERKS5_
FNDA:0,_ZNSt4listIySaIyEEaSERKS1_
FNF:6
FNH:0
DA:64,0
DA:68,0
DA:69,0
DA:71,0
DA:72,0
DA:76,0
DA:78,0
DA:80,0
DA:107,0
DA:110,0
DA:111,0
DA:132,0
DA:135,0
DA:137,0
DA:138,0
DA:139,0
DA:140,0
DA:141,0
DA:143,0
DA:144,0
DA:145,0
DA:147,0
DA:149,0
BA:69,0
BA:69,0
BA:69,0
BA:69,0
BA:135,0
BA:135,0
BA:135,0
BA:135,0
BA:141,0
BA:141,0
BA:141,0
BA:141,0
BA:141,0
BA:141,0
BA:141,0
BA:141,0
BA:141,0
BA:141,0
BA:141,0
BA:141,0
BA:144,0
BA:144,0
BA:144,0
BA:144,0
LF:23
LH:0
end_of_record
SF:/usr/include/c++/4.4/bits/locale_facets.h
FN:865,_ZNKSt5ctypeIcE5widenEc
FNDA:0,_ZNKSt5ctypeIcE5widenEc
FNF:1
FNH:0
DA:865,0
DA:867,0
DA:868,0
DA:869,0
DA:870,0
BA:867,0
BA:867,0
LF:5
LH:0
end_of_record
SF:/usr/include/c++/4.4/bits/stl_algobase.h
FN:209,_ZSt3maxIiERKT_S2_S2_
FN:287,_ZNSt12__miter_baseIN9__gnu_cxx17__normal_iteratorIPK10CoordinateSt6vectorIS2_SaIS2_EEEELb0EE3__bES8_
FN:287,_ZNSt12__miter_baseIP10CoordinateLb0EE3__bES1_
FN:269,_ZNSt12__niter_baseIP10CoordinateLb0EE3__bES1_
FN:277,_ZNSt12__niter_baseIN9__gnu_cxx17__normal_iteratorIPK10CoordinateSt6vectorIS2_SaIS2_EEEELb1EE3__bES8_
FN:277,_ZNSt12__niter_baseIN9__gnu_cxx17__normal_iteratorIP10CoordinateSt6vectorIS2_SaIS2_EEEELb1EE3__bES7_
FN:338,_ZNSt11__copy_moveILb0ELb0ESt26random_access_iterator_tagE8__copy_mIPK10CoordinatePS3_EET0_T_S8_S7_
FN:386,_ZSt13__copy_move_aILb0EPK10CoordinatePS0_ET1_T0_S5_S4_
FN:431,_ZSt14__copy_move_a2ILb0EN9__gnu_cxx17__normal_iteratorIPK10CoordinateSt6vectorIS2_SaIS2_EEEENS1_IPS2_S7_EEET1_T0_SC_SB_
FN:458,_ZSt4copyIN9__gnu_cxx17__normal_iteratorIPK10CoordinateSt6vectorIS2_SaIS2_EEEENS1_IPS2_S7_EEET0_T_SC_SB_
FN:338,_ZNSt11__copy_moveILb0ELb0ESt26random_access_iterator_tagE8__copy_mIP10CoordinateS4_EET0_T_S6_S5_
FN:386,_ZSt13__copy_move_aILb0EP10CoordinateS1_ET1_T0_S3_S2_
FN:431,_ZSt14__copy_move_a2ILb0EP10CoordinateS1_ET1_T0_S3_S2_
FN:458,_ZSt4copyIP10CoordinateS1_ET0_T_S3_S2_
FNDA:0,_ZSt3maxIiERKT_S2_S2_
FNDA:0,_ZNSt12__niter_baseIP10CoordinateLb0EE3__bES1_
FNDA:0,_ZNSt12__niter_baseIN9__gnu_cxx17__normal_iteratorIPK10CoordinateSt6vectorIS2_SaIS2_EEEELb1EE3__bES8_
FNDA:0,_ZNSt12__niter_baseIN9__gnu_cxx17__normal_iteratorIP10CoordinateSt6vectorIS2_SaIS2_EEEELb1EE3__bES7_
FNDA:0,_ZNSt12__miter_baseIN9__gnu_cxx17__normal_iteratorIPK10CoordinateSt6vectorIS2_SaIS2_EEEELb0EE3__bES8_
FNDA:0,_ZNSt12__miter_baseIP10CoordinateLb0EE3__bES1_
FNDA:0,_ZNSt11__copy_moveILb0ELb0ESt26random_access_iterator_tagE8__copy_mIPK10CoordinatePS3_EET0_T_S8_S7_
FNDA:0,_ZNSt11__copy_moveILb0ELb0ESt26random_access_iterator_tagE8__copy_mIP10CoordinateS4_EET0_T_S6_S5_
FNDA:0,_ZSt13__copy_move_aILb0EPK10CoordinatePS0_ET1_T0_S5_S4_
FNDA:0,_ZSt13__copy_move_aILb0EP10CoordinateS1_ET1_T0_S3_S2_
FNDA:0,_ZSt14__copy_move_a2ILb0EN9__gnu_cxx17__normal_iteratorIPK10CoordinateSt6vectorIS2_SaIS2_EEEENS1_IPS2_S7_EEET1_T0_SC_SB_
FNDA:0,_ZSt14__copy_move_a2ILb0EP10CoordinateS1_ET1_T0_S3_S2_
FNDA:0,_ZSt4copyIN9__gnu_cxx17__normal_iteratorIPK10CoordinateSt6vectorIS2_SaIS2_EEEENS1_IPS2_S7_EEET0_T_SC_SB_
FNDA:0,_ZSt4copyIP10CoordinateS1_ET0_T_S3_S2_
FNF:14
FNH:0
DA:209,0
DA:214,0
DA:215,0
DA:216,0
DA:269,0
DA:270,0
DA:277,0
DA:278,0
DA:287,0
DA:288,0
DA:338,0
DA:341,0
DA:343,0
DA:344,0
DA:345,0
DA:347,0
DA:386,0
DA:394,0
DA:397,0
DA:431,0
DA:436,0
DA:458,0
DA:468,0
BA:214,0
BA:214,0
BA:341,0
BA:341,0
BA:341,0
BA:341,0
LF:23
LH:0
end_of_record
SF:/usr/include/c++/4.4/bits/stl_construct.h
FN:82,_ZSt8_DestroyI10CoordinateEvPT_
FN:90,_ZNSt12_Destroy_auxILb0EE9__destroyIP10CoordinateEEvT_S4_
FN:112,_ZSt8_DestroyIP10CoordinateEvT_S2_
FN:139,_ZSt8_DestroyIP10CoordinateS0_EvT_S2_RSaIT0_E
FN:90,_ZNSt12_Destroy_auxILb0EE9__destroyIN9__gnu_cxx17__normal_iteratorIP10CoordinateSt6vectorIS4_SaIS4_EEEEEEvT_SA_
FN:112,_ZSt8_DestroyIN9__gnu_cxx17__normal_iteratorIP10CoordinateSt6vectorIS2_SaIS2_EEEEEvT_S8_
FN:139,_ZSt8_DestroyIN9__gnu_cxx17__normal_iteratorIP10CoordinateSt6vectorIS2_SaIS2_EEEES2_EvT_S8_RSaIT0_E
FNDA:0,_ZSt8_DestroyI10CoordinateEvPT_
FNDA:0,_ZNSt12_Destroy_auxILb0EE9__destroyIP10CoordinateEEvT_S4_
FNDA:0,_ZNSt12_Destroy_auxILb0EE9__destroyIN9__gnu_cxx17__normal_iteratorIP10CoordinateSt6vectorIS4_SaIS4_EEEEEEvT_SA_
FNDA:0,_ZSt8_DestroyIP10CoordinateEvT_S2_
FNDA:0,_ZSt8_DestroyIN9__gnu_cxx17__normal_iteratorIP10CoordinateSt6vectorIS2_SaIS2_EEEEEvT_S8_
FNDA:0,_ZSt8_DestroyIP10CoordinateS0_EvT_S2_RSaIT0_E
FNDA:0,_ZSt8_DestroyIN9__gnu_cxx17__normal_iteratorIP10CoordinateSt6vectorIS2_SaIS2_EEEES2_EvT_S8_RSaIT0_E
FNF:7
FNH:0
DA:82,0
DA:83,0
DA:90,0
DA:92,0
DA:93,0
DA:94,0
DA:112,0
DA:116,0
DA:118,0
DA:139,0
DA:142,0
DA:143,0
BA:92,0
BA:92,0
BA:92,0
BA:92,0
LF:12
LH:0
end_of_record
SF:/usr/include/c++/4.4/bits/stl_function.h
FN:475,_ZNKSt9_IdentityI10CoordinateEclERKS0_
FNDA:0,_ZNKSt9_IdentityI10CoordinateEclERKS0_
FNF:1
FNH:0
DA:475,0
DA:476,0
LF:2
LH:0
end_of_record
SF:/usr/include/c++/4.4/bits/stl_iterator.h
FN:686,_ZN9__gnu_cxx17__normal_iteratorIPK10CoordinateSt6vectorIS1_SaIS1_EEEC1ERKS3_
FN:686,_ZN9__gnu_cxx17__normal_iteratorIP10CoordinateSt6vectorIS1_SaIS1_EEEC1ERKS2_
FN:750,_ZNK9__gnu_cxx17__normal_iteratorIPK10CoordinateSt6vectorIS1_SaIS1_EEE4baseEv
FN:750,_ZNK9__gnu_cxx17__normal_iteratorIP10CoordinateSt6vectorIS1_SaIS1_EEE4baseEv
FN:783,_ZN9__gnu_cxxneIP10CoordinateSt6vectorIS1_SaIS1_EEEEbRKNS_17__normal_iteratorIT_T0_EESB_
FN:706,_ZN9__gnu_cxx17__normal_iteratorIP10CoordinateSt6vectorIS1_SaIS1_EEEppEv
FN:698,_ZNK9__gnu_cxx17__normal_iteratorIP10CoordinateSt6vectorIS1_SaIS1_EEEdeEv
FN:783,_ZN9__gnu_cxxneIPK10CoordinateSt6vectorIS1_SaIS1_EEEEbRKNS_17__normal_iteratorIT_T0_EESC_
FN:706,_ZN9__gnu_cxx17__normal_iteratorIPK10CoordinateSt6vectorIS1_SaIS1_EEEppEv
FN:698,_ZNK9__gnu_cxx17__normal_iteratorIPK10CoordinateSt6vectorIS1_SaIS1_EEEdeEv
FNDA:0,_ZN9__gnu_cxx17__normal_iteratorIPK10CoordinateSt6vectorIS1_SaIS1_EEEC1ERKS3_
FNDA:0,_ZN9__gnu_cxx17__normal_iteratorIP10CoordinateSt6vectorIS1_SaIS1_EEEC1ERKS2_
FNDA:0,_ZNK9__gnu_cxx17__normal_iteratorIP10CoordinateSt6vectorIS1_SaIS1_EEEdeEv
FNDA:0,_ZNK9__gnu_cxx17__normal_iteratorIPK10CoordinateSt6vectorIS1_SaIS1_EEEdeEv
FNDA:0,_ZN9__gnu_cxx17__normal_iteratorIP10CoordinateSt6vectorIS1_SaIS1_EEEppEv
FNDA:0,_ZN9__gnu_cxx17__normal_iteratorIPK10CoordinateSt6vectorIS1_SaIS1_EEEppEv
FNDA:0,_ZNK9__gnu_cxx17__normal_iteratorIPK10CoordinateSt6vectorIS1_SaIS1_EEE4baseEv
FNDA:0,_ZNK9__gnu_cxx17__normal_iteratorIP10CoordinateSt6vectorIS1_SaIS1_EEE4baseEv
FNDA:0,_ZN9__gnu_cxxneIP10CoordinateSt6vectorIS1_SaIS1_EEEEbRKNS_17__normal_iteratorIT_T0_EESB_
FNDA:0,_ZN9__gnu_cxxneIPK10CoordinateSt6vectorIS1_SaIS1_EEEEbRKNS_17__normal_iteratorIT_T0_EESC_
FNF:10
FNH:0
DA:686,0
DA:698,0
DA:699,0
DA:706,0
DA:708,0
DA:709,0
DA:750,0
DA:751,0
DA:783,0
DA:785,0
LF:10
LH:0
end_of_record
SF:/usr/include/c++/4.4/bits/stl_list.h
FN:255,_ZNKSt20_List_const_iteratorISt6vectorI10CoordinateSaIS1_EEEneERKS4_
FN:175,_ZNKSt14_List_iteratorISt6vectorI10CoordinateSaIS1_EEEneERKS4_
FN:221,_ZNSt20_List_const_iteratorISt6vectorI10CoordinateSaIS1_EEEppEv
FN:141,_ZNSt14_List_iteratorISt6vectorI10CoordinateSaIS1_EEEppEv
FN:213,_ZNKSt20_List_const_iteratorISt6vectorI10CoordinateSaIS1_EEEdeEv
FN:133,_ZNKSt14_List_iteratorISt6vectorI10CoordinateSaIS1_EEEdeEv
FN:251,_ZNKSt20_List_const_iteratorISt6vectorI10CoordinateSaIS1_EEEeqERKS4_
FN:255,_ZNKSt20_List_const_iteratorIyEneERKS0_
FN:175,_ZNKSt14_List_iteratorIyEneERKS0_
FN:221,_ZNSt20_List_const_iteratorIyEppEv
FN:141,_ZNSt14_List_iteratorIyEppEv
FN:213,_ZNKSt20_List_const_iteratorIyEdeEv
FN:133,_ZNKSt14_List_iteratorIyEdeEv
FN:251,_ZNKSt20_List_const_iteratorIyEeqERKS0_
FN:128,_ZNSt14_List_iteratorISt6vectorI10CoordinateSaIS1_EEEC1EPSt15_List_node_base
FN:689,_ZNSt4listISt6vectorI10CoordinateSaIS1_EESaIS3_EE5beginEv
FN:707,_ZNSt4listISt6vectorI10CoordinateSaIS1_EESaIS3_EE3endEv
FN:204,_ZNSt20_List_const_iteratorISt6vectorI10CoordinateSaIS1_EEEC1EPKSt15_List_node_base
FN:698,_ZNKSt4listISt6vectorI10CoordinateSaIS1_EESaIS3_EE5beginEv
FN:716,_ZNKSt4listISt6vectorI10CoordinateSaIS1_EESaIS3_EE3endEv
FN:326,_ZNSt10_List_baseISt6vectorI10CoordinateSaIS1_EESaIS3_EE21_M_get_Node_allocatorEv
FN:128,_ZNSt14_List_iteratorIyEC1EPSt15_List_node_base
FN:689,_ZNSt4listIySaIyEE5beginEv
FN:707,_ZNSt4listIySaIyEE3endEv
FN:204,_ZNSt20_List_const_iteratorIyEC1EPKSt15_List_node_base
FN:698,_ZNKSt4listIySaIyEE5beginEv
FN:716,_ZNKSt4listIySaIyEE3endEv
FN:326,_ZNSt10_List_baseIySaIyEE21_M_get_Node_allocatorEv
FN:799,_ZNKSt4listISt6vectorI10CoordinateSaIS1_EESaIS3_EE5emptyEv
FN:799,_ZNKSt4listIySaIyEE5emptyEv
FN:366,_ZNSt10_List_baseISt6vectorI10CoordinateSaIS1_EESaIS3_EE7_M_initEv
FN:366,_ZNSt10_List_baseIySaIyEE7_M_initEv
FN:330,_ZNKSt10_List_baseISt6vectorI10CoordinateSaIS1_EESaIS3_EE21_M_get_Node_allocatorEv
FN:330,_ZNKSt10_List_baseIySaIyEE21_M_get_Node_allocatorEv
FN:319,_ZNSt10_List_baseISt6vectorI10CoordinateSaIS1_EESaIS3_EE11_M_put_nodeEPSt10_List_nodeIS3_E
FN:319,_ZNSt10_List_baseIySaIyEE11_M_put_nodeEPSt10_List_nodeIyE
FN:315,_ZNSt10_List_baseISt6vectorI10CoordinateSaIS1_EESaIS3_EE11_M_get_nodeEv
FN:315,_ZNSt10_List_baseIySaIyEE11_M_get_nodeEv
FN:334,_ZNKSt10_List_baseISt6vectorI10CoordinateSaIS1_EESaIS3_EE19_M_get_Tp_allocatorEv
FN:307,_ZNSt10_List_baseISt6vectorI10CoordinateSaIS1_EESaIS3_EE10_List_implC1ERKSaISt10_List_nodeIS3_EE
FN:300,_ZNSt10_List_baseISt6vectorI10CoordinateSaIS1_EESaIS3_EE10_List_implD1Ev
FN:345,_ZNSt10_List_baseISt6vectorI10CoordinateSaIS1_EESaIS3_EEC2ERKS4_
FN:359,_ZNSt10_List_baseISt6vectorI10CoordinateSaIS1_EESaIS3_EED2Ev
FN:418,_ZNSt4listISt6vectorI10CoordinateSaIS1_EESaIS3_EED1Ev
FN:459,_ZNSt4listISt6vectorI10CoordinateSaIS1_EESaIS3_EE14_M_create_nodeERKS3_
FN:334,_ZNKSt10_List_baseIySaIyEE19_M_get_Tp_allocatorEv
FN:459,_ZNSt4listIySaIyEE14_M_create_nodeERKy
FN:307,_ZNSt10_List_baseIySaIyEE10_List_implC1ERKSaISt10_List_nodeIyEE
FN:300,_ZNSt10_List_baseIySaIyEE10_List_implD1Ev
FN:345,_ZNSt10_List_baseIySaIyEEC2ERKS0_
FN:359,_ZNSt10_List_baseIySaIyEED2Ev
FN:418,_ZNSt4listIySaIyEED1Ev
FN:1422,_ZNSt4listISt6vectorI10CoordinateSaIS1_EESaIS3_EE8_M_eraseESt14_List_iteratorIS3_E
FN:1092,_ZNSt4listISt6vectorI10CoordinateSaIS1_EESaIS3_EE5eraseESt14_List_iteratorIS3_ES7_
FN:1422,_ZNSt4listIySaIyEE8_M_eraseESt14_List_iteratorIyE
FN:1092,_ZNSt4listIySaIyEE5eraseESt14_List_iteratorIyES3_
FN:1405,_ZNSt4listISt6vectorI10CoordinateSaIS1_EESaIS3_EE9_M_insertESt14_List_iteratorIS3_ERKS3_
FN:919,_ZNSt4listISt6vectorI10CoordinateSaIS1_EESaIS3_EE9push_backERKS3_
FN:1357,_ZNSt4listISt6vectorI10CoordinateSaIS1_EESaIS3_EE22_M_initialize_dispatchISt20_List_const_iteratorIS3_EEEvT_S9_St12__false_type
FN:571,_ZNSt4listISt6vectorI10CoordinateSaIS1_EESaIS3_EEC1ISt20_List_const_iteratorIS3_EEET_S9_RKS4_
FN:1405,_ZNSt4listIySaIyEE9_M_insertESt14_List_iteratorIyERKy
FN:919,_ZNSt4listIySaIyEE9push_backERKy
FN:1357,_ZNSt4listIySaIyEE22_M_initialize_dispatchISt20_List_const_iteratorIyEEEvT_S5_St12__false_type
FN:571,_ZNSt4listIySaIyEEC1ISt20_List_const_iteratorIyEEET_S5_RKS0_
FN:1436,_ZNSt4listISt6vectorI10CoordinateSaIS1_EESaIS3_EE25_M_check_equal_allocatorsERS5_
FN:1436,_ZNSt4listIySaIyEE25_M_check_equal_allocatorsERS1_
FN:1399,_ZNSt4listISt6vectorI10CoordinateSaIS1_EESaIS3_EE11_M_transferESt14_List_iteratorIS3_ES7_S7_
FN:1152,_ZNSt4listISt6vectorI10CoordinateSaIS1_EESaIS3_EE6spliceESt14_List_iteratorIS3_ERS5_
FN:1048,_ZNSt4listISt6vectorI10CoordinateSaIS1_EESaIS3_EE6insertISt20_List_const_iteratorIS3_EEEvSt14_List_iteratorIS3_ET_SB_
FN:1399,_ZNSt4listIySaIyEE11_M_transferESt14_List_iteratorIyES3_S3_
FN:1152,_ZNSt4listIySaIyEE6spliceESt14_List_iteratorIyERS1_
FN:1048,_ZNSt4listIySaIyEE6insertISt20_List_const_iteratorIyEEEvSt14_List_iteratorIyET_S7_
FNDA:0,_ZNSt14_List_iteratorISt6vectorI10CoordinateSaIS1_EEEC1EPSt15_List_node_base
FNDA:0,_ZNSt14_List_iteratorIyEC1EPSt15_List_node_base
FNDA:0,_ZNKSt14_List_iteratorISt6vectorI10CoordinateSaIS1_EEEdeEv
FNDA:0,_ZNKSt14_List_iteratorIyEdeEv
FNDA:0,_ZNSt14_List_iteratorISt6vectorI10CoordinateSaIS1_EEEppEv
FNDA:0,_ZNSt14_List_iteratorIyEppEv
FNDA:0,_ZNKSt14_List_iteratorISt6vectorI10CoordinateSaIS1_EEEneERKS4_
FNDA:0,_ZNKSt14_List_iteratorIyEneERKS0_
FNDA:0,_ZNSt20_List_const_iteratorISt6vectorI10CoordinateSaIS1_EEEC1EPKSt15_List_node_base
FNDA:0,_ZNSt20_List_const_iteratorIyEC1EPKSt15_List_node_base
FNDA:0,_ZNKSt20_List_const_iteratorISt6vectorI10CoordinateSaIS1_EEEdeEv
FNDA:0,_ZNKSt20_List_const_iteratorIyEdeEv
FNDA:0,_ZNSt20_List_const_iteratorISt6vectorI10CoordinateSaIS1_EEEppEv
FNDA:0,_ZNSt20_List_const_iteratorIyEppEv
FNDA:0,_ZNKSt20_List_const_iteratorISt6vectorI10CoordinateSaIS1_EEEeqERKS4_
FNDA:0,_ZNKSt20_List_const_iteratorIyEeqERKS0_
FNDA:0,_ZNKSt20_List_const_iteratorISt6vectorI10CoordinateSaIS1_EEEneERKS4_
FNDA:0,_ZNKSt20_List_const_iteratorIyEneERKS0_
FNDA:0,_ZNSt10_List_baseISt6vectorI10CoordinateSaIS1_EESaIS3_EE10_List_implD1Ev
FNDA:0,_ZNSt10_List_baseIySaIyEE10_List_implD1Ev
FNDA:0,_ZNSt10_List_baseISt6vectorI10CoordinateSaIS1_EESaIS3_EE10_List_implC1ERKSaISt10_List_nodeIS3_EE
FNDA:0,_ZNSt10_List_baseIySaIyEE10_List_implC1ERKSaISt10_List_nodeIyEE
FNDA:0,_ZNSt10_List_baseISt6vectorI10CoordinateSaIS1_EESaIS3_EE11_M_get_nodeEv
FNDA:0,_ZNSt10_List_baseIySaIyEE11_M_get_nodeEv
FNDA:0,_ZNSt10_List_baseISt6vectorI10CoordinateSaIS1_EESaIS3_EE11_M_put_nodeEPSt10_List_nodeIS3_E
FNDA:0,_ZNSt10_List_baseIySaIyEE11_M_put_nodeEPSt10_List_nodeIyE
FNDA:0,_ZNSt10_List_baseISt6vectorI10CoordinateSaIS1_EESaIS3_EE21_M_get_Node_allocatorEv
FNDA:0,_ZNSt10_List_baseIySaIyEE21_M_get_Node_allocatorEv
FNDA:0,_ZNKSt10_List_baseISt6vectorI10CoordinateSaIS1_EESaIS3_EE21_M_get_Node_allocatorEv
FNDA:0,_ZNKSt10_List_baseIySaIyEE21_M_get_Node_allocatorEv
FNDA:0,_ZNKSt10_List_baseISt6vectorI10CoordinateSaIS1_EESaIS3_EE19_M_get_Tp_allocatorEv
FNDA:0,_ZNKSt10_List_baseIySaIyEE19_M_get_Tp_allocatorEv
FNDA:0,_ZNSt10_List_baseISt6vectorI10CoordinateSaIS1_EESaIS3_EEC2ERKS4_
FNDA:0,_ZNSt10_List_baseIySaIyEEC2ERKS0_
FNDA:0,_ZNSt10_List_baseISt6vectorI10CoordinateSaIS1_EESaIS3_EED2Ev
FNDA:0,_ZNSt10_List_baseIySaIyEED2Ev
FNDA:0,_ZNSt10_List_baseISt6vectorI10CoordinateSaIS1_EESaIS3_EE7_M_initEv
FNDA:0,_ZNSt10_List_baseIySaIyEE7_M_initEv
FNDA:0,_ZNSt4listISt6vectorI10CoordinateSaIS1_EESaIS3_EED1Ev
FNDA:0,_ZNSt4listIySaIyEED1Ev
FNDA:0,_ZNSt4listISt6vectorI10CoordinateSaIS1_EESaIS3_EE14_M_create_nodeERKS3_
FNDA:0,_ZNSt4listIySaIyEE14_M_create_nodeERKy
FNDA:0,_ZNSt4listISt6vectorI10CoordinateSaIS1_EESaIS3_EEC1ISt20_List_const_iteratorIS3_EEET_S9_RKS4_
FNDA:0,_ZNSt4listIySaIyEEC1ISt20_List_const_iteratorIyEEET_S5_RKS0_
FNDA:0,_ZNSt4listISt6vectorI10CoordinateSaIS1_EESaIS3_EE5beginEv
FNDA:0,_ZNSt4listIySaIyEE5beginEv
FNDA:0,_ZNKSt4listISt6vectorI10CoordinateSaIS1_EESaIS3_EE5beginEv
FNDA:0,_ZNKSt4listIySaIyEE5beginEv
FNDA:0,_ZNSt4listISt6vectorI10CoordinateSaIS1_EESaIS3_EE3endEv
FNDA:0,_ZNSt4listIySaIyEE3endEv
FNDA:0,_ZNKSt4listISt6vectorI10CoordinateSaIS1_EESaIS3_EE3endEv
FNDA:0,_ZNKSt4listIySaIyEE3endEv
FNDA:0,_ZNKSt4listISt6vectorI10CoordinateSaIS1_EESaIS3_EE5emptyEv
FNDA:0,_ZNKSt4listIySaIyEE5emptyEv
FNDA:0,_ZNSt4listISt6vectorI10CoordinateSaIS1_EESaIS3_EE9push_backERKS3_
FNDA:0,_ZNSt4listIySaIyEE9push_backERKy
FNDA:0,_ZNSt4listISt6vectorI10CoordinateSaIS1_EESaIS3_EE6insertISt20_List_const_iteratorIS3_EEEvSt14_List_iteratorIS3_ET_SB_
FNDA:0,_ZNSt4listIySaIyEE6insertISt20_List_const_iteratorIyEEEvSt14_List_iteratorIyET_S7_
FNDA:0,_ZNSt4listISt6vectorI10CoordinateSaIS1_EESaIS3_EE5eraseESt14_List_iteratorIS3_ES7_
FNDA:0,_ZNSt4listIySaIyEE5eraseESt14_List_iteratorIyES3_
FNDA:0,_ZNSt4listISt6vectorI10CoordinateSaIS1_EESaIS3_EE6spliceESt14_List_iteratorIS3_ERS5_
FNDA:0,_ZNSt4listIySaIyEE6spliceESt14_List_iteratorIyERS1_
FNDA:0,_ZNSt4listISt6vectorI10CoordinateSaIS1_EESaIS3_EE22_M_initialize_dispatchISt20_List_const_iteratorIS3_EEEvT_S9_St12__false_type
FNDA:0,_ZNSt4listIySaIyEE22_M_initialize_dispatchISt20_List_const_iteratorIyEEEvT_S5_St12__false_type
FNDA:0,_ZNSt4listISt6vectorI10CoordinateSaIS1_EESaIS3_EE11_M_transferESt14_List_iteratorIS3_ES7_S7_
FNDA:0,_ZNSt4listIySaIyEE11_M_transferESt14_List_iteratorIyES3_S3_
FNDA:0,_ZNSt4listISt6vectorI10CoordinateSaIS1_EESaIS3_EE9_M_insertESt14_List_iteratorIS3_ERKS3_
FNDA:0,_ZNSt4listIySaIyEE9_M_insertESt14_List_iteratorIyERKy
FNDA:0,_ZNSt4listISt6vectorI10CoordinateSaIS1_EESaIS3_EE8_M_eraseESt14_List_iteratorIS3_E
FNDA:0,_ZNSt4listIySaIyEE8_M_eraseESt14_List_iteratorIyE
FNDA:0,_ZNSt4listISt6vectorI10CoordinateSaIS1_EESaIS3_EE25_M_check_equal_allocatorsERS5_
FNDA:0,_ZNSt4listIySaIyEE25_M_check_equal_allocatorsERS1_
FNF:72
FNH:0
DA:128,0
DA:129,0
DA:133,0
DA:134,0
DA:141,0
DA:143,0
DA:144,0
DA:175,0
DA:176,0
DA:204,0
DA:205,0
DA:213,0
DA:214,0
DA:221,0
DA:223,0
DA:224,0
DA:251,0
DA:252,0
DA:255,0
DA:256,0
DA:300,0
DA:307,0
DA:308,0
DA:309,0
DA:315,0
DA:316,0
DA:319,0
DA:320,0
DA:326,0
DA:327,0
DA:330,0
DA:331,0
DA:334,0
DA:335,0
DA:345,0
DA:346,0
DA:347,0
DA:359,0
DA:360,0
DA:366,0
DA:368,0
DA:369,0
DA:370,0
DA:418,0
DA:459,0
DA:461,0
DA:464,0
DA:466,0
DA:468,0
DA:469,0
DA:471,0
DA:571,0
DA:573,0
DA:577,0
DA:578,0
DA:689,0
DA:690,0
DA:698,0
DA:699,0
DA:707,0
DA:708,0
DA:716,0
DA:717,0
DA:799,0
DA:800,0
DA:919,0
DA:920,0
DA:1048,0
DA:1051,0
DA:1052,0
DA:1053,0
DA:1092,0
DA:1094,0
DA:1095,0
DA:1096,0
DA:1152,0
DA:1155,0
DA:1157,0
DA:1159,0
DA:1161,0
DA:1357,0
DA:1360,0
DA:1361,0
DA:1362,0
DA:1399,0
DA:1400,0
DA:1405,0
DA:1407,0
DA:1408,0
DA:1409,0
DA:1422,0
DA:1424,0
DA:1425,0
DA:1429,0
DA:1431,0
DA:1432,0
DA:1436,0
DA:1438,0
DA:1440,0
DA:1441,0
BA:1094,0
BA:1094,0
BA:1094,0
BA:1094,0
BA:1155,0
BA:1155,0
BA:1155,0
BA:1155,0
BA:1360,0
BA:1360,0
BA:1360,0
BA:1360,0
BA:1438,0
BA:1438,0
BA:1438,0
BA:1438,0
LF:100
LH:0
end_of_record
SF:/usr/include/c++/4.4/bits/stl_pair.h
FN:83,_ZNSt4pairISt23_Rb_tree_const_iteratorI10CoordinateEbEC1ERKS2_RKb
FN:83,_ZNSt4pairISt17_Rb_tree_iteratorI10CoordinateEbEC1ERKS2_RKb
FNDA:0,_ZNSt4pairISt23_Rb_tree_const_iteratorI10CoordinateEbEC1ERKS2_RKb
FNDA:0,_ZNSt4pairISt17_Rb_tree_iteratorI10CoordinateEbEC1ERKS2_RKb
FNF:2
FNH:0
DA:83,0
DA:84,0
LF:2
LH:0
end_of_record
SF:/usr/include/c++/4.4/bits/stl_set.h
FN:408,_ZNSt3setI10CoordinateNS0_10comparatorESaIS0_EE6insertERKS0_
FNDA:0,_ZNSt3setI10CoordinateNS0_10comparatorESaIS0_EE6insertERKS0_
FNF:1
FNH:0
DA:408,0
DA:411,0
DA:412,0
LF:3
LH:0
end_of_record
SF:/usr/include/c++/4.4/bits/stl_tree.h
FN:245,_ZNSt23_Rb_tree_const_iteratorI10CoordinateEC1ERKSt17_Rb_tree_iteratorIS0_E
FN:481,_ZNSt8_Rb_treeI10CoordinateS0_St9_IdentityIS0_ENS0_10comparatorESaIS0_EE8_M_beginEv
FN:492,_ZNSt8_Rb_treeI10CoordinateS0_St9_IdentityIS0_ENS0_10comparatorESaIS0_EE6_M_endEv
FN:516,_ZNSt8_Rb_treeI10CoordinateS0_St9_IdentityIS0_ENS0_10comparatorESaIS0_EE8_S_rightEPSt18_Rb_tree_node_base
FN:508,_ZNSt8_Rb_treeI10CoordinateS0_St9_IdentityIS0_ENS0_10comparatorESaIS0_EE7_S_leftEPSt18_Rb_tree_node_base
FN:170,_ZNSt17_Rb_tree_iteratorI10CoordinateEC1EPSt13_Rb_tree_nodeIS0_E
FN:625,_ZNSt8_Rb_treeI10CoordinateS0_St9_IdentityIS0_ENS0_10comparatorESaIS0_EE5beginEv
FN:212,_ZNKSt17_Rb_tree_iteratorI10CoordinateEeqERKS1_
FN:500,_ZNSt8_Rb_treeI10CoordinateS0_St9_IdentityIS0_ENS0_10comparatorESaIS0_EE8_S_valueEPKSt13_Rb_tree_nodeIS0_E
FN:504,_ZNSt8_Rb_treeI10CoordinateS0_St9_IdentityIS0_ENS0_10comparatorESaIS0_EE6_S_keyEPKSt13_Rb_tree_nodeIS0_E
FN:524,_ZNSt8_Rb_treeI10CoordinateS0_St9_IdentityIS0_ENS0_10comparatorESaIS0_EE8_S_valueEPKSt18_Rb_tree_node_base
FN:528,_ZNSt8_Rb_treeI10CoordinateS0_St9_IdentityIS0_ENS0_10comparatorESaIS0_EE6_S_keyEPKSt18_Rb_tree_node_base
FN:349,_ZNKSt8_Rb_treeI10CoordinateS0_St9_IdentityIS0_ENS0_10comparatorESaIS0_EE21_M_get_Node_allocatorEv
FN:362,_ZNSt8_Rb_treeI10CoordinateS0_St9_IdentityIS0_ENS0_10comparatorESaIS0_EE11_M_put_nodeEPSt13_Rb_tree_nodeIS0_E
FN:197,_ZNSt17_Rb_tree_iteratorI10CoordinateEmmEv
FN:358,_ZNSt8_Rb_treeI10CoordinateS0_St9_IdentityIS0_ENS0_10comparatorESaIS0_EE11_M_get_nodeEv
FN:353,_ZNKSt8_Rb_treeI10CoordinateS0_St9_IdentityIS0_ENS0_10comparatorESaIS0_EE13get_allocatorEv
FN:367,_ZNSt8_Rb_treeI10CoordinateS0_St9_IdentityIS0_ENS0_10comparatorESaIS0_EE14_M_create_nodeERKS0_
FN:874,_ZNSt8_Rb_treeI10CoordinateS0_St9_IdentityIS0_ENS0_10comparatorESaIS0_EE10_M_insert_EPKSt18_Rb_tree_node_baseS8_RKS0_
FN:1161,_ZNSt8_Rb_treeI10CoordinateS0_St9_IdentityIS0_ENS0_10comparatorESaIS0_EE16_M_insert_uniqueERKS0_
FNDA:0,_ZNSt17_Rb_tree_iteratorI10CoordinateEC1EPSt13_Rb_tree_nodeIS0_E
FNDA:0,_ZNSt17_Rb_tree_iteratorI10CoordinateEmmEv
FNDA:0,_ZNKSt17_Rb_tree_iteratorI10CoordinateEeqERKS1_
FNDA:0,_ZNSt23_Rb_tree_const_iteratorI10CoordinateEC1ERKSt17_Rb_tree_iteratorIS0_E
FNDA:0,_ZNKSt8_Rb_treeI10CoordinateS0_St9_IdentityIS0_ENS0_10comparatorESaIS0_EE21_M_get_Node_allocatorEv
FNDA:0,_ZNKSt8_Rb_treeI10CoordinateS0_St9_IdentityIS0_ENS0_10comparatorESaIS0_EE13get_allocatorEv
FNDA:0,_ZNSt8_Rb_treeI10CoordinateS0_St9_IdentityIS0_ENS0_10comparatorESaIS0_EE11_M_get_nodeEv
FNDA:0,_ZNSt8_Rb_treeI10CoordinateS0_St9_IdentityIS0_ENS0_10comparatorESaIS0_EE11_M_put_nodeEPSt13_Rb_tree_nodeIS0_E
FNDA:0,_ZNSt8_Rb_treeI10CoordinateS0_St9_IdentityIS0_ENS0_10comparatorESaIS0_EE14_M_create_nodeERKS0_
FNDA:0,_ZNSt8_Rb_treeI10CoordinateS0_St9_IdentityIS0_ENS0_10comparatorESaIS0_EE8_M_beginEv
FNDA:0,_ZNSt8_Rb_treeI10CoordinateS0_St9_IdentityIS0_ENS0_10comparatorESaIS0_EE6_M_endEv
FNDA:0,_ZNSt8_Rb_treeI10CoordinateS0_St9_IdentityIS0_ENS0_10comparatorESaIS0_EE8_S_valueEPKSt13_Rb_tree_nodeIS0_E
FNDA:0,_ZNSt8_Rb_treeI10CoordinateS0_St9_IdentityIS0_ENS0_10comparatorESaIS0_EE6_S_keyEPKSt13_Rb_tree_nodeIS0_E
FNDA:0,_ZNSt8_Rb_treeI10CoordinateS0_St9_IdentityIS0_ENS0_10comparatorESaIS0_EE7_S_leftEPSt18_Rb_tree_node_base
FNDA:0,_ZNSt8_Rb_treeI10CoordinateS0_St9_IdentityIS0_ENS0_10comparatorESaIS0_EE8_S_rightEPSt18_Rb_tree_node_base
FNDA:0,_ZNSt8_Rb_treeI10CoordinateS0_St9_IdentityIS0_ENS0_10comparatorESaIS0_EE8_S_valueEPKSt18_Rb_tree_node_base
FNDA:0,_ZNSt8_Rb_treeI10CoordinateS0_St9_IdentityIS0_ENS0_10comparatorESaIS0_EE6_S_keyEPKSt18_Rb_tree_node_base
FNDA:0,_ZNSt8_Rb_treeI10CoordinateS0_St9_IdentityIS0_ENS0_10comparatorESaIS0_EE5beginEv
FNDA:0,_ZNSt8_Rb_treeI10CoordinateS0_St9_IdentityIS0_ENS0_10comparatorESaIS0_EE10_M_insert_EPKSt18_Rb_tree_node_baseS8_RKS0_
FNDA:0,_ZNSt8_Rb_treeI10CoordinateS0_St9_IdentityIS0_ENS0_10comparatorESaIS0_EE16_M_insert_uniqueERKS0_
FNF:20
FNH:0
DA:170,0
DA:171,0
DA:197,0
DA:199,0
DA:200,0
DA:212,0
DA:213,0
DA:245,0
DA:246,0
DA:349,0
DA:350,0
DA:353,0
DA:354,0
DA:358,0
DA:359,0
DA:362,0
DA:363,0
DA:367,0
DA:369,0
DA:371,0
DA:372,0
DA:374,0
DA:375,0
DA:377,0
DA:481,0
DA:482,0
DA:492,0
DA:493,0
DA:500,0
DA:501,0
DA:504,0
DA:505,0
DA:508,0
DA:509,0
DA:516,0
DA:517,0
DA:524,0
DA:525,0
DA:528,0
DA:529,0
DA:625,0
DA:628,0
DA:874,0
DA:879,0
DA:881,0
DA:883,0
DA:886,0
DA:887,0
DA:1161,0
DA:1164,0
DA:1165,0
DA:1166,0
DA:1167,0
DA:1169,0
DA:1170,0
DA:1171,0
DA:1173,0
DA:1174,0
DA:1176,0
DA:1177,0
DA:1179,0
DA:1181,0
DA:1182,0
DA:1183,0
BA:879,0
BA:879,0
BA:879,0
BA:879,0
BA:879,0
BA:879,0
BA:1167,0
BA:1167,0
BA:1171,0
BA:1171,0
BA:1174,0
BA:1174,0
BA:1176,0
BA:1176,0
BA:1181,0
BA:1181,0
LF:64
LH:0
end_of_record
SF:/usr/include/c++/4.4/bits/stl_uninitialized.h
FN:67,_ZNSt20__uninitialized_copyILb0EE18uninitialized_copyIN9__gnu_cxx17__normal_iteratorIPK10CoordinateSt6vectorIS4_SaIS4_EEEEPS4_EET0_T_SD_SC_
FN:107,_ZSt18uninitialized_copyIN9__gnu_cxx17__normal_iteratorIPK10CoordinateSt6vectorIS2_SaIS2_EEEEPS2_ET0_T_SB_SA_
FN:255,_ZSt22__uninitialized_copy_aIN9__gnu_cxx17__normal_iteratorIPK10CoordinateSt6vectorIS2_SaIS2_EEEEPS2_S2_ET0_T_SB_SA_RSaIT1_E
FN:67,_ZNSt20__uninitialized_copyILb0EE18uninitialized_copyIP10CoordinateS3_EET0_T_S5_S4_
FN:107,_ZSt18uninitialized_copyIP10CoordinateS1_ET0_T_S3_S2_
FN:255,_ZSt22__uninitialized_copy_aIP10CoordinateS1_S0_ET0_T_S3_S2_RSaIT1_E
FNDA:0,_ZNSt20__uninitialized_copyILb0EE18uninitialized_copyIN9__gnu_cxx17__normal_iteratorIPK10CoordinateSt6vectorIS4_SaIS4_EEEEPS4_EET0_T_SD_SC_
FNDA:0,_ZNSt20__uninitialized_copyILb0EE18uninitialized_copyIP10CoordinateS3_EET0_T_S5_S4_
FNDA:0,_ZSt18uninitialized_copyIN9__gnu_cxx17__normal_iteratorIPK10CoordinateSt6vectorIS2_SaIS2_EEEEPS2_ET0_T_SB_SA_
FNDA:0,_ZSt18uninitialized_copyIP10CoordinateS1_ET0_T_S3_S2_
FNDA:0,_ZSt22__uninitialized_copy_aIN9__gnu_cxx17__normal_iteratorIPK10CoordinateSt6vectorIS2_SaIS2_EEEEPS2_S2_ET0_T_SB_SA_RSaIT1_E
FNDA:0,_ZSt22__uninitialized_copy_aIP10CoordinateS1_S0_ET0_T_S3_S2_RSaIT1_E
FNF:6
FNH:0
DA:67,0
DA:70,0
DA:73,0
DA:74,0
DA:76,0
DA:78,0
DA:80,0
DA:81,0
DA:107,0
DA:117,0
DA:255,0
DA:257,0
BA:73,0
BA:73,0
BA:73,0
BA:73,0
BA:74,0
BA:74,0
BA:74,0
BA:74,0
LF:12
LH:0
end_of_record
SF:/usr/include/c++/4.4/bits/stl_vector.h
FN:532,_ZNKSt6vectorI10CoordinateSaIS0_EE4sizeEv
FN:565,_ZNKSt6vectorI10CoordinateSaIS0_EE8capacityEv
FN:93,_ZNSt12_Vector_baseI10CoordinateSaIS0_EE19_M_get_Tp_allocatorEv
FN:452,_ZNKSt6vectorI10CoordinateSaIS0_EE3endEv
FN:434,_ZNKSt6vectorI10CoordinateSaIS0_EE5beginEv
FN:443,_ZNSt6vectorI10CoordinateSaIS0_EE3endEv
FN:425,_ZNSt6vectorI10CoordinateSaIS0_EE5beginEv
FN:97,_ZNKSt12_Vector_baseI10CoordinateSaIS0_EE19_M_get_Tp_allocatorEv
FN:143,_ZNSt12_Vector_baseI10CoordinateSaIS0_EE13_M_deallocateEPS0_j
FN:139,_ZNSt12_Vector_baseI10CoordinateSaIS0_EE11_M_allocateEj
FN:960,_ZNSt6vectorI10CoordinateSaIS0_EE20_M_allocate_and_copyIN9__gnu_cxx17__normal_iteratorIPKS0_S2_EEEEPS0_jT_SA_
FN:75,_ZNSt12_Vector_baseI10CoordinateSaIS0_EE12_Vector_implD1Ev
FN:131,_ZNSt12_Vector_baseI10CoordinateSaIS0_EED2Ev
FN:312,_ZNSt6vectorI10CoordinateSaIS0_EED1Ev
FN:84,_ZNSt12_Vector_baseI10CoordinateSaIS0_EE12_Vector_implC1ERKS1_
FN:110,_ZNSt12_Vector_baseI10CoordinateSaIS0_EEC2EjRKS1_
FN:241,_ZNSt6vectorI10CoordinateSaIS0_EEC1ERKS2_
FNDA:0,_ZNSt12_Vector_baseI10CoordinateSaIS0_EE12_Vector_implD1Ev
FNDA:0,_ZNSt12_Vector_baseI10CoordinateSaIS0_EE12_Vector_implC1ERKS1_
FNDA:0,_ZNSt12_Vector_baseI10CoordinateSaIS0_EE19_M_get_Tp_allocatorEv
FNDA:0,_ZNKSt12_Vector_baseI10CoordinateSaIS0_EE19_M_get_Tp_allocatorEv
FNDA:0,_ZNSt12_Vector_baseI10CoordinateSaIS0_EEC2EjRKS1_
FNDA:0,_ZNSt12_Vector_baseI10CoordinateSaIS0_EED2Ev
FNDA:0,_ZNSt12_Vector_baseI10CoordinateSaIS0_EE11_M_allocateEj
FNDA:0,_ZNSt12_Vector_baseI10CoordinateSaIS0_EE13_M_deallocateEPS0_j
FNDA:0,_ZNSt6vectorI10CoordinateSaIS0_EEC1ERKS2_
FNDA:0,_ZNSt6vectorI10CoordinateSaIS0_EED1Ev
FNDA:0,_ZNSt6vectorI10CoordinateSaIS0_EE5beginEv
FNDA:0,_ZNKSt6vectorI10CoordinateSaIS0_EE5beginEv
FNDA:0,_ZNSt6vectorI10CoordinateSaIS0_EE3endEv
FNDA:0,_ZNKSt6vectorI10CoordinateSaIS0_EE3endEv
FNDA:0,_ZNKSt6vectorI10CoordinateSaIS0_EE4sizeEv
FNDA:0,_ZNKSt6vectorI10CoordinateSaIS0_EE8capacityEv
FNDA:0,_ZNSt6vectorI10CoordinateSaIS0_EE20_M_allocate_and_copyIN9__gnu_cxx17__normal_iteratorIPKS0_S2_EEEEPS0_jT_SA_
FNF:17
FNH:0
DA:75,0
DA:84,0
DA:85,0
DA:86,0
DA:93,0
DA:94,0
DA:97,0
DA:98,0
DA:110,0
DA:111,0
DA:113,0
DA:114,0
DA:115,0
DA:116,0
DA:131,0
DA:132,0
DA:133,0
DA:139,0
DA:140,0
DA:143,0
DA:145,0
DA:146,0
DA:147,0
DA:241,0
DA:242,0
DA:243,0
DA:247,0
DA:312,0
DA:313,0
DA:314,0
DA:425,0
DA:426,0
DA:434,0
DA:435,0
DA:443,0
DA:444,0
DA:452,0
DA:453,0
DA:532,0
DA:533,0
DA:565,0
DA:567,0
DA:960,0
DA:963,0
DA:966,0
DA:968,0
DA:970,0
DA:972,0
DA:973,0
BA:140,0
BA:140,0
BA:145,0
BA:145,0
LF:49
LH:0
end_of_record
SF:/usr/include/c++/4.4/bits/vector.tcc
FN:156,_ZNSt6vectorI10CoordinateSaIS0_EEaSERKS2_
FNDA:0,_ZNSt6vectorI10CoordinateSaIS0_EEaSERKS2_
FNF:1
FNH:0
DA:156,0
DA:159,0
DA:161,0
DA:162,0
DA:165,0
DA:166,0
DA:168,0
DA:171,0
DA:172,0
DA:174,0
DA:176,0
DA:181,0
DA:183,0
DA:188,0
DA:190,0
BA:159,0
BA:159,0
BA:162,0
BA:162,0
BA:174,0
BA:174,0
LF:15
LH:0
end_of_record
SF:/usr/include/c++/4.4/ext/atomicity.h
FN:62,_ZN9__gnu_cxxL25__exchange_and_add_singleEPii
FN:45,_ZN9__gnu_cxxL18__exchange_and_addEPVii
FN:75,_ZN9__gnu_cxxL27__exchange_and_add_dispatchEPii
FNDA:0,_ZN9__gnu_cxxL18__exchange_and_addEPVii
FNDA:0,_ZN9__gnu_cxxL25__exchange_and_add_singleEPii
FNDA:0,_ZN9__gnu_cxxL27__exchange_and_add_dispatchEPii
FNF:3
FNH:0
DA:45,0
DA:46,0
DA:62,0
DA:64,0
DA:65,0
DA:66,0
DA:75,0
DA:78,0
DA:79,0
DA:81,0
BA:78,0
BA:78,0
LF:10
LH:0
end_of_record
SF:/usr/include/c++/4.4/ext/new_allocator.h
FN:73,_ZN9__gnu_cxx13new_allocatorIcED2Ev
FN:66,_ZN9__gnu_cxx13new_allocatorIcEC2Ev
FN:68,_ZN9__gnu_cxx13new_allocatorIcEC2ERKS1_
FN:66,_ZN9__gnu_cxx13new_allocatorISt6vectorI10CoordinateSaIS2_EEEC2Ev
FN:73,_ZN9__gnu_cxx13new_allocatorISt6vectorI10CoordinateSaIS2_EEED2Ev
FN:66,_ZN9__gnu_cxx13new_allocatorIyEC2Ev
FN:73,_ZN9__gnu_cxx13new_allocatorIyED2Ev
FN:98,_ZNK9__gnu_cxx13new_allocatorI10CoordinateE8max_sizeEv
FN:73,_ZN9__gnu_cxx13new_allocatorISt10_List_nodeISt6vectorI10CoordinateSaIS3_EEEED2Ev
FN:115,_ZN9__gnu_cxx13new_allocatorIyE7destroyEPy
FN:73,_ZN9__gnu_cxx13new_allocatorISt10_List_nodeIyEED2Ev
FN:66,_ZN9__gnu_cxx13new_allocatorISt10_List_nodeISt6vectorI10CoordinateSaIS3_EEEEC2Ev
FN:66,_ZN9__gnu_cxx13new_allocatorISt10_List_nodeIyEEC2Ev
FN:73,_ZN9__gnu_cxx13new_allocatorI10CoordinateED2Ev
FN:68,_ZN9__gnu_cxx13new_allocatorISt10_List_nodeISt6vectorI10CoordinateSaIS3_EEEEC2ERKS7_
FN:68,_ZN9__gnu_cxx13new_allocatorISt10_List_nodeIyEEC2ERKS3_
FN:98,_ZNK9__gnu_cxx13new_allocatorISt13_Rb_tree_nodeI10CoordinateEE8max_sizeEv
FN:66,_ZN9__gnu_cxx13new_allocatorI10CoordinateEC2Ev
FN:68,_ZN9__gnu_cxx13new_allocatorI10CoordinateEC2ERKS2_
FN:104,_ZN9__gnu_cxx13new_allocatorIyE9constructEPyRKy
FN:98,_ZNK9__gnu_cxx13new_allocatorISt10_List_nodeISt6vectorI10CoordinateSaIS3_EEEE8max_sizeEv
FN:98,_ZNK9__gnu_cxx13new_allocatorISt10_List_nodeIyEE8max_sizeEv
FN:104,_ZN9__gnu_cxx13new_allocatorI10CoordinateE9constructEPS1_RKS1_
FN:94,_ZN9__gnu_cxx13new_allocatorISt13_Rb_tree_nodeI10CoordinateEE10deallocateEPS3_j
FN:94,_ZN9__gnu_cxx13new_allocatorI10CoordinateE10deallocateEPS1_j
FN:94,_ZN9__gnu_cxx13new_allocatorISt10_List_nodeISt6vectorI10CoordinateSaIS3_EEEE10deallocateEPS6_j
FN:94,_ZN9__gnu_cxx13new_allocatorISt10_List_nodeIyEE10deallocateEPS2_j
FN:84,_ZN9__gnu_cxx13new_allocatorISt13_Rb_tree_nodeI10CoordinateEE8allocateEjPKv
FN:84,_ZN9__gnu_cxx13new_allocatorI10CoordinateE8allocateEjPKv
FN:84,_ZN9__gnu_cxx13new_allocatorISt10_List_nodeISt6vectorI10CoordinateSaIS3_EEEE8allocateEjPKv
FN:84,_ZN9__gnu_cxx13new_allocatorISt10_List_nodeIyEE8allocateEjPKv
FN:115,_ZN9__gnu_cxx13new_allocatorISt6vectorI10CoordinateSaIS2_EEE7destroyEPS4_
FN:104,_ZN9__gnu_cxx13new_allocatorISt6vectorI10CoordinateSaIS2_EEE9constructEPS4_RKS4_
FNDA:0,_ZN9__gnu_cxx13new_allocatorIcEC2Ev
FNDA:0,_ZN9__gnu_cxx13new_allocatorISt6vectorI10CoordinateSaIS2_EEEC2Ev
FNDA:0,_ZN9__gnu_cxx13new_allocatorIyEC2Ev
FNDA:0,_ZN9__gnu_cxx13new_allocatorISt10_List_nodeISt6vectorI10CoordinateSaIS3_EEEEC2Ev
FNDA:0,_ZN9__gnu_cxx13new_allocatorISt10_List_nodeIyEEC2Ev
FNDA:0,_ZN9__gnu_cxx13new_allocatorI10CoordinateEC2Ev
FNDA:0,_ZN9__gnu_cxx13new_allocatorIcEC2ERKS1_
FNDA:0,_ZN9__gnu_cxx13new_allocatorISt10_List_nodeISt6vectorI10CoordinateSaIS3_EEEEC2ERKS7_
FNDA:0,_ZN9__gnu_cxx13new_allocatorISt10_List_nodeIyEEC2ERKS3_
FNDA:0,_ZN9__gnu_cxx13new_allocatorI10CoordinateEC2ERKS2_
FNDA:0,_ZN9__gnu_cxx13new_allocatorIcED2Ev
FNDA:0,_ZN9__gnu_cxx13new_allocatorISt6vectorI10CoordinateSaIS2_EEED2Ev
FNDA:0,_ZN9__gnu_cxx13new_allocatorIyED2Ev
FNDA:0,_ZN9__gnu_cxx13new_allocatorISt10_List_nodeISt6vectorI10CoordinateSaIS3_EEEED2Ev
FNDA:0,_ZN9__gnu_cxx13new_allocatorISt10_List_nodeIyEED2Ev
FNDA:0,_ZN9__gnu_cxx13new_allocatorI10CoordinateED2Ev
FNDA:0,_ZN9__gnu_cxx13new_allocatorISt13_Rb_tree_nodeI10CoordinateEE8allocateEjPKv
FNDA:0,_ZN9__gnu_cxx13new_allocatorI10CoordinateE8allocateEjPKv
FNDA:0,_ZN9__gnu_cxx13new_allocatorISt10_List_nodeISt6vectorI10CoordinateSaIS3_EEEE8allocateEjPKv
FNDA:0,_ZN9__gnu_cxx13new_allocatorISt10_List_nodeIyEE8allocateEjPKv
FNDA:0,_ZN9__gnu_cxx13new_allocatorISt13_Rb_tree_nodeI10CoordinateEE10deallocateEPS3_j
FNDA:0,_ZN9__gnu_cxx13new_allocatorI10CoordinateE10deallocateEPS1_j
FNDA:0,_ZN9__gnu_cxx13new_allocatorISt10_List_nodeISt6vectorI10CoordinateSaIS3_EEEE10deallocateEPS6_j
FNDA:0,_ZN9__gnu_cxx13new_allocatorISt10_List_nodeIyEE10deallocateEPS2_j
FNDA:0,_ZNK9__gnu_cxx13new_allocatorI10CoordinateE8max_sizeEv
FNDA:0,_ZNK9__gnu_cxx13new_allocatorISt13_Rb_tree_nodeI10CoordinateEE8max_sizeEv
FNDA:0,_ZNK9__gnu_cxx13new_allocatorISt10_List_nodeISt6vectorI10CoordinateSaIS3_EEEE8max_sizeEv
FNDA:0,_ZNK9__gnu_cxx13new_allocatorISt10_List_nodeIyEE8max_sizeEv
FNDA:0,_ZN9__gnu_cxx13new_allocatorIyE9constructEPyRKy
FNDA:0,_ZN9__gnu_cxx13new_allocatorI10CoordinateE9constructEPS1_RKS1_
FNDA:0,_ZN9__gnu_cxx13new_allocatorISt6vectorI10CoordinateSaIS2_EEE9constructEPS4_RKS4_
FNDA:0,_ZN9__gnu_cxx13new_allocatorIyE7destroyEPy
FNDA:0,_ZN9__gnu_cxx13new_allocatorISt6vectorI10CoordinateSaIS2_EEE7destroyEPS4_
FNF:33
FNH:0
DA:66,0
DA:68,0
DA:73,0
DA:84,0
DA:86,0
DA:87,0
DA:89,0
DA:94,0
DA:95,0
DA:98,0
DA:99,0
DA:104,0
DA:105,0
DA:115,0
BA:86,0
BA:86,0
BA:86,0
BA:86,0
BA:86,0
BA:86,0
BA:86,0
BA:86,0
BA:105,0
BA:105,0
BA:105,0
BA:105,0
BA:105,0
BA:105,0
LF:14
LH:0
end_of_record
SF:/usr/include/c++/4.4/i486-linux-gnu/bits/gthr-default.h
FN:238,_ZL18__gthread_active_pv
FNDA:0,_ZL18__gthread_active_pv
FNF:1
FNH:0
DA:238,0
DA:242,0
LF:2
LH:0
end_of_record
SF:/usr/include/c++/4.4/iomanip
FN:238,_ZSt4setwi
FN:170,_ZSt7setfillIcESt8_SetfillIT_ES1_
FN:255,_ZStlsIcSt11char_traitsIcEERSt13basic_ostreamIT_T0_ES6_St5_Setw
FN:187,_ZStlsIcSt11char_traitsIcEERSt13basic_ostreamIT_T0_ES6_St8_SetfillIS3_E
FNDA:0,_ZSt7setfillIcESt8_SetfillIT_ES1_
FNDA:0,_ZStlsIcSt11char_traitsIcEERSt13basic_ostreamIT_T0_ES6_St8_SetfillIS3_E
FNDA:0,_ZSt4setwi
FNDA:0,_ZStlsIcSt11char_traitsIcEERSt13basic_ostreamIT_T0_ES6_St5_Setw
FNF:4
FNH:0
DA:170,0
DA:173,0
DA:187,0
DA:189,0
DA:190,0
DA:238,0
DA:241,0
DA:255,0
DA:257,0
DA:258,0
LF:10
LH:0
end_of_record
SF:/usr/include/c++/4.4/new
FN:101,_ZnwjPv
FN:105,_ZdlPvS_
FNDA:0,_ZnwjPv
FNDA:0,_ZdlPvS_
FNF:2
FNH:0
DA:101,0
DA:105,0
LF:2
LH:0
end_of_record
SF:/usr/include/c++/4.4/ostream
FN:108,_ZNSolsEPFRSoS_E
FN:457,_ZStlsISt11char_traitsIcEERSt13basic_ostreamIcT_ES5_c
FN:505,_ZStlsISt11char_traitsIcEERSt13basic_ostreamIcT_ES5_PKc
FN:559,_ZSt5flushIcSt11char_traitsIcEERSt13basic_ostreamIT_T0_ES6_
FN:538,_ZSt4endlIcSt11char_traitsIcEERSt13basic_ostreamIT_T0_ES6_
FNDA:0,_ZNSolsEPFRSoS_E
FNDA:0,_ZStlsISt11char_traitsIcEERSt13basic_ostreamIcT_ES5_c
FNDA:0,_ZStlsISt11char_traitsIcEERSt13basic_ostreamIcT_ES5_PKc
FNDA:0,_ZSt4endlIcSt11char_traitsIcEERSt13basic_ostreamIT_T0_ES6_
FNDA:0,_ZSt5flushIcSt11char_traitsIcEERSt13basic_ostreamIT_T0_ES6_
FNF:5
FNH:0
DA:108,0
DA:113,0
DA:457,0
DA:458,0
DA:505,0
DA:507,0
DA:508,0
DA:510,0
DA:512,0
DA:538,0
DA:539,0
DA:559,0
DA:560,0
BA:507,0
BA:507,0
LF:13
LH:0
end_of_record
SF:/home/frechilla/workspace/headless/blockem_sourceforge/src/coordinate.h
FN:49,_ZN10CoordinateC1Ev
FN:53,_ZN10CoordinateC1Eii
FN:75,_ZNK10Coordinate10comparatorclERKS_S2_
FN:47,_ZN10CoordinateaSERKS_
FN:47,_ZN10CoordinateC1ERKS_
FN:57,_ZN10CoordinateD0Ev
FN:57,_ZN10CoordinateD1Ev
FNDA:0,_ZN10CoordinateaSERKS_
FNDA:0,_ZN10CoordinateC1ERKS_
FNDA:0,_ZN10CoordinateC1Ev
FNDA:0,_ZN10CoordinateC1Eii
FNDA:0,_ZN10CoordinateD0Ev
FNDA:0,_ZN10CoordinateD1Ev
FNDA:0,_ZNK10Coordinate10comparatorclERKS_S2_
FNF:7
FNH:0
DA:47,0
DA:49,0
DA:51,0
DA:52,0
DA:53,0
DA:55,0
DA:56,0
DA:57,0
DA:58,0
DA:75,0
DA:77,0
DA:80,0
DA:83,0
BA:58,0
BA:58,0
BA:58,0
BA:58,0
BA:77,0
BA:77,0
BA:77,0
BA:77,0
BA:77,0
BA:77,0
LF:13
LH:0
end_of_record
SF:/home/frechilla/workspace/headless/blockem_sourceforge/src/piece.h
FN:92,_ZN5PieceaSERKS_
FNDA:0,_ZN5PieceaSERKS_
FNF:1
FNH:0
DA:92,0
LF:1
LH:0
end_of_record
SF:/home/frechilla/workspace/headless/blockem_sourceforge/src/player.cpp
FN:153,_ZN6Player9SetColourEhhh
FN:160,_ZNK6Player9GetColourERhS0_S0_
FN:383,_ZNK6Player28GetNextNucleationPointSpiralERiR10Coordinate
FN:340,_ZNK6Player29GetFirstNucleationPointSpiralERiR10Coordinate
FN:295,_ZNK6Player22GetAllNucleationPointsEP10Coordinatei
FN:319,_ZNK6Player22GetAllNucleationPointsERSt3setI10CoordinateNS1_10comparatorESaIS1_EE
FN:252,_ZNK6Player21PrintNucleationPointsERSo
FN:236,_ZNK6Player20PrintAvailablePiecesERSo
FN:211,_ZN6Player10LoadPiecesEv
FN:167,_ZN6Player5ResetERK10Coordinate
FN:123,_ZN6Player14CopyFromObjectERKS_
FN:91,_ZN6PlayeraSERKS_
FN:79,_ZN6PlayerC1ERKS_
FN:79,_ZN6PlayerC2ERKS_
FN:69,_ZN6PlayerD0Ev
FN:69,_ZN6PlayerD1Ev
FN:69,_ZN6PlayerD2Ev
FN:34,_ZN6PlayerC1ESsciiRK10Coordinate
FN:34,_ZN6PlayerC2ESsciiRK10Coordinate
FNDA:5,_ZN6PlayerC1ESsciiRK10Coordinate
FNDA:0,_ZN6PlayerC2ESsciiRK10Coordinate
FNDA:0,_ZN6PlayerD0Ev
FNDA:6,_ZN6PlayerD1Ev
FNDA:0,_ZN6PlayerD2Ev
FNDA:1,_ZN6PlayerC1ERKS_
FNDA:0,_ZN6PlayerC2ERKS_
FNDA:2,_ZN6PlayeraSERKS_
FNDA:3,_ZN6Player14CopyFromObjectERKS_
FNDA:0,_ZN6Player9SetColourEhhh
FNDA:0,_ZNK6Player9GetColourERhS0_S0_
FNDA:6,_ZN6Player5ResetERK10Coordinate
FNDA:5,_ZN6Player10LoadPiecesEv
FNDA:0,_ZNK6Player20PrintAvailablePiecesERSo
FNDA:0,_ZNK6Player21PrintNucleationPointsERSo
FNDA:0,_ZNK6Player22GetAllNucleationPointsEP10Coordinatei
FNDA:20,_ZNK6Player22GetAllNucleationPointsERSt3setI10CoordinateNS1_10comparatorESaIS1_EE
FNDA:0,_ZNK6Player29GetFirstNucleationPointSpiralERiR10Coordinate
FNDA:0,_ZNK6Player28GetNextNucleationPointSpiralERiR10Coordinate
FNF:19
FNH:8
DA:34,5
DA:45,5
DA:48,5
DA:51,110
DA:53,105
DA:55,5
DA:58,5
DA:59,58
DA:61,53
DA:62,702
DA:64,649
DA:67,5
DA:69,132
DA:72,63
DA:74,57
DA:76,6
DA:77,132
DA:79,1
DA:82,1
DA:83,6
DA:85,5
DA:88,1
DA:89,1
DA:91,2
DA:93,2
DA:97,2
DA:101,7
DA:103,6
DA:105,1
DA:109,1
DA:110,6
DA:112,5
DA:117,2
DA:120,2
DA:123,3
DA:125,3
DA:126,3
DA:127,3
DA:128,3
DA:129,3
DA:130,3
DA:131,3
DA:132,3
DA:133,3
DA:134,3
DA:137,66
DA:139,63
DA:140,63
DA:144,18
DA:146,90
DA:148,75
DA:151,3
DA:153,0
DA:155,0
DA:156,0
DA:157,0
DA:158,0
DA:160,0
DA:162,0
DA:163,0
DA:164,0
DA:165,0
DA:167,6
DA:170,132
DA:172,126
DA:174,126
DA:176,4
DA:181,6
DA:182,90
DA:184,1260
DA:186,1176
DA:190,6
DA:193,6
DA:194,6
DA:196,264
DA:198,126
DA:201,90
DA:203,1260
DA:205,1176
DA:207,6
DA:209,6
DA:211,5
DA:213,5
DA:214,10
DA:215,10
DA:216,10
DA:217,10
DA:218,10
DA:219,10
DA:220,10
DA:221,10
DA:222,10
DA:223,10
DA:224,10
DA:225,10
DA:226,10
DA:227,10
DA:228,10
DA:229,10
DA:230,10
DA:231,10
DA:232,10
DA:233,10
DA:234,5
DA:236,0
DA:238,0
DA:240,0
DA:242,0
DA:246,0
DA:249,0
DA:250,0
DA:252,0
DA:254,0
DA:255,0
DA:257,0
DA:259,0
DA:261,0
DA:263,0
DA:264,0
DA:266,0
DA:268,0
DA:270,0
DA:271,0
DA:273,0
DA:274,0
DA:276,0
DA:280,0
DA:282,0
DA:284,0
DA:287,0
DA:288,0
DA:290,0
DA:292,0
DA:293,0
DA:295,0
DA:298,0
DA:300,0
DA:301,0
DA:303,0
DA:305,0
DA:307,0
DA:309,0
DA:311,0
DA:316,0
DA:319,20
DA:322,20
DA:324,20
DA:325,300
DA:327,4200
DA:329,3920
DA:331,262
DA:332,262
DA:337,20
DA:340,0
DA:343,0
DA:344,0
DA:345,0
DA:346,0
DA:348,0
DA:349,0
DA:351,0
DA:355,0
DA:359,0
DA:362,0
DA:367,0
DA:369,0
DA:370,0
DA:377,0
DA:380,0
DA:383,0
DA:386,0
DA:387,0
DA:388,0
DA:391,0
DA:392,0
DA:396,0
DA:399,0
DA:402,0
DA:404,0
DA:405,0
DA:412,0
DA:416,0
DA:420,0
DA:423,0
DA:426,0
DA:428,0
DA:429,0
DA:437,0
DA:439,0
DA:440,0
DA:442,0
DA:446,0
DA:450,0
DA:453,0
DA:456,0
DA:458,0
DA:459,0
DA:465,0
DA:468,0
BA:45,2
BA:45,2
BA:45,0
BA:45,0
BA:45,0
BA:45,0
BA:45,0
BA:45,0
BA:45,0
BA:45,0
BA:45,0
BA:45,0
BA:51,2
BA:51,2
BA:51,0
BA:51,0
BA:59,2
BA:59,2
BA:59,0
BA:59,0
BA:62,2
BA:62,2
BA:62,0
BA:62,0
BA:67,0
BA:67,0
BA:67,0
BA:67,0
BA:67,0
BA:67,0
BA:67,0
BA:67,0
BA:72,0
BA:72,0
BA:72,2
BA:72,2
BA:72,0
BA:72,0
BA:74,0
BA:74,0
BA:74,2
BA:74,1
BA:74,0
BA:74,0
BA:76,0
BA:76,0
BA:76,2
BA:76,1
BA:76,0
BA:76,0
BA:77,0
BA:77,0
BA:77,0
BA:77,0
BA:77,0
BA:77,0
BA:77,0
BA:77,0
BA:77,0
BA:77,0
BA:77,2
BA:77,1
BA:77,0
BA:77,0
BA:77,0
BA:77,0
BA:77,2
BA:77,2
BA:77,1
BA:77,2
BA:77,0
BA:77,0
BA:77,0
BA:77,0
BA:77,0
BA:77,0
BA:77,0
BA:77,0
BA:77,0
BA:77,0
BA:79,2
BA:79,2
BA:79,0
BA:79,0
BA:79,0
BA:79,0
BA:79,0
BA:79,0
BA:79,0
BA:79,0
BA:79,0
BA:79,0
BA:83,2
BA:83,2
BA:83,0
BA:83,0
BA:89,0
BA:89,0
BA:89,0
BA:89,0
BA:89,0
BA:89,0
BA:89,0
BA:89,0
BA:93,2
BA:93,1
BA:97,2
BA:97,2
BA:97,1
BA:97,2
BA:101,2
BA:101,2
BA:103,2
BA:103,1
BA:105,2
BA:105,1
BA:110,2
BA:110,2
BA:137,2
BA:137,2
BA:144,2
BA:144,2
BA:146,2
BA:146,2
BA:170,2
BA:170,2
BA:174,2
BA:174,2
BA:182,2
BA:182,2
BA:184,2
BA:184,2
BA:193,1
BA:193,2
BA:194,1
BA:194,2
BA:196,2
BA:196,2
BA:198,2
BA:198,1
BA:201,2
BA:201,2
BA:203,2
BA:203,2
BA:205,1
BA:205,2
BA:238,0
BA:238,0
BA:240,0
BA:240,0
BA:255,0
BA:255,0
BA:261,0
BA:261,0
BA:264,0
BA:264,0
BA:271,0
BA:271,0
BA:274,0
BA:274,0
BA:288,0
BA:288,0
BA:301,0
BA:301,0
BA:303,0
BA:303,0
BA:305,0
BA:305,0
BA:307,0
BA:307,0
BA:325,2
BA:325,2
BA:327,2
BA:327,2
BA:329,2
BA:329,2
BA:349,0
BA:349,0
BA:351,0
BA:351,0
BA:355,0
BA:355,0
BA:359,0
BA:359,0
BA:359,0
BA:359,0
BA:359,0
BA:359,0
BA:359,0
BA:359,0
BA:362,0
BA:362,0
BA:362,0
BA:362,0
BA:362,0
BA:362,0
BA:362,0
BA:362,0
BA:367,0
BA:367,0
BA:392,0
BA:392,0
BA:396,0
BA:396,0
BA:396,0
BA:396,0
BA:396,0
BA:396,0
BA:396,0
BA:396,0
BA:399,0
BA:399,0
BA:399,0
BA:399,0
BA:399,0
BA:399,0
BA:399,0
BA:399,0
BA:402,0
BA:402,0
BA:412,0
BA:412,0
BA:416,0
BA:416,0
BA:420,0
BA:420,0
BA:420,0
BA:420,0
BA:420,0
BA:420,0
BA:420,0
BA:420,0
BA:423,0
BA:423,0
BA:423,0
BA:423,0
BA:423,0
BA:423,0
BA:423,0
BA:423,0
BA:426,0
BA:426,0
BA:440,0
BA:440,0
BA:442,0
BA:442,0
BA:446,0
BA:446,0
BA:450,0
BA:450,0
BA:450,0
BA:450,0
BA:450,0
BA:450,0
BA:450,0
BA:450,0
BA:453,0
BA:453,0
BA:453,0
BA:453,0
BA:453,0
BA:453,0
BA:453,0
BA:453,0
BA:456,0
BA:456,0
LF:199
LH:103
end_of_record
SF:/home/frechilla/workspace/headless/blockem_sourceforge/src/player.h
FN:103,_ZN6Player21SetStartingCoordinateERK10Coordinate
FN:151,_ZNK6Player17IsNucleationPointERK10Coordinate
FN:131,_ZN6Player8SetPieceE12ePieceType_t
FN:178,_ZN6Player20UnsetNucleationPointERK10Coordinate
FN:142,_ZNK6Player16IsPieceAvailableE12ePieceType_t
FNDA:0,_ZN6Player21SetStartingCoordinateERK10Coordinate
FNDA:0,_ZN6Player8SetPieceE12ePieceType_t
FNDA:0,_ZNK6Player16IsPieceAvailableE12ePieceType_t
FNDA:0,_ZNK6Player17IsNucleationPointERK10Coordinate
FNDA:0,_ZN6Player20UnsetNucleationPointERK10Coordinate
FNF:5
FNH:0
DA:103,0
DA:105,0
DA:106,0
DA:131,0
DA:134,0
DA:135,0
DA:137,0
DA:138,0
DA:139,0
DA:142,0
DA:145,0
DA:147,0
DA:151,0
DA:154,0
DA:155,0
DA:157,0
DA:178,0
DA:181,0
DA:182,0
DA:184,0
DA:187,0
DA:189,0
DA:190,0
DA:192,0
BA:134,0
BA:134,0
BA:134,0
BA:134,0
BA:135,0
BA:135,0
BA:145,0
BA:145,0
BA:145,0
BA:145,0
BA:154,0
BA:154,0
BA:154,0
BA:154,0
BA:155,0
BA:155,0
BA:155,0
BA:155,0
BA:181,0
BA:181,0
BA:181,0
BA:181,0
BA:182,0
BA:182,0
BA:182,0
BA:182,0
BA:184,0
BA:184,0
BA:187,0
BA:187,0
LF:24
LH:0
end_of_record
TN:
SF:/home/frechilla/workspace/headless/blockem_sourceforge/src/bitwise.cpp
FN:225,_ZN7bitwise13BoardMoveDownERK5BoardRK10CoordinateRK6PlayerRyS9_
FN:165,_ZN7bitwise13BoardMoveLeftERK5BoardRK10CoordinateRK6PlayerRyS9_
FN:104,_ZN7bitwise14BoardMoveRightERK5BoardRK10CoordinateRK6PlayerRyS9_
FN:37,_ZN7bitwise14BoardCalculateERK5BoardRK10CoordinateRK6PlayerRyS9_
FNDA:84513,_ZN7bitwise14BoardCalculateERK5BoardRK10CoordinateRK6PlayerRyS9_
FNDA:39039,_ZN7bitwise14BoardMoveRightERK5BoardRK10CoordinateRK6PlayerRyS9_
FNDA:39039,_ZN7bitwise13BoardMoveLeftERK5BoardRK10CoordinateRK6PlayerRyS9_
FNDA:5577,_ZN7bitwise13BoardMoveDownERK5BoardRK10CoordinateRK6PlayerRyS9_
FNF:4
FNH:4
DA:37,84513
DA:45,84513
DA:46,84513
DA:47,84513
DA:48,84513
DA:51,84513
DA:52,84513
DA:54,84513
DA:55,676104
DA:59,591591
DA:62,73359
DA:63,73359
DA:67,73359
DA:72,4145856
DA:76,3627624
DA:77,3627624
DA:78,3627624
DA:81,447876
DA:84,3179748
DA:87,116262
DA:88,116262
DA:90,3063486
DA:93,99351
DA:101,84513
DA:102,84513
DA:104,39039
DA:112,39039
DA:113,39039
DA:114,39039
DA:115,39039
DA:128,39039
DA:129,39039
DA:130,39039
DA:131,39039
DA:133,39039
DA:134,312312
DA:136,273273
DA:142,88803
DA:144,184470
DA:148,8071
DA:150,8071
DA:152,176399
DA:156,3759
DA:161,39039
DA:162,39039
DA:163,39039
DA:165,39039
DA:173,39039
DA:174,39039
DA:175,39039
DA:176,39039
DA:189,39039
DA:190,39039
DA:191,39039
DA:192,39039
DA:194,39039
DA:195,312312
DA:197,273273
DA:203,88803
DA:205,184470
DA:209,7872
DA:211,7872
DA:213,176598
DA:216,7635
DA:221,39039
DA:222,39039
DA:223,39039
DA:225,5577
DA:233,5577
DA:234,5577
DA:235,5577
DA:236,5577
DA:245,5577
DA:248,1287
DA:249,1287
DA:253,1287
DA:258,4290
DA:259,34320
DA:263,30030
DA:264,30030
DA:265,30030
DA:270,12870
DA:272,17160
DA:275,0
DA:276,0
DA:278,17160
DA:281,324
DA:283,4290
DA:287,5577
DA:288,5577
DA:289,5577
BA:45,1
BA:45,2
BA:46,1
BA:46,2
BA:47,1
BA:47,2
BA:48,1
BA:48,2
BA:55,2
BA:55,2
BA:59,2
BA:59,2
BA:59,2
BA:59,2
BA:59,2
BA:59,2
BA:72,2
BA:72,2
BA:78,2
BA:78,2
BA:78,2
BA:78,2
BA:78,2
BA:78,2
BA:84,2
BA:84,2
BA:90,2
BA:90,2
BA:112,1
BA:112,2
BA:113,1
BA:113,2
BA:114,1
BA:114,2
BA:115,1
BA:115,2
BA:134,2
BA:134,2
BA:136,2
BA:136,2
BA:136,2
BA:136,2
BA:136,2
BA:136,2
BA:136,2
BA:136,2
BA:144,2
BA:144,2
BA:152,2
BA:152,2
BA:173,1
BA:173,2
BA:174,1
BA:174,2
BA:175,1
BA:175,2
BA:176,1
BA:176,2
BA:195,2
BA:195,2
BA:197,2
BA:197,2
BA:197,2
BA:197,2
BA:197,2
BA:197,2
BA:197,2
BA:197,2
BA:205,2
BA:205,2
BA:213,2
BA:213,2
BA:233,1
BA:233,2
BA:234,1
BA:234,2
BA:235,1
BA:235,2
BA:236,1
BA:236,2
BA:245,2
BA:245,2
BA:259,2
BA:259,2
BA:265,2
BA:265,2
BA:265,2
BA:265,2
BA:265,1
BA:265,2
BA:265,2
BA:265,2
BA:272,1
BA:272,2
BA:278,2
BA:278,2
LF:91
LH:89
end_of_record
SF:/home/frechilla/workspace/headless/blockem_sourceforge/src/board.h
FN:103,_ZNK5Board8GetNRowsEv
FN:109,_ZNK5Board11GetNColumnsEv
FN:79,_ZNK5Board15IsPlayerInCoordERK10CoordinateRK6Player
FN:55,_ZNK5Board12IsCoordEmptyERK10Coordinate
FNDA:0,_ZNK5Board12IsCoordEmptyERK10Coordinate
FNDA:0,_ZNK5Board15IsPlayerInCoordERK10CoordinateRK6Player
FNDA:0,_ZNK5Board8GetNRowsEv
FNDA:0,_ZNK5Board11GetNColumnsEv
FNF:4
FNH:0
DA:55,0
DA:58,0
DA:59,0
DA:60,0
DA:61,0
DA:63,0
DA:79,0
DA:82,0
DA:83,0
DA:84,0
DA:85,0
DA:87,0
DA:103,0
DA:105,0
DA:109,0
DA:111,0
BA:58,0
BA:58,0
BA:59,0
BA:59,0
BA:60,0
BA:60,0
BA:61,0
BA:61,0
BA:82,0
BA:82,0
BA:83,0
BA:83,0
BA:84,0
BA:84,0
BA:85,0
BA:85,0
LF:16
LH:0
end_of_record
SF:/home/frechilla/workspace/headless/blockem_sourceforge/src/coordinate.h
FN:53,_ZN10CoordinateC1Eii
FN:57,_ZN10CoordinateD0Ev
FN:57,_ZN10CoordinateD1Ev
FNDA:0,_ZN10CoordinateC1Eii
FNDA:0,_ZN10CoordinateD0Ev
FNDA:0,_ZN10CoordinateD1Ev
FNF:3
FNH:0
DA:53,0
DA:55,0
DA:56,0
DA:57,0
DA:58,0
BA:58,0
BA:58,0
BA:58,0
BA:58,0
LF:5
LH:0
end_of_record
SF:/home/frechilla/workspace/headless/blockem_sourceforge/src/player.h
FN:80,_ZNK6Player16PresentationCharEv
FNDA:0,_ZNK6Player16PresentationCharEv
FNF:1
FNH:0
DA:80,0
DA:82,0
LF:2
LH:0
end_of_record
