TN:
SF:/usr/include/c++/4.4/bits/allocator.h
FN:101,_ZNSaIcEC1Ev
FN:109,_ZNSaIcED1Ev
FN:103,_ZNSaIcEC1ERKS_
FN:109,_ZNSaIcED2Ev
FNDA:0,_ZNSaIcEC1Ev
FNDA:0,_ZNSaIcEC1ERKS_
FNDA:0,_ZNSaIcED1Ev
FNDA:0,_ZNSaIcED2Ev
FNF:4
FNH:0
DA:101,0
DA:103,0
DA:104,0
DA:109,0
LF:4
LH:0
end_of_record
SF:/usr/include/c++/4.4/bits/basic_ios.h
FN:127,_ZNKSt9basic_iosIcSt11char_traitsIcEE7rdstateEv
FN:147,_ZNSt9basic_iosIcSt11char_traitsIcEE8setstateESt12_Ios_Iostate
FN:46,_ZSt13__check_facetISt5ctypeIcEERKT_PS3_
FN:439,_ZNKSt9basic_iosIcSt11char_traitsIcEE5widenEc
FNDA:0,_ZSt13__check_facetISt5ctypeIcEERKT_PS3_
FNDA:0,_ZNKSt9basic_iosIcSt11char_traitsIcEE7rdstateEv
FNDA:0,_ZNSt9basic_iosIcSt11char_traitsIcEE8setstateESt12_Ios_Iostate
FNDA:0,_ZNKSt9basic_iosIcSt11char_traitsIcEE5widenEc
FNF:4
FNH:0
DA:46,0
DA:48,0
DA:49,0
DA:50,0
DA:127,0
DA:128,0
DA:147,0
DA:148,0
DA:439,0
DA:440,0
BA:48,0
BA:48,0
LF:10
LH:0
end_of_record
SF:/usr/include/c++/4.4/bits/basic_string.h
FN:272,_ZNKSs7_M_dataEv
FN:280,_ZNKSs6_M_repEv
FN:1615,_ZNKSs5c_strEv
FN:1625,_ZNKSs4dataEv
FN:623,_ZNKSs4sizeEv
FN:173,_ZNSs4_Rep12_S_empty_repEv
FN:1632,_ZNKSs13get_allocatorEv
FN:253,_ZNSs12_Alloc_hiderD1Ev
FN:224,_ZNSs4_Rep10_M_disposeERKSaIcE
FN:497,_ZNSsD1Ev
FN:2164,_ZStplIcSt11char_traitsIcESaIcEESbIT_T0_T1_ERKS6_S8_
FN:2501,_ZStlsIcSt11char_traitsIcESaIcEERSt13basic_ostreamIT_T0_ES7_RKSbIS4_S5_T1_E
FNDA:0,_ZNSs4_Rep12_S_empty_repEv
FNDA:0,_ZNSs4_Rep10_M_disposeERKSaIcE
FNDA:0,_ZNSs12_Alloc_hiderD1Ev
FNDA:0,_ZNKSs7_M_dataEv
FNDA:0,_ZNKSs6_M_repEv
FNDA:0,_ZNSsD1Ev
FNDA:0,_ZNKSs4sizeEv
FNDA:0,_ZNKSs5c_strEv
FNDA:0,_ZNKSs4dataEv
FNDA:0,_ZNKSs13get_allocatorEv
FNDA:340,_ZStplIcSt11char_traitsIcESaIcEESbIT_T0_T1_ERKS6_S8_
FNDA:0,_ZStlsIcSt11char_traitsIcESaIcEERSt13basic_ostreamIT_T0_ES7_RKSbIS4_S5_T1_E
FNF:12
FNH:1
DA:173,0
DA:178,0
DA:179,0
DA:224,0
DA:227,0
DA:229,0
DA:231,0
DA:232,0
DA:253,0
DA:272,0
DA:273,0
DA:280,0
DA:281,0
DA:497,0
DA:498,0
DA:623,0
DA:624,0
DA:1615,0
DA:1616,0
DA:1625,0
DA:1626,0
DA:1632,0
DA:1633,0
DA:2164,340
DA:2167,340
DA:2168,340
DA:2169,0
DA:2501,0
DA:2506,0
BA:227,0
BA:227,0
BA:229,0
BA:229,0
LF:29
LH:3
end_of_record
SF:/usr/include/c++/4.4/bits/char_traits.h
FN:262,_ZNSt11char_traitsIcE6lengthEPKc
FNDA:0,_ZNSt11char_traitsIcE6lengthEPKc
FNF:1
FNH:0
DA:262,0
DA:263,0
LF:2
LH:0
end_of_record
SF:/usr/include/c++/4.4/bits/ios_base.h
FN:166,_ZStorSt12_Ios_IostateS_
FNDA:0,_ZStorSt12_Ios_IostateS_
FNF:1
FNH:0
DA:166,0
DA:167,0
LF:2
LH:0
end_of_record
SF:/usr/include/c++/4.4/bits/locale_facets.h
FN:865,_ZNKSt5ctypeIcE5widenEc
FNDA:0,_ZNKSt5ctypeIcE5widenEc
FNF:1
FNH:0
DA:865,0
DA:867,0
DA:868,0
DA:869,0
DA:870,0
BA:867,0
BA:867,0
LF:5
LH:0
end_of_record
SF:/usr/include/c++/4.4/ext/atomicity.h
FN:62,_ZN9__gnu_cxxL25__exchange_and_add_singleEPii
FN:45,_ZN9__gnu_cxxL18__exchange_and_addEPVii
FN:75,_ZN9__gnu_cxxL27__exchange_and_add_dispatchEPii
FNDA:0,_ZN9__gnu_cxxL18__exchange_and_addEPVii
FNDA:0,_ZN9__gnu_cxxL25__exchange_and_add_singleEPii
FNDA:0,_ZN9__gnu_cxxL27__exchange_and_add_dispatchEPii
FNF:3
FNH:0
DA:45,0
DA:46,0
DA:62,0
DA:64,0
DA:65,0
DA:66,0
DA:75,0
DA:78,0
DA:79,0
DA:81,0
BA:78,0
BA:78,0
LF:10
LH:0
end_of_record
SF:/usr/include/c++/4.4/ext/new_allocator.h
FN:66,_ZN9__gnu_cxx13new_allocatorIcEC2Ev
FN:73,_ZN9__gnu_cxx13new_allocatorIcED2Ev
FN:68,_ZN9__gnu_cxx13new_allocatorIcEC2ERKS1_
FNDA:0,_ZN9__gnu_cxx13new_allocatorIcEC2Ev
FNDA:0,_ZN9__gnu_cxx13new_allocatorIcEC2ERKS1_
FNDA:0,_ZN9__gnu_cxx13new_allocatorIcED2Ev
FNF:3
FNH:0
DA:66,0
DA:68,0
DA:73,0
LF:3
LH:0
end_of_record
SF:/usr/include/c++/4.4/i486-linux-gnu/bits/gthr-default.h
FN:238,_ZL18__gthread_active_pv
FNDA:0,_ZL18__gthread_active_pv
FNF:1
FNH:0
DA:238,0
DA:242,0
LF:2
LH:0
end_of_record
SF:/usr/include/c++/4.4/iostream
DA:72,17
LF:1
LH:1
end_of_record
SF:/usr/include/c++/4.4/ostream
FN:108,_ZNSolsEPFRSoS_E
FN:505,_ZStlsISt11char_traitsIcEERSt13basic_ostreamIcT_ES5_PKc
FN:559,_ZSt5flushIcSt11char_traitsIcEERSt13basic_ostreamIT_T0_ES6_
FN:538,_ZSt4endlIcSt11char_traitsIcEERSt13basic_ostreamIT_T0_ES6_
FNDA:0,_ZNSolsEPFRSoS_E
FNDA:0,_ZStlsISt11char_traitsIcEERSt13basic_ostreamIcT_ES5_PKc
FNDA:0,_ZSt4endlIcSt11char_traitsIcEERSt13basic_ostreamIT_T0_ES6_
FNDA:0,_ZSt5flushIcSt11char_traitsIcEERSt13basic_ostreamIT_T0_ES6_
FNF:4
FNH:0
DA:108,0
DA:113,0
DA:505,0
DA:507,0
DA:508,0
DA:510,0
DA:512,0
DA:538,0
DA:539,0
DA:559,0
DA:560,0
BA:507,0
BA:507,0
LF:11
LH:0
end_of_record
SF:/usr/include/glibmm-2.4/glibmm/refptr.h
FN:194,_ZN4Glib6RefPtrIN3Gtk7BuilderEEC1ERKS3_
FN:181,_ZN4Glib6RefPtrIN3Gtk7BuilderEED1Ev
FN:175,_ZN4Glib6RefPtrIN3Gdk6PixbufEEC1Ev
FN:181,_ZN4Glib6RefPtrIN3Gdk6PixbufEED1Ev
FN:282,_ZNK4Glib6RefPtrIN3Gdk6PixbufEEcvbEv
FN:194,_ZN4Glib6RefPtrIN3Gdk6PixbufEEC1ERKS3_
FN:220,_ZN4Glib6RefPtrIN3Gdk6PixbufEE4swapERS3_
FN:228,_ZN4Glib6RefPtrIN3Gdk6PixbufEEaSERKS3_
FN:296,_ZN4Glib6RefPtrIN3Gdk6PixbufEE5resetEv
FNDA:0,_ZN4Glib6RefPtrIN3Gdk6PixbufEEC1Ev
FNDA:0,_ZN4Glib6RefPtrIN3Gtk7BuilderEED1Ev
FNDA:0,_ZN4Glib6RefPtrIN3Gdk6PixbufEED1Ev
FNDA:0,_ZN4Glib6RefPtrIN3Gtk7BuilderEEC1ERKS3_
FNDA:0,_ZN4Glib6RefPtrIN3Gdk6PixbufEEC1ERKS3_
FNDA:0,_ZN4Glib6RefPtrIN3Gdk6PixbufEE4swapERS3_
FNDA:0,_ZN4Glib6RefPtrIN3Gdk6PixbufEEaSERKS3_
FNDA:0,_ZNK4Glib6RefPtrIN3Gdk6PixbufEEcvbEv
FNDA:0,_ZN4Glib6RefPtrIN3Gdk6PixbufEE5resetEv
FNF:9
FNH:0
DA:175,0
DA:177,0
DA:178,0
DA:181,0
DA:183,0
DA:184,0
DA:185,0
DA:194,0
DA:196,0
DA:198,0
DA:199,0
DA:200,0
DA:220,0
DA:222,0
DA:223,0
DA:224,0
DA:225,0
DA:228,0
DA:254,0
DA:255,0
DA:256,0
DA:282,0
DA:284,0
DA:296,0
DA:298,0
DA:299,0
DA:300,0
BA:183,0
BA:183,0
BA:183,0
BA:183,0
BA:198,0
BA:198,0
BA:198,0
BA:198,0
LF:27
LH:0
end_of_record
SF:/usr/include/gtkmm-2.4/gtkmm/papersize.h
DA:37,17
DA:38,17
DA:39,17
DA:40,17
DA:41,17
DA:42,17
DA:43,17
LF:7
LH:7
end_of_record
SF:/usr/include/c++/4.4/bits/allocator.h
FN:101,_ZNSaIcEC1Ev
FN:109,_ZNSaIcED1Ev
FN:103,_ZNSaIcEC1ERKS_
FN:109,_ZNSaIcED2Ev
DA:101,31768
DA:103,36706
DA:104,36706
DA:107,29788
DA:109,98262
DA:121,0
DA:122,0
DA:167,1548
DA:168,1548
LF:9
LH:7
end_of_record
SF:/usr/include/c++/4.4/ext/atomicity.h
FN:62,_ZN9__gnu_cxxL25__exchange_and_add_singleEPii
FN:45,_ZN9__gnu_cxxL18__exchange_and_addEPVii
FN:75,_ZN9__gnu_cxxL27__exchange_and_add_dispatchEPii
DA:45,0
DA:46,0
DA:62,0
DA:64,0
DA:65,0
DA:66,0
DA:75,0
DA:78,0
DA:79,0
DA:81,0
LF:10
LH:0
end_of_record
SF:/usr/include/c++/4.4/bits/basic_ios.h
FN:127,_ZNKSt9basic_iosIcSt11char_traitsIcEE7rdstateEv
FN:147,_ZNSt9basic_iosIcSt11char_traitsIcEE8setstateESt12_Ios_Iostate
FN:46,_ZSt13__check_facetISt5ctypeIcEERKT_PS3_
FN:439,_ZNKSt9basic_iosIcSt11char_traitsIcEE5widenEc
DA:46,0
DA:48,0
DA:49,0
DA:50,0
DA:115,0
DA:116,0
DA:127,0
DA:128,0
DA:147,0
DA:148,0
DA:191,0
DA:192,0
DA:272,0
DA:360,0
DA:362,0
DA:364,0
DA:365,0
DA:367,0
DA:380,0
DA:382,0
DA:383,0
DA:384,0
DA:439,0
DA:440,0
DA:450,0
DA:452,0
DA:453,0
LF:27
LH:0
end_of_record
SF:/usr/include/c++/4.4/bits/basic_string.h
FN:272,_ZNKSs7_M_dataEv
FN:280,_ZNKSs6_M_repEv
FN:1615,_ZNKSs5c_strEv
FN:1625,_ZNKSs4dataEv
FN:623,_ZNKSs4sizeEv
FN:173,_ZNSs4_Rep12_S_empty_repEv
FN:1632,_ZNKSs13get_allocatorEv
FN:253,_ZNSs12_Alloc_hiderD1Ev
FN:224,_ZNSs4_Rep10_M_disposeERKSaIcE
FN:497,_ZNSsD1Ev
FN:2164,_ZStplIcSt11char_traitsIcESaIcEESbIT_T0_T1_ERKS6_S8_
FN:2501,_ZStlsIcSt11char_traitsIcESaIcEERSt13basic_ostreamIT_T0_ES7_RKSbIS4_S5_T1_E
DA:173,0
DA:178,0
DA:179,0
DA:183,0
DA:184,0
DA:195,0
DA:196,0
DA:199,0
DA:201,0
DA:202,0
DA:203,0
DA:206,0
DA:209,0
DA:210,0
DA:224,0
DA:227,0
DA:229,0
DA:231,0
DA:232,0
DA:253,0
DA:254,0
DA:255,0
DA:272,0
DA:273,0
DA:280,0
DA:281,0
DA:294,0
DA:296,0
DA:297,0
DA:298,0
DA:334,0
DA:336,0
DA:337,0
DA:339,0
DA:340,0
DA:379,0
DA:380,0
DA:406,0
DA:407,0
DA:497,0
DA:498,0
DA:505,0
DA:506,0
DA:623,0
DA:624,0
DA:629,0
DA:630,0
DA:775,0
DA:777,0
DA:778,0
DA:779,0
DA:780,0
DA:1542,0
DA:1546,0
DA:1559,0
DA:1562,0
DA:1615,0
DA:1616,0
DA:1625,0
DA:1626,0
DA:1632,0
DA:1633,0
DA:2147,0
DA:2150,0
DA:2164,340
DA:2167,340
DA:2168,340
DA:2169,0
DA:2501,0
DA:2506,0
DA:2541,0
DA:2543,0
LF:72
LH:3
end_of_record
SF:/usr/include/c++/4.4/bits/char_traits.h
FN:262,_ZNSt11char_traitsIcE6lengthEPKc
DA:246,0
DA:247,0
DA:262,0
DA:263,0
DA:274,0
DA:275,0
LF:6
LH:0
end_of_record
SF:/usr/include/c++/4.4/i486-linux-gnu/bits/gthr-default.h
FN:238,_ZL18__gthread_active_pv
DA:238,0
DA:242,0
LF:2
LH:0
end_of_record
SF:/home/frechilla/workspace/headless/blockem_sourceforge/src/gui_about_dialog.cpp
FN:92,_Z41__static_initialization_and_destruction_0ii
FN:92,_GLOBAL__I__ZN11AboutDialogC2EP15_GtkAboutDialogRKN4Glib6RefPtrIN3Gtk7BuilderEEE
FN:90,_ZN11AboutDialogD0Ev
FN:90,_ZN11AboutDialogD1Ev
FN:90,_ZN11AboutDialogD2Ev
FN:36,_ZN11AboutDialogC1EP15_GtkAboutDialogRKN4Glib6RefPtrIN3Gtk7BuilderEEE
FN:36,_ZN11AboutDialogC2EP15_GtkAboutDialogRKN4Glib6RefPtrIN3Gtk7BuilderEEE
FNDA:0,_ZN11AboutDialogC1EP15_GtkAboutDialogRKN4Glib6RefPtrIN3Gtk7BuilderEEE
FNDA:0,_ZN11AboutDialogC2EP15_GtkAboutDialogRKN4Glib6RefPtrIN3Gtk7BuilderEEE
FNDA:0,_ZN11AboutDialogD0Ev
FNDA:0,_ZN11AboutDialogD1Ev
FNDA:0,_ZN11AboutDialogD2Ev
FNDA:17,_Z41__static_initialization_and_destruction_0ii
FNDA:17,_GLOBAL__I__ZN11AboutDialogC2EP15_GtkAboutDialogRKN4Glib6RefPtrIN3Gtk7BuilderEEE
FNF:7
FNH:2
DA:36,0
DA:38,0
DA:40,0
DA:43,0
DA:46,0
DA:50,0
DA:52,0
DA:54,0
DA:58,0
DA:61,0
DA:63,0
DA:68,0
DA:72,0
DA:74,0
DA:76,0
DA:80,0
DA:83,0
DA:85,0
DA:87,0
DA:88,0
DA:90,0
DA:92,51
BA:46,0
BA:46,0
BA:46,0
BA:46,0
BA:61,0
BA:61,0
BA:61,0
BA:61,0
BA:68,0
BA:68,0
BA:68,0
BA:68,0
BA:83,0
BA:83,0
BA:83,0
BA:83,0
BA:92,2
BA:92,1
BA:92,2
BA:92,1
BA:92,0
BA:92,0
BA:92,0
BA:92,0
BA:92,0
BA:92,0
BA:92,0
BA:92,0
BA:92,0
BA:92,0
BA:92,0
BA:92,0
BA:92,0
BA:92,0
BA:92,0
BA:92,0
BA:92,0
BA:92,0
BA:92,0
BA:92,0
BA:92,0
BA:92,0
BA:92,0
BA:92,0
BA:92,0
BA:92,0
BA:92,0
BA:92,0
BA:92,0
BA:92,0
LF:22
LH:1
end_of_record
SF:/home/frechilla/workspace/headless/blockem_sourceforge/src/gui_glade_defs.h
DA:97,17
DA:98,34
DA:99,34
DA:100,34
LF:4
LH:4
end_of_record
SF:/usr/include/c++/4.4/bits/ios_base.h
FN:166,_ZStorSt12_Ios_IostateS_
DA:124,0
DA:125,0
DA:128,0
DA:129,0
DA:162,0
DA:163,0
DA:166,0
DA:167,0
DA:657,0
DA:659,0
DA:660,0
DA:661,0
LF:12
LH:0
end_of_record
SF:/usr/include/c++/4.4/iostream
DA:72,139
LF:1
LH:1
end_of_record
SF:/usr/include/c++/4.4/bits/locale_facets.h
FN:865,_ZNKSt5ctypeIcE5widenEc
DA:865,0
DA:867,0
DA:868,0
DA:869,0
DA:870,0
LF:5
LH:0
end_of_record
SF:/usr/include/c++/4.4/ext/new_allocator.h
FN:66,_ZN9__gnu_cxx13new_allocatorIcEC2Ev
FN:73,_ZN9__gnu_cxx13new_allocatorIcED2Ev
FN:68,_ZN9__gnu_cxx13new_allocatorIcEC2ERKS1_
DA:66,61556
DA:68,36706
DA:73,98262
DA:84,48504
DA:86,48504
DA:87,0
DA:89,48504
DA:94,48504
DA:95,48504
DA:98,48504
DA:99,48504
DA:104,13346
DA:105,13346
DA:115,13346
LF:14
LH:13
end_of_record
SF:/usr/include/c++/4.4/ostream
FN:108,_ZNSolsEPFRSoS_E
FN:505,_ZStlsISt11char_traitsIcEERSt13basic_ostreamIcT_ES5_PKc
FN:559,_ZSt5flushIcSt11char_traitsIcEERSt13basic_ostreamIT_T0_ES6_
FN:538,_ZSt4endlIcSt11char_traitsIcEERSt13basic_ostreamIT_T0_ES6_
DA:91,0
DA:108,0
DA:113,0
DA:191,0
DA:195,0
DA:209,0
DA:210,0
DA:361,0
DA:362,0
DA:457,0
DA:458,0
DA:505,0
DA:507,0
DA:508,0
DA:510,0
DA:512,0
DA:538,0
DA:539,0
DA:559,0
DA:560,0
LF:20
LH:0
end_of_record
SF:/usr/include/gtkmm-2.4/gtkmm/papersize.h
DA:37,136
DA:38,136
DA:39,136
DA:40,136
DA:41,136
DA:42,136
DA:43,136
LF:7
LH:7
end_of_record
SF:/usr/include/glibmm-2.4/glibmm/refptr.h
FN:194,_ZN4Glib6RefPtrIN3Gtk7BuilderEEC1ERKS3_
FN:181,_ZN4Glib6RefPtrIN3Gtk7BuilderEED1Ev
FN:175,_ZN4Glib6RefPtrIN3Gdk6PixbufEEC1Ev
FN:181,_ZN4Glib6RefPtrIN3Gdk6PixbufEED1Ev
FN:282,_ZNK4Glib6RefPtrIN3Gdk6PixbufEEcvbEv
FN:194,_ZN4Glib6RefPtrIN3Gdk6PixbufEEC1ERKS3_
FN:220,_ZN4Glib6RefPtrIN3Gdk6PixbufEE4swapERS3_
FN:228,_ZN4Glib6RefPtrIN3Gdk6PixbufEEaSERKS3_
FN:296,_ZN4Glib6RefPtrIN3Gdk6PixbufEE5resetEv
DA:169,0
DA:171,0
DA:175,0
DA:177,0
DA:178,0
DA:181,0
DA:183,0
DA:184,0
DA:185,0
DA:188,0
DA:190,0
DA:191,0
DA:194,0
DA:196,0
DA:198,0
DA:199,0
DA:200,0
DA:220,0
DA:222,0
DA:223,0
DA:224,0
DA:225,0
DA:228,0
DA:254,0
DA:255,0
DA:256,0
DA:282,0
DA:284,0
DA:296,0
DA:298,0
DA:299,0
DA:300,0
DA:305,0
DA:307,0
DA:309,0
DA:310,0
DA:312,0
LF:37
LH:0
end_of_record
TN:
SF:/usr/include/c++/4.4/bits/allocator.h
FN:101,_ZNSaISt13_Rb_tree_nodeI10CoordinateEEC2Ev
FN:109,_ZNSaISt13_Rb_tree_nodeI10CoordinateEED2Ev
FN:101,_ZNSaI10CoordinateEC1Ev
FN:103,_ZNSaI10CoordinateEC2ERKS0_
FN:109,_ZNSaI10CoordinateED2Ev
FN:109,_ZNSaI10CoordinateED1Ev
FN:107,_ZNSaI10CoordinateEC1ISt13_Rb_tree_nodeIS_EEERKSaIT_E
FN:101,_ZNSaIcEC1Ev
FN:103,_ZNSaIcEC1ERKS_
FN:109,_ZNSaIcED2Ev
FN:109,_ZNSaIcED1Ev
FNDA:42,_ZNSaISt13_Rb_tree_nodeI10CoordinateEEC2Ev
FNDA:0,_ZNSaI10CoordinateEC1Ev
FNDA:0,_ZNSaIcEC1Ev
FNDA:0,_ZNSaI10CoordinateEC2ERKS0_
FNDA:0,_ZNSaIcEC1ERKS_
FNDA:564,_ZNSaI10CoordinateEC1ISt13_Rb_tree_nodeIS_EEERKSaIT_E
FNDA:42,_ZNSaISt13_Rb_tree_nodeI10CoordinateEED2Ev
FNDA:0,_ZNSaI10CoordinateED2Ev
FNDA:0,_ZNSaI10CoordinateED1Ev
FNDA:0,_ZNSaIcED2Ev
FNDA:0,_ZNSaIcED1Ev
FNF:11
FNH:3
DA:101,42
DA:103,0
DA:104,0
DA:107,564
DA:109,42
LF:5
LH:3
end_of_record
SF:/usr/include/c++/4.4/bits/basic_ios.h
FN:127,_ZNKSt9basic_iosIcSt11char_traitsIcEE7rdstateEv
FN:147,_ZNSt9basic_iosIcSt11char_traitsIcEE8setstateESt12_Ios_Iostate
FN:46,_ZSt13__check_facetISt5ctypeIcEERKT_PS3_
FN:439,_ZNKSt9basic_iosIcSt11char_traitsIcEE5widenEc
FNDA:0,_ZSt13__check_facetISt5ctypeIcEERKT_PS3_
FNDA:0,_ZNKSt9basic_iosIcSt11char_traitsIcEE7rdstateEv
FNDA:0,_ZNSt9basic_iosIcSt11char_traitsIcEE8setstateESt12_Ios_Iostate
FNDA:0,_ZNKSt9basic_iosIcSt11char_traitsIcEE5widenEc
FNF:4
FNH:0
DA:46,0
DA:48,0
DA:49,0
DA:50,0
DA:127,0
DA:128,0
DA:147,0
DA:148,0
DA:439,0
DA:440,0
BA:48,0
BA:48,0
LF:10
LH:0
end_of_record
SF:/usr/include/c++/4.4/bits/basic_string.h
FN:272,_ZNKSs7_M_dataEv
FN:280,_ZNKSs6_M_repEv
FN:173,_ZNSs4_Rep12_S_empty_repEv
FN:1632,_ZNKSs13get_allocatorEv
FN:253,_ZNSs12_Alloc_hiderD1Ev
FN:224,_ZNSs4_Rep10_M_disposeERKSaIcE
FN:497,_ZNSsD1Ev
FNDA:0,_ZNSs4_Rep12_S_empty_repEv
FNDA:0,_ZNSs4_Rep10_M_disposeERKSaIcE
FNDA:0,_ZNSs12_Alloc_hiderD1Ev
FNDA:0,_ZNKSs7_M_dataEv
FNDA:0,_ZNKSs6_M_repEv
FNDA:0,_ZNSsD1Ev
FNDA:0,_ZNKSs13get_allocatorEv
FNF:7
FNH:0
DA:173,0
DA:178,0
DA:179,0
DA:224,0
DA:227,0
DA:229,0
DA:231,0
DA:232,0
DA:253,0
DA:272,0
DA:273,0
DA:280,0
DA:281,0
DA:497,0
DA:498,0
DA:1632,0
DA:1633,0
BA:227,0
BA:227,0
BA:229,0
BA:229,0
LF:17
LH:0
end_of_record
SF:/usr/include/c++/4.4/bits/char_traits.h
FN:262,_ZNSt11char_traitsIcE6lengthEPKc
FNDA:0,_ZNSt11char_traitsIcE6lengthEPKc
FNF:1
FNH:0
DA:262,0
DA:263,0
LF:2
LH:0
end_of_record
SF:/usr/include/c++/4.4/bits/ios_base.h
FN:166,_ZStorSt12_Ios_IostateS_
FNDA:0,_ZStorSt12_Ios_IostateS_
FNF:1
FNH:0
DA:166,0
DA:167,0
LF:2
LH:0
end_of_record
SF:/usr/include/c++/4.4/bits/locale_facets.h
FN:865,_ZNKSt5ctypeIcE5widenEc
FNDA:0,_ZNKSt5ctypeIcE5widenEc
FNF:1
FNH:0
DA:865,0
DA:867,0
DA:868,0
DA:869,0
DA:870,0
BA:867,0
BA:867,0
LF:5
LH:0
end_of_record
SF:/usr/include/c++/4.4/bits/stl_construct.h
FN:82,_ZSt8_DestroyI10CoordinateEvPT_
FN:90,_ZNSt12_Destroy_auxILb0EE9__destroyIP10CoordinateEEvT_S4_
FN:112,_ZSt8_DestroyIP10CoordinateEvT_S2_
FN:139,_ZSt8_DestroyIP10CoordinateS0_EvT_S2_RSaIT0_E
FN:70,_ZSt10_ConstructI10CoordinateS0_EvPT_RKT0_
FNDA:0,_ZSt10_ConstructI10CoordinateS0_EvPT_RKT0_
FNDA:0,_ZSt8_DestroyI10CoordinateEvPT_
FNDA:0,_ZNSt12_Destroy_auxILb0EE9__destroyIP10CoordinateEEvT_S4_
FNDA:0,_ZSt8_DestroyIP10CoordinateEvT_S2_
FNDA:0,_ZSt8_DestroyIP10CoordinateS0_EvT_S2_RSaIT0_E
FNF:5
FNH:0
DA:70,0
DA:74,0
DA:75,0
DA:82,0
DA:83,0
DA:90,0
DA:92,0
DA:93,0
DA:94,0
DA:112,0
DA:116,0
DA:118,0
DA:139,0
DA:142,0
DA:143,0
BA:74,0
BA:74,0
BA:92,0
BA:92,0
LF:15
LH:0
end_of_record
SF:/usr/include/c++/4.4/bits/stl_function.h
FN:475,_ZNKSt9_IdentityI10CoordinateEclERKS0_
FNDA:2786,_ZNKSt9_IdentityI10CoordinateEclERKS0_
FNF:1
FNH:1
DA:475,2786
DA:476,2786
LF:2
LH:2
end_of_record
SF:/usr/include/c++/4.4/bits/stl_iterator.h
FN:702,_ZNK9__gnu_cxx17__normal_iteratorIPK10CoordinateSt6vectorIS1_SaIS1_EEEptEv
FN:686,_ZN9__gnu_cxx17__normal_iteratorIPK10CoordinateSt6vectorIS1_SaIS1_EEEC1ERKS3_
FN:713,_ZN9__gnu_cxx17__normal_iteratorIPK10CoordinateSt6vectorIS1_SaIS1_EEEppEi
FN:750,_ZNK9__gnu_cxx17__normal_iteratorIPK10CoordinateSt6vectorIS1_SaIS1_EEE4baseEv
FN:783,_ZN9__gnu_cxxneIPK10CoordinateSt6vectorIS1_SaIS1_EEEEbRKNS_17__normal_iteratorIT_T0_EESC_
FNDA:0,_ZN9__gnu_cxx17__normal_iteratorIPK10CoordinateSt6vectorIS1_SaIS1_EEEC1ERKS3_
FNDA:0,_ZNK9__gnu_cxx17__normal_iteratorIPK10CoordinateSt6vectorIS1_SaIS1_EEEptEv
FNDA:0,_ZN9__gnu_cxx17__normal_iteratorIPK10CoordinateSt6vectorIS1_SaIS1_EEEppEi
FNDA:0,_ZNK9__gnu_cxx17__normal_iteratorIPK10CoordinateSt6vectorIS1_SaIS1_EEE4baseEv
FNDA:0,_ZN9__gnu_cxxneIPK10CoordinateSt6vectorIS1_SaIS1_EEEEbRKNS_17__normal_iteratorIT_T0_EESC_
FNF:5
FNH:0
DA:686,0
DA:702,0
DA:703,0
DA:713,0
DA:714,0
DA:750,0
DA:751,0
DA:783,0
DA:785,0
LF:9
LH:0
end_of_record
SF:/usr/include/c++/4.4/bits/stl_list.h
FN:200,_ZNSt20_List_const_iteratorISt6vectorI10CoordinateSaIS1_EEEC1Ev
FN:255,_ZNKSt20_List_const_iteratorISt6vectorI10CoordinateSaIS1_EEEneERKS4_
FN:228,_ZNSt20_List_const_iteratorISt6vectorI10CoordinateSaIS1_EEEppEi
FN:213,_ZNKSt20_List_const_iteratorISt6vectorI10CoordinateSaIS1_EEEdeEv
FN:204,_ZNSt20_List_const_iteratorISt6vectorI10CoordinateSaIS1_EEEC1EPKSt15_List_node_base
FN:698,_ZNKSt4listISt6vectorI10CoordinateSaIS1_EESaIS3_EE5beginEv
FN:716,_ZNKSt4listISt6vectorI10CoordinateSaIS1_EESaIS3_EE3endEv
FNDA:0,_ZNSt20_List_const_iteratorISt6vectorI10CoordinateSaIS1_EEEC1Ev
FNDA:0,_ZNSt20_List_const_iteratorISt6vectorI10CoordinateSaIS1_EEEC1EPKSt15_List_node_base
FNDA:0,_ZNKSt20_List_const_iteratorISt6vectorI10CoordinateSaIS1_EEEdeEv
FNDA:0,_ZNSt20_List_const_iteratorISt6vectorI10CoordinateSaIS1_EEEppEi
FNDA:0,_ZNKSt20_List_const_iteratorISt6vectorI10CoordinateSaIS1_EEEneERKS4_
FNDA:0,_ZNKSt4listISt6vectorI10CoordinateSaIS1_EESaIS3_EE5beginEv
FNDA:0,_ZNKSt4listISt6vectorI10CoordinateSaIS1_EESaIS3_EE3endEv
FNF:7
FNH:0
DA:200,0
DA:201,0
DA:204,0
DA:205,0
DA:213,0
DA:214,0
DA:228,0
DA:230,0
DA:231,0
DA:255,0
DA:256,0
DA:698,0
DA:699,0
DA:716,0
DA:717,0
LF:15
LH:0
end_of_record
SF:/usr/include/c++/4.4/bits/stl_pair.h
FN:83,_ZNSt4pairISt23_Rb_tree_const_iteratorI10CoordinateEbEC1ERKS2_RKb
FN:83,_ZNSt4pairISt17_Rb_tree_iteratorI10CoordinateEbEC1ERKS2_RKb
FNDA:282,_ZNSt4pairISt23_Rb_tree_const_iteratorI10CoordinateEbEC1ERKS2_RKb
FNDA:282,_ZNSt4pairISt17_Rb_tree_iteratorI10CoordinateEbEC1ERKS2_RKb
FNF:2
FNH:2
DA:83,564
DA:84,564
LF:2
LH:2
end_of_record
SF:/usr/include/c++/4.4/bits/stl_set.h
FN:291,_ZNKSt3setI10CoordinateNS0_10comparatorESaIS0_EE5beginEv
FN:300,_ZNKSt3setI10CoordinateNS0_10comparatorESaIS0_EE3endEv
FN:547,_ZNSt3setI10CoordinateNS0_10comparatorESaIS0_EE4findERKS0_
FN:136,_ZNSt3setI10CoordinateNS0_10comparatorESaIS0_EEC1Ev
FN:515,_ZNSt3setI10CoordinateNS0_10comparatorESaIS0_EE5clearEv
FN:88,_ZNSt3setI10CoordinateNS0_10comparatorESaIS0_EED1Ev
FN:408,_ZNSt3setI10CoordinateNS0_10comparatorESaIS0_EE6insertERKS0_
FNDA:42,_ZNSt3setI10CoordinateNS0_10comparatorESaIS0_EED1Ev
FNDA:42,_ZNSt3setI10CoordinateNS0_10comparatorESaIS0_EEC1Ev
FNDA:23,_ZNKSt3setI10CoordinateNS0_10comparatorESaIS0_EE5beginEv
FNDA:201,_ZNKSt3setI10CoordinateNS0_10comparatorESaIS0_EE3endEv
FNDA:282,_ZNSt3setI10CoordinateNS0_10comparatorESaIS0_EE6insertERKS0_
FNDA:3,_ZNSt3setI10CoordinateNS0_10comparatorESaIS0_EE5clearEv
FNDA:32,_ZNSt3setI10CoordinateNS0_10comparatorESaIS0_EE4findERKS0_
FNF:7
FNH:7
DA:88,42
DA:136,42
DA:137,42
DA:291,23
DA:292,23
DA:300,201
DA:301,201
DA:408,282
DA:411,282
DA:412,282
DA:515,3
DA:516,3
DA:547,32
DA:548,32
LF:14
LH:14
end_of_record
SF:/usr/include/c++/4.4/bits/stl_tree.h
FN:291,_ZNKSt23_Rb_tree_const_iteratorI10CoordinateEneERKS1_
FN:238,_ZNSt23_Rb_tree_const_iteratorI10CoordinateEC1Ev
FN:249,_ZNKSt23_Rb_tree_const_iteratorI10CoordinateEdeEv
FN:287,_ZNKSt23_Rb_tree_const_iteratorI10CoordinateEeqERKS1_
FN:481,_ZNSt8_Rb_treeI10CoordinateS0_St9_IdentityIS0_ENS0_10comparatorESaIS0_EE8_M_beginEv
FN:245,_ZNSt23_Rb_tree_const_iteratorI10CoordinateEC1ERKSt17_Rb_tree_iteratorIS0_E
FN:516,_ZNSt8_Rb_treeI10CoordinateS0_St9_IdentityIS0_ENS0_10comparatorESaIS0_EE8_S_rightEPSt18_Rb_tree_node_base
FN:508,_ZNSt8_Rb_treeI10CoordinateS0_St9_IdentityIS0_ENS0_10comparatorESaIS0_EE7_S_leftEPSt18_Rb_tree_node_base
FN:242,_ZNSt23_Rb_tree_const_iteratorI10CoordinateEC1EPKSt13_Rb_tree_nodeIS0_E
FN:632,_ZNKSt8_Rb_treeI10CoordinateS0_St9_IdentityIS0_ENS0_10comparatorESaIS0_EE5beginEv
FN:643,_ZNKSt8_Rb_treeI10CoordinateS0_St9_IdentityIS0_ENS0_10comparatorESaIS0_EE3endEv
FN:492,_ZNSt8_Rb_treeI10CoordinateS0_St9_IdentityIS0_ENS0_10comparatorESaIS0_EE6_M_endEv
FN:212,_ZNKSt17_Rb_tree_iteratorI10CoordinateEeqERKS1_
FN:170,_ZNSt17_Rb_tree_iteratorI10CoordinateEC1EPSt13_Rb_tree_nodeIS0_E
FN:639,_ZNSt8_Rb_treeI10CoordinateS0_St9_IdentityIS0_ENS0_10comparatorESaIS0_EE3endEv
FN:625,_ZNSt8_Rb_treeI10CoordinateS0_St9_IdentityIS0_ENS0_10comparatorESaIS0_EE5beginEv
FN:465,_ZNSt8_Rb_treeI10CoordinateS0_St9_IdentityIS0_ENS0_10comparatorESaIS0_EE11_M_leftmostEv
FN:457,_ZNSt8_Rb_treeI10CoordinateS0_St9_IdentityIS0_ENS0_10comparatorESaIS0_EE7_M_rootEv
FN:473,_ZNSt8_Rb_treeI10CoordinateS0_St9_IdentityIS0_ENS0_10comparatorESaIS0_EE12_M_rightmostEv
FN:444,_ZNSt8_Rb_treeI10CoordinateS0_St9_IdentityIS0_ENS0_10comparatorESaIS0_EE13_Rb_tree_implIS3_Lb1EE13_M_initializeEv
FN:524,_ZNSt8_Rb_treeI10CoordinateS0_St9_IdentityIS0_ENS0_10comparatorESaIS0_EE8_S_valueEPKSt18_Rb_tree_node_base
FN:528,_ZNSt8_Rb_treeI10CoordinateS0_St9_IdentityIS0_ENS0_10comparatorESaIS0_EE6_S_keyEPKSt18_Rb_tree_node_base
FN:500,_ZNSt8_Rb_treeI10CoordinateS0_St9_IdentityIS0_ENS0_10comparatorESaIS0_EE8_S_valueEPKSt13_Rb_tree_nodeIS0_E
FN:504,_ZNSt8_Rb_treeI10CoordinateS0_St9_IdentityIS0_ENS0_10comparatorESaIS0_EE6_S_keyEPKSt13_Rb_tree_nodeIS0_E
FN:981,_ZNSt8_Rb_treeI10CoordinateS0_St9_IdentityIS0_ENS0_10comparatorESaIS0_EE14_M_lower_boundEPSt13_Rb_tree_nodeIS0_ES8_RKS0_
FN:1418,_ZNSt8_Rb_treeI10CoordinateS0_St9_IdentityIS0_ENS0_10comparatorESaIS0_EE4findERKS0_
FN:349,_ZNKSt8_Rb_treeI10CoordinateS0_St9_IdentityIS0_ENS0_10comparatorESaIS0_EE21_M_get_Node_allocatorEv
FN:432,_ZNSt8_Rb_treeI10CoordinateS0_St9_IdentityIS0_ENS0_10comparatorESaIS0_EE13_Rb_tree_implIS3_Lb1EEC1Ev
FN:591,_ZNSt8_Rb_treeI10CoordinateS0_St9_IdentityIS0_ENS0_10comparatorESaIS0_EEC1Ev
FN:427,_ZNSt8_Rb_treeI10CoordinateS0_St9_IdentityIS0_ENS0_10comparatorESaIS0_EE13_Rb_tree_implIS3_Lb1EED1Ev
FN:353,_ZNKSt8_Rb_treeI10CoordinateS0_St9_IdentityIS0_ENS0_10comparatorESaIS0_EE13get_allocatorEv
FN:362,_ZNSt8_Rb_treeI10CoordinateS0_St9_IdentityIS0_ENS0_10comparatorESaIS0_EE11_M_put_nodeEPSt13_Rb_tree_nodeIS0_E
FN:381,_ZNSt8_Rb_treeI10CoordinateS0_St9_IdentityIS0_ENS0_10comparatorESaIS0_EE15_M_destroy_nodeEPSt13_Rb_tree_nodeIS0_E
FN:964,_ZNSt8_Rb_treeI10CoordinateS0_St9_IdentityIS0_ENS0_10comparatorESaIS0_EE8_M_eraseEPSt13_Rb_tree_nodeIS0_E
FN:724,_ZNSt8_Rb_treeI10CoordinateS0_St9_IdentityIS0_ENS0_10comparatorESaIS0_EE5clearEv
FN:613,_ZNSt8_Rb_treeI10CoordinateS0_St9_IdentityIS0_ENS0_10comparatorESaIS0_EED1Ev
FN:358,_ZNSt8_Rb_treeI10CoordinateS0_St9_IdentityIS0_ENS0_10comparatorESaIS0_EE11_M_get_nodeEv
FN:367,_ZNSt8_Rb_treeI10CoordinateS0_St9_IdentityIS0_ENS0_10comparatorESaIS0_EE14_M_create_nodeERKS0_
FN:197,_ZNSt17_Rb_tree_iteratorI10CoordinateEmmEv
FN:874,_ZNSt8_Rb_treeI10CoordinateS0_St9_IdentityIS0_ENS0_10comparatorESaIS0_EE10_M_insert_EPKSt18_Rb_tree_node_baseS8_RKS0_
FN:1161,_ZNSt8_Rb_treeI10CoordinateS0_St9_IdentityIS0_ENS0_10comparatorESaIS0_EE16_M_insert_uniqueERKS0_
FN:264,_ZNSt23_Rb_tree_const_iteratorI10CoordinateEppEi
FNDA:689,_ZNSt17_Rb_tree_iteratorI10CoordinateEC1EPSt13_Rb_tree_nodeIS0_E
FNDA:0,_ZNSt17_Rb_tree_iteratorI10CoordinateEmmEv
FNDA:72,_ZNKSt17_Rb_tree_iteratorI10CoordinateEeqERKS1_
FNDA:12,_ZNSt23_Rb_tree_const_iteratorI10CoordinateEC1Ev
FNDA:224,_ZNSt23_Rb_tree_const_iteratorI10CoordinateEC1EPKSt13_Rb_tree_nodeIS0_E
FNDA:314,_ZNSt23_Rb_tree_const_iteratorI10CoordinateEC1ERKSt17_Rb_tree_iteratorIS0_E
FNDA:167,_ZNKSt23_Rb_tree_const_iteratorI10CoordinateEdeEv
FNDA:146,_ZNSt23_Rb_tree_const_iteratorI10CoordinateEppEi
FNDA:20,_ZNKSt23_Rb_tree_const_iteratorI10CoordinateEeqERKS1_
FNDA:181,_ZNKSt23_Rb_tree_const_iteratorI10CoordinateEneERKS1_
FNDA:564,_ZNKSt8_Rb_treeI10CoordinateS0_St9_IdentityIS0_ENS0_10comparatorESaIS0_EE21_M_get_Node_allocatorEv
FNDA:564,_ZNKSt8_Rb_treeI10CoordinateS0_St9_IdentityIS0_ENS0_10comparatorESaIS0_EE13get_allocatorEv
FNDA:282,_ZNSt8_Rb_treeI10CoordinateS0_St9_IdentityIS0_ENS0_10comparatorESaIS0_EE11_M_get_nodeEv
FNDA:282,_ZNSt8_Rb_treeI10CoordinateS0_St9_IdentityIS0_ENS0_10comparatorESaIS0_EE11_M_put_nodeEPSt13_Rb_tree_nodeIS0_E
FNDA:282,_ZNSt8_Rb_treeI10CoordinateS0_St9_IdentityIS0_ENS0_10comparatorESaIS0_EE14_M_create_nodeERKS0_
FNDA:282,_ZNSt8_Rb_treeI10CoordinateS0_St9_IdentityIS0_ENS0_10comparatorESaIS0_EE15_M_destroy_nodeEPSt13_Rb_tree_nodeIS0_E
FNDA:42,_ZNSt8_Rb_treeI10CoordinateS0_St9_IdentityIS0_ENS0_10comparatorESaIS0_EE13_Rb_tree_implIS3_Lb1EED1Ev
FNDA:42,_ZNSt8_Rb_treeI10CoordinateS0_St9_IdentityIS0_ENS0_10comparatorESaIS0_EE13_Rb_tree_implIS3_Lb1EEC1Ev
FNDA:42,_ZNSt8_Rb_treeI10CoordinateS0_St9_IdentityIS0_ENS0_10comparatorESaIS0_EE13_Rb_tree_implIS3_Lb1EE13_M_initializeEv
FNDA:3,_ZNSt8_Rb_treeI10CoordinateS0_St9_IdentityIS0_ENS0_10comparatorESaIS0_EE7_M_rootEv
FNDA:3,_ZNSt8_Rb_treeI10CoordinateS0_St9_IdentityIS0_ENS0_10comparatorESaIS0_EE11_M_leftmostEv
FNDA:3,_ZNSt8_Rb_treeI10CoordinateS0_St9_IdentityIS0_ENS0_10comparatorESaIS0_EE12_M_rightmostEv
FNDA:359,_ZNSt8_Rb_treeI10CoordinateS0_St9_IdentityIS0_ENS0_10comparatorESaIS0_EE8_M_beginEv
FNDA:602,_ZNSt8_Rb_treeI10CoordinateS0_St9_IdentityIS0_ENS0_10comparatorESaIS0_EE6_M_endEv
FNDA:927,_ZNSt8_Rb_treeI10CoordinateS0_St9_IdentityIS0_ENS0_10comparatorESaIS0_EE8_S_valueEPKSt13_Rb_tree_nodeIS0_E
FNDA:927,_ZNSt8_Rb_treeI10CoordinateS0_St9_IdentityIS0_ENS0_10comparatorESaIS0_EE6_S_keyEPKSt13_Rb_tree_nodeIS0_E
FNDA:303,_ZNSt8_Rb_treeI10CoordinateS0_St9_IdentityIS0_ENS0_10comparatorESaIS0_EE7_S_leftEPSt18_Rb_tree_node_base
FNDA:1188,_ZNSt8_Rb_treeI10CoordinateS0_St9_IdentityIS0_ENS0_10comparatorESaIS0_EE8_S_rightEPSt18_Rb_tree_node_base
FNDA:495,_ZNSt8_Rb_treeI10CoordinateS0_St9_IdentityIS0_ENS0_10comparatorESaIS0_EE8_S_valueEPKSt18_Rb_tree_node_base
FNDA:495,_ZNSt8_Rb_treeI10CoordinateS0_St9_IdentityIS0_ENS0_10comparatorESaIS0_EE6_S_keyEPKSt18_Rb_tree_node_base
FNDA:42,_ZNSt8_Rb_treeI10CoordinateS0_St9_IdentityIS0_ENS0_10comparatorESaIS0_EEC1Ev
FNDA:42,_ZNSt8_Rb_treeI10CoordinateS0_St9_IdentityIS0_ENS0_10comparatorESaIS0_EED1Ev
FNDA:40,_ZNSt8_Rb_treeI10CoordinateS0_St9_IdentityIS0_ENS0_10comparatorESaIS0_EE5beginEv
FNDA:23,_ZNKSt8_Rb_treeI10CoordinateS0_St9_IdentityIS0_ENS0_10comparatorESaIS0_EE5beginEv
FNDA:53,_ZNSt8_Rb_treeI10CoordinateS0_St9_IdentityIS0_ENS0_10comparatorESaIS0_EE3endEv
FNDA:201,_ZNKSt8_Rb_treeI10CoordinateS0_St9_IdentityIS0_ENS0_10comparatorESaIS0_EE3endEv
FNDA:3,_ZNSt8_Rb_treeI10CoordinateS0_St9_IdentityIS0_ENS0_10comparatorESaIS0_EE5clearEv
FNDA:282,_ZNSt8_Rb_treeI10CoordinateS0_St9_IdentityIS0_ENS0_10comparatorESaIS0_EE10_M_insert_EPKSt18_Rb_tree_node_baseS8_RKS0_
FNDA:327,_ZNSt8_Rb_treeI10CoordinateS0_St9_IdentityIS0_ENS0_10comparatorESaIS0_EE8_M_eraseEPSt13_Rb_tree_nodeIS0_E
FNDA:32,_ZNSt8_Rb_treeI10CoordinateS0_St9_IdentityIS0_ENS0_10comparatorESaIS0_EE14_M_lower_boundEPSt13_Rb_tree_nodeIS0_ES8_RKS0_
FNDA:282,_ZNSt8_Rb_treeI10CoordinateS0_St9_IdentityIS0_ENS0_10comparatorESaIS0_EE16_M_insert_uniqueERKS0_
FNDA:32,_ZNSt8_Rb_treeI10CoordinateS0_St9_IdentityIS0_ENS0_10comparatorESaIS0_EE4findERKS0_
FNF:42
FNH:41
DA:170,689
DA:171,689
DA:197,0
DA:199,0
DA:200,0
DA:212,72
DA:213,72
DA:238,12
DA:239,12
DA:242,224
DA:243,224
DA:245,314
DA:246,314
DA:249,167
DA:250,167
DA:264,146
DA:266,146
DA:267,146
DA:287,20
DA:288,20
DA:291,181
DA:292,181
DA:349,564
DA:350,564
DA:353,564
DA:354,564
DA:358,282
DA:359,282
DA:362,282
DA:363,282
DA:367,282
DA:369,282
DA:371,282
DA:372,0
DA:374,0
DA:375,0
DA:377,282
DA:381,282
DA:383,282
DA:384,282
DA:385,282
DA:427,42
DA:432,42
DA:434,42
DA:435,42
DA:444,42
DA:446,42
DA:447,42
DA:448,42
DA:449,42
DA:450,42
DA:457,3
DA:458,3
DA:465,3
DA:466,3
DA:473,3
DA:474,3
DA:481,359
DA:482,359
DA:492,602
DA:493,602
DA:500,927
DA:501,927
DA:504,927
DA:505,927
DA:508,303
DA:509,303
DA:516,1188
DA:517,1188
DA:524,495
DA:525,495
DA:528,495
DA:529,495
DA:591,42
DA:613,42
DA:614,42
DA:625,40
DA:628,40
DA:632,23
DA:635,23
DA:639,53
DA:640,53
DA:643,201
DA:646,201
DA:724,3
DA:726,3
DA:727,3
DA:728,3
DA:729,3
DA:730,3
DA:731,3
DA:874,282
DA:879,282
DA:881,282
DA:883,282
DA:886,282
DA:887,282
DA:964,327
DA:968,936
DA:970,282
DA:971,282
DA:972,282
DA:973,282
DA:975,327
DA:981,32
DA:985,111
DA:986,47
DA:987,21
DA:989,26
DA:990,32
DA:1161,282
DA:1164,282
DA:1165,282
DA:1166,282
DA:1167,1444
DA:1169,880
DA:1170,880
DA:1171,880
DA:1173,282
DA:1174,282
DA:1176,40
DA:1177,40
DA:1179,0
DA:1181,242
DA:1182,242
DA:1183,0
DA:1418,32
DA:1421,32
DA:1424,32
BA:879,2
BA:879,1
BA:879,2
BA:879,2
BA:879,1
BA:879,2
BA:968,2
BA:968,2
BA:985,2
BA:985,2
BA:986,2
BA:986,2
BA:1167,2
BA:1167,2
BA:1171,1
BA:1171,2
BA:1174,2
BA:1174,2
BA:1176,2
BA:1176,1
BA:1181,2
BA:1181,1
BA:1424,2
BA:1424,2
BA:1424,1
BA:1424,2
LF:129
LH:121
end_of_record
SF:/usr/include/c++/4.4/bits/stl_uninitialized.h
FN:180,_ZNSt22__uninitialized_fill_nILb0EE20uninitialized_fill_nIP10CoordinatejS2_EEvT_T0_RKT1_
FN:218,_ZSt20uninitialized_fill_nIP10CoordinatejS0_EvT_T0_RKT1_
FN:316,_ZSt24__uninitialized_fill_n_aIP10CoordinatejS0_S0_EvT_T0_RKT1_RSaIT2_E
FNDA:0,_ZNSt22__uninitialized_fill_nILb0EE20uninitialized_fill_nIP10CoordinatejS2_EEvT_T0_RKT1_
FNDA:0,_ZSt20uninitialized_fill_nIP10CoordinatejS0_EvT_T0_RKT1_
FNDA:0,_ZSt24__uninitialized_fill_n_aIP10CoordinatejS0_S0_EvT_T0_RKT1_RSaIT2_E
FNF:3
FNH:0
DA:180,0
DA:183,0
DA:186,0
DA:187,0
DA:189,0
DA:191,0
DA:192,0
DA:194,0
DA:218,0
DA:223,0
DA:225,0
DA:316,0
DA:318,0
BA:186,0
BA:186,0
LF:13
LH:0
end_of_record
SF:/usr/include/c++/4.4/bits/stl_vector.h
FN:610,_ZNSt6vectorI10CoordinateSaIS0_EEixEj
FN:434,_ZNKSt6vectorI10CoordinateSaIS0_EE5beginEv
FN:452,_ZNKSt6vectorI10CoordinateSaIS0_EE3endEv
FN:93,_ZNSt12_Vector_baseI10CoordinateSaIS0_EE19_M_get_Tp_allocatorEv
FN:84,_ZNSt12_Vector_baseI10CoordinateSaIS0_EE12_Vector_implC1ERKS1_
FN:75,_ZNSt12_Vector_baseI10CoordinateSaIS0_EE12_Vector_implD1Ev
FN:143,_ZNSt12_Vector_baseI10CoordinateSaIS0_EE13_M_deallocateEPS0_j
FN:131,_ZNSt12_Vector_baseI10CoordinateSaIS0_EED2Ev
FN:312,_ZNSt6vectorI10CoordinateSaIS0_EED1Ev
FN:139,_ZNSt12_Vector_baseI10CoordinateSaIS0_EE11_M_allocateEj
FN:110,_ZNSt12_Vector_baseI10CoordinateSaIS0_EEC2EjRKS1_
FN:1033,_ZNSt6vectorI10CoordinateSaIS0_EE18_M_fill_initializeEjRKS0_
FN:227,_ZNSt6vectorI10CoordinateSaIS0_EEC1EjRKS0_RKS1_
FNDA:0,_ZNSt12_Vector_baseI10CoordinateSaIS0_EE12_Vector_implD1Ev
FNDA:0,_ZNSt12_Vector_baseI10CoordinateSaIS0_EE12_Vector_implC1ERKS1_
FNDA:0,_ZNSt12_Vector_baseI10CoordinateSaIS0_EE19_M_get_Tp_allocatorEv
FNDA:0,_ZNSt12_Vector_baseI10CoordinateSaIS0_EEC2EjRKS1_
FNDA:0,_ZNSt12_Vector_baseI10CoordinateSaIS0_EED2Ev
FNDA:0,_ZNSt12_Vector_baseI10CoordinateSaIS0_EE11_M_allocateEj
FNDA:0,_ZNSt12_Vector_baseI10CoordinateSaIS0_EE13_M_deallocateEPS0_j
FNDA:0,_ZNSt6vectorI10CoordinateSaIS0_EEC1EjRKS0_RKS1_
FNDA:0,_ZNSt6vectorI10CoordinateSaIS0_EED1Ev
FNDA:0,_ZNKSt6vectorI10CoordinateSaIS0_EE5beginEv
FNDA:0,_ZNKSt6vectorI10CoordinateSaIS0_EE3endEv
FNDA:0,_ZNSt6vectorI10CoordinateSaIS0_EEixEj
FNDA:0,_ZNSt6vectorI10CoordinateSaIS0_EE18_M_fill_initializeEjRKS0_
FNF:13
FNH:0
DA:75,0
DA:84,0
DA:85,0
DA:86,0
DA:93,0
DA:94,0
DA:110,0
DA:111,0
DA:113,0
DA:114,0
DA:115,0
DA:116,0
DA:131,0
DA:132,0
DA:133,0
DA:139,0
DA:140,0
DA:143,0
DA:145,0
DA:146,0
DA:147,0
DA:227,0
DA:229,0
DA:230,0
DA:312,0
DA:313,0
DA:314,0
DA:434,0
DA:435,0
DA:452,0
DA:453,0
DA:610,0
DA:611,0
DA:1033,0
DA:1035,0
DA:1037,0
DA:1038,0
BA:140,0
BA:140,0
BA:145,0
BA:145,0
LF:37
LH:0
end_of_record
SF:/usr/include/c++/4.4/ext/atomicity.h
FN:62,_ZN9__gnu_cxxL25__exchange_and_add_singleEPii
FN:45,_ZN9__gnu_cxxL18__exchange_and_addEPVii
FN:75,_ZN9__gnu_cxxL27__exchange_and_add_dispatchEPii
FNDA:0,_ZN9__gnu_cxxL18__exchange_and_addEPVii
FNDA:0,_ZN9__gnu_cxxL25__exchange_and_add_singleEPii
FNDA:0,_ZN9__gnu_cxxL27__exchange_and_add_dispatchEPii
FNF:3
FNH:0
DA:45,0
DA:46,0
DA:62,0
DA:64,0
DA:65,0
DA:66,0
DA:75,0
DA:78,0
DA:79,0
DA:81,0
BA:78,0
BA:78,0
LF:10
LH:0
end_of_record
SF:/usr/include/c++/4.4/ext/new_allocator.h
FN:66,_ZN9__gnu_cxx13new_allocatorIcEC2Ev
FN:73,_ZN9__gnu_cxx13new_allocatorIcED2Ev
FN:66,_ZN9__gnu_cxx13new_allocatorI10CoordinateEC2Ev
FN:73,_ZN9__gnu_cxx13new_allocatorI10CoordinateED2Ev
FN:73,_ZN9__gnu_cxx13new_allocatorISt13_Rb_tree_nodeI10CoordinateEED2Ev
FN:68,_ZN9__gnu_cxx13new_allocatorIcEC2ERKS1_
FN:115,_ZN9__gnu_cxx13new_allocatorI10CoordinateE7destroyEPS1_
FN:66,_ZN9__gnu_cxx13new_allocatorISt13_Rb_tree_nodeI10CoordinateEEC2Ev
FN:68,_ZN9__gnu_cxx13new_allocatorI10CoordinateEC2ERKS2_
FN:98,_ZNK9__gnu_cxx13new_allocatorI10CoordinateE8max_sizeEv
FN:98,_ZNK9__gnu_cxx13new_allocatorISt13_Rb_tree_nodeI10CoordinateEE8max_sizeEv
FN:104,_ZN9__gnu_cxx13new_allocatorI10CoordinateE9constructEPS1_RKS1_
FN:94,_ZN9__gnu_cxx13new_allocatorI10CoordinateE10deallocateEPS1_j
FN:94,_ZN9__gnu_cxx13new_allocatorISt13_Rb_tree_nodeI10CoordinateEE10deallocateEPS3_j
FN:84,_ZN9__gnu_cxx13new_allocatorI10CoordinateE8allocateEjPKv
FN:84,_ZN9__gnu_cxx13new_allocatorISt13_Rb_tree_nodeI10CoordinateEE8allocateEjPKv
FNDA:0,_ZN9__gnu_cxx13new_allocatorIcEC2Ev
FNDA:0,_ZN9__gnu_cxx13new_allocatorI10CoordinateEC2Ev
FNDA:42,_ZN9__gnu_cxx13new_allocatorISt13_Rb_tree_nodeI10CoordinateEEC2Ev
FNDA:0,_ZN9__gnu_cxx13new_allocatorIcEC2ERKS1_
FNDA:0,_ZN9__gnu_cxx13new_allocatorI10CoordinateEC2ERKS2_
FNDA:0,_ZN9__gnu_cxx13new_allocatorIcED2Ev
FNDA:0,_ZN9__gnu_cxx13new_allocatorI10CoordinateED2Ev
FNDA:42,_ZN9__gnu_cxx13new_allocatorISt13_Rb_tree_nodeI10CoordinateEED2Ev
FNDA:0,_ZN9__gnu_cxx13new_allocatorI10CoordinateE8allocateEjPKv
FNDA:282,_ZN9__gnu_cxx13new_allocatorISt13_Rb_tree_nodeI10CoordinateEE8allocateEjPKv
FNDA:0,_ZN9__gnu_cxx13new_allocatorI10CoordinateE10deallocateEPS1_j
FNDA:282,_ZN9__gnu_cxx13new_allocatorISt13_Rb_tree_nodeI10CoordinateEE10deallocateEPS3_j
FNDA:0,_ZNK9__gnu_cxx13new_allocatorI10CoordinateE8max_sizeEv
FNDA:282,_ZNK9__gnu_cxx13new_allocatorISt13_Rb_tree_nodeI10CoordinateEE8max_sizeEv
FNDA:282,_ZN9__gnu_cxx13new_allocatorI10CoordinateE9constructEPS1_RKS1_
FNDA:282,_ZN9__gnu_cxx13new_allocatorI10CoordinateE7destroyEPS1_
FNF:16
FNH:7
DA:66,42
DA:68,0
DA:73,42
DA:84,282
DA:86,282
DA:87,0
DA:89,282
DA:94,282
DA:95,282
DA:98,282
DA:99,282
DA:104,282
DA:105,282
DA:115,282
BA:86,0
BA:86,0
BA:86,1
BA:86,2
BA:105,2
BA:105,1
LF:14
LH:12
end_of_record
SF:/usr/include/c++/4.4/i486-linux-gnu/bits/gthr-default.h
FN:238,_ZL18__gthread_active_pv
FNDA:0,_ZL18__gthread_active_pv
FNF:1
FNH:0
DA:238,0
DA:242,0
LF:2
LH:0
end_of_record
SF:/usr/include/c++/4.4/iostream
DA:72,18
LF:1
LH:1
end_of_record
SF:/usr/include/c++/4.4/new
FN:101,_ZnwjPv
FN:105,_ZdlPvS_
FNDA:0,_ZnwjPv
FNDA:0,_ZdlPvS_
FNF:2
FNH:0
DA:101,0
DA:105,0
LF:2
LH:0
end_of_record
SF:/usr/include/c++/4.4/ostream
FN:108,_ZNSolsEPFRSoS_E
FN:505,_ZStlsISt11char_traitsIcEERSt13basic_ostreamIcT_ES5_PKc
FN:559,_ZSt5flushIcSt11char_traitsIcEERSt13basic_ostreamIT_T0_ES6_
FN:538,_ZSt4endlIcSt11char_traitsIcEERSt13basic_ostreamIT_T0_ES6_
FNDA:0,_ZNSolsEPFRSoS_E
FNDA:0,_ZStlsISt11char_traitsIcEERSt13basic_ostreamIcT_ES5_PKc
FNDA:0,_ZSt4endlIcSt11char_traitsIcEERSt13basic_ostreamIT_T0_ES6_
FNDA:0,_ZSt5flushIcSt11char_traitsIcEERSt13basic_ostreamIT_T0_ES6_
FNF:4
FNH:0
DA:108,0
DA:113,0
DA:505,0
DA:507,0
DA:508,0
DA:510,0
DA:512,0
DA:538,0
DA:539,0
DA:559,0
DA:560,0
BA:507,0
BA:507,0
LF:11
LH:0
end_of_record
SF:/home/frechilla/workspace/headless/blockem_sourceforge/src/board.h
FN:103,_ZNK5Board8GetNRowsEv
FN:109,_ZNK5Board11GetNColumnsEv
FN:55,_ZNK5Board12IsCoordEmptyERK10Coordinate
FN:91,_ZN5Board16SetPlayerInCoordERK10CoordinateRK6Player
FN:79,_ZNK5Board15IsPlayerInCoordERK10CoordinateRK6Player
FN:67,_ZN5Board10BlankCoordERK10Coordinate
FNDA:0,_ZNK5Board12IsCoordEmptyERK10Coordinate
FNDA:0,_ZN5Board10BlankCoordERK10Coordinate
FNDA:0,_ZNK5Board15IsPlayerInCoordERK10CoordinateRK6Player
FNDA:0,_ZN5Board16SetPlayerInCoordERK10CoordinateRK6Player
FNDA:0,_ZNK5Board8GetNRowsEv
FNDA:0,_ZNK5Board11GetNColumnsEv
FNF:6
FNH:0
DA:55,0
DA:58,0
DA:59,0
DA:60,0
DA:61,0
DA:63,0
DA:67,0
DA:70,0
DA:71,0
DA:72,0
DA:73,0
DA:75,0
DA:76,0
DA:79,0
DA:82,0
DA:83,0
DA:84,0
DA:85,0
DA:87,0
DA:91,0
DA:94,0
DA:95,0
DA:96,0
DA:97,0
DA:99,0
DA:100,0
DA:103,0
DA:105,0
DA:109,0
DA:111,0
BA:58,0
BA:58,0
BA:59,0
BA:59,0
BA:60,0
BA:60,0
BA:61,0
BA:61,0
BA:70,0
BA:70,0
BA:71,0
BA:71,0
BA:72,0
BA:72,0
BA:73,0
BA:73,0
BA:82,0
BA:82,0
BA:83,0
BA:83,0
BA:84,0
BA:84,0
BA:85,0
BA:85,0
BA:94,0
BA:94,0
BA:95,0
BA:95,0
BA:96,0
BA:96,0
BA:97,0
BA:97,0
LF:30
LH:0
end_of_record
SF:/home/frechilla/workspace/headless/blockem_sourceforge/src/coordinate.h
FN:49,_ZN10CoordinateC1Ev
FN:53,_ZN10CoordinateC1Eii
FN:75,_ZNK10Coordinate10comparatorclERKS_S2_
FN:47,_ZN10CoordinateaSERKS_
FN:47,_ZN10CoordinateC1ERKS_
FN:57,_ZN10CoordinateD0Ev
FN:57,_ZN10CoordinateD1Ev
FNDA:0,_ZN10CoordinateaSERKS_
FNDA:0,_ZN10CoordinateC1ERKS_
FNDA:0,_ZN10CoordinateC1Ev
FNDA:0,_ZN10CoordinateC1Eii
FNDA:0,_ZN10CoordinateD0Ev
FNDA:0,_ZN10CoordinateD1Ev
FNDA:1422,_ZNK10Coordinate10comparatorclERKS_S2_
FNF:7
FNH:1
DA:47,0
DA:49,0
DA:51,0
DA:52,0
DA:53,0
DA:55,0
DA:56,0
DA:57,0
DA:58,0
DA:75,1422
DA:77,1422
DA:80,268
DA:83,1154
BA:58,0
BA:58,0
BA:58,0
BA:58,0
BA:77,2
BA:77,2
BA:77,2
BA:77,2
BA:77,2
BA:77,2
LF:13
LH:4
end_of_record
SF:/home/frechilla/workspace/headless/blockem_sourceforge/src/game_total_allocation.cpp
FN:310,_Z41__static_initialization_and_destruction_0ii
FN:310,_GLOBAL__I__ZN19GameTotalAllocationC2Eii
FN:86,_ZN19GameTotalAllocation12PutDownPieceERK10CoordinateRKSt6vectorIS0_SaIS0_EEi
FN:51,_ZN19GameTotalAllocation11RemovePieceERK10CoordinateRKSt6vectorIS0_SaIS0_EEi
FN:187,_ZN19GameTotalAllocation17AllocateAllPiecesEP12ePieceType_tPPSt3setI10CoordinateNS3_10comparatorESaIS3_EE
FN:121,_ZN19GameTotalAllocation5SolveERK10Coordinate
FN:47,_ZN19GameTotalAllocationD0Ev
FN:47,_ZN19GameTotalAllocationD1Ev
FN:47,_ZN19GameTotalAllocationD2Ev
FN:41,_ZN19GameTotalAllocationC1Eii
FN:41,_ZN19GameTotalAllocationC2Eii
FNDA:1,_ZN19GameTotalAllocationC1Eii
FNDA:0,_ZN19GameTotalAllocationC2Eii
FNDA:0,_ZN19GameTotalAllocationD0Ev
FNDA:1,_ZN19GameTotalAllocationD1Ev
FNDA:0,_ZN19GameTotalAllocationD2Ev
FNDA:0,_ZN19GameTotalAllocation11RemovePieceERK10CoordinateRKSt6vectorIS0_SaIS0_EEi
FNDA:21,_ZN19GameTotalAllocation12PutDownPieceERK10CoordinateRKSt6vectorIS0_SaIS0_EEi
FNDA:1,_ZN19GameTotalAllocation5SolveERK10Coordinate
FNDA:21,_ZN19GameTotalAllocation17AllocateAllPiecesEP12ePieceType_tPPSt3setI10CoordinateNS3_10comparatorESaIS3_EE
FNDA:18,_Z41__static_initialization_and_destruction_0ii
FNDA:18,_GLOBAL__I__ZN19GameTotalAllocationC2Eii
FNF:11
FNH:7
DA:41,1
DA:43,1
DA:45,1
DA:47,1
DA:49,1
DA:51,0
DA:57,0
DA:58,0
DA:60,0
DA:61,0
DA:64,0
DA:69,0
DA:72,0
DA:74,0
DA:76,0
DA:79,0
DA:83,0
DA:84,0
DA:86,21
DA:92,21
DA:93,21
DA:95,21
DA:96,21
DA:99,110
DA:104,89
DA:107,89
DA:109,89
DA:111,89
DA:114,89
DA:118,21
DA:119,21
DA:121,1
DA:123,1
DA:130,22
DA:132,21
DA:133,21
DA:137,1
DA:139,1
DA:141,1
DA:143,1
DA:146,1
DA:147,1
DA:149,1
DA:158,1
DA:159,1
DA:161,1
DA:163,0
DA:164,0
DA:167,1
DA:169,1
DA:171,1
DA:173,1
DA:176,0
DA:180,0
DA:184,0
DA:187,21
DA:193,21
DA:195,21
DA:197,1
DA:202,20
DA:203,20
DA:208,20
DA:210,20
DA:212,230
DA:214,209
DA:217,21
DA:219,21
DA:222,21
DA:223,21
DA:225,24
DA:229,23
DA:230,192
DA:239,1885
DA:248,1730
DA:250,12
DA:251,12
DA:252,12
DA:254,11
DA:255,11
DA:260,166
DA:263,11
DA:272,155
DA:273,155
DA:275,155
DA:278,20
DA:279,20
DA:281,20
DA:283,20
DA:287,20
DA:288,20
DA:290,20
DA:292,20
DA:295,0
DA:299,135
DA:302,3
DA:305,1
DA:309,0
DA:310,54
BA:49,0
BA:49,0
BA:49,1
BA:49,2
BA:49,0
BA:49,0
BA:57,0
BA:57,0
BA:58,0
BA:58,0
BA:60,0
BA:60,0
BA:61,0
BA:61,0
BA:64,0
BA:64,0
BA:72,0
BA:72,0
BA:72,0
BA:72,0
BA:74,0
BA:74,0
BA:74,0
BA:74,0
BA:76,0
BA:76,0
BA:92,1
BA:92,2
BA:93,1
BA:93,2
BA:95,1
BA:95,2
BA:96,1
BA:96,2
BA:99,2
BA:99,2
BA:107,2
BA:107,1
BA:107,1
BA:107,2
BA:109,2
BA:109,1
BA:109,1
BA:109,2
BA:111,2
BA:111,1
BA:130,2
BA:130,2
BA:139,2
BA:139,1
BA:139,2
BA:139,1
BA:149,2
BA:149,1
BA:161,1
BA:161,2
BA:167,2
BA:167,1
BA:171,2
BA:171,1
BA:195,2
BA:195,2
BA:210,2
BA:210,2
BA:210,2
BA:210,1
BA:212,2
BA:212,2
BA:225,2
BA:225,2
BA:230,2
BA:230,2
BA:239,2
BA:239,2
BA:248,2
BA:248,2
BA:252,2
BA:252,2
BA:260,2
BA:260,2
BA:275,2
BA:275,2
BA:279,2
BA:279,1
BA:290,2
BA:290,1
BA:310,2
BA:310,1
BA:310,2
BA:310,1
LF:98
LH:78
end_of_record
SF:/home/frechilla/workspace/headless/blockem_sourceforge/src/piece.h
FN:152,_ZNK5Piece7GetTypeEv
FN:167,_ZNK5Piece9GetRadiusEv
FN:173,_ZNK5Piece21GetPrecalculatedConfsEv
FNDA:0,_ZNK5Piece7GetTypeEv
FNDA:0,_ZNK5Piece9GetRadiusEv
FNDA:0,_ZNK5Piece21GetPrecalculatedConfsEv
FNF:3
FNH:0
DA:152,0
DA:154,0
DA:167,0
DA:169,0
DA:173,0
DA:175,0
LF:6
LH:0
end_of_record
SF:/home/frechilla/workspace/headless/blockem_sourceforge/src/player.h
FN:80,_ZNK6Player16PresentationCharEv
FN:103,_ZN6Player21SetStartingCoordinateERK10Coordinate
FN:109,_ZNK6Player23NumberOfPiecesAvailableEv
FN:142,_ZNK6Player16IsPieceAvailableE12ePieceType_t
FN:120,_ZN6Player10UnsetPieceE12ePieceType_t
FN:131,_ZN6Player8SetPieceE12ePieceType_t
FNDA:0,_ZNK6Player16PresentationCharEv
FNDA:7,_ZN6Player21SetStartingCoordinateERK10Coordinate
FNDA:0,_ZNK6Player23NumberOfPiecesAvailableEv
FNDA:0,_ZN6Player10UnsetPieceE12ePieceType_t
FNDA:0,_ZN6Player8SetPieceE12ePieceType_t
FNDA:0,_ZNK6Player16IsPieceAvailableE12ePieceType_t
FNF:6
FNH:1
DA:80,0
DA:82,0
DA:103,7
DA:105,7
DA:106,7
DA:109,0
DA:111,0
DA:120,0
DA:123,0
DA:124,0
DA:126,0
DA:127,0
DA:128,0
DA:131,0
DA:134,0
DA:135,0
DA:137,0
DA:138,0
DA:139,0
DA:142,0
DA:145,0
DA:147,0
BA:123,0
BA:123,0
BA:123,0
BA:123,0
BA:124,0
BA:124,0
BA:134,0
BA:134,0
BA:134,0
BA:134,0
BA:135,0
BA:135,0
BA:145,0
BA:145,0
BA:145,0
BA:145,0
LF:22
LH:3
end_of_record
TN:
SF:/usr/include/c++/4.4/bits/basic_ios.h
FN:127,_ZNKSt9basic_iosIcSt11char_traitsIcEE7rdstateEv
FN:46,_ZSt13__check_facetISt5ctypeIcEERKT_PS3_
FN:439,_ZNKSt9basic_iosIcSt11char_traitsIcEE5widenEc
FN:360,_ZNKSt9basic_iosIcSt11char_traitsIcEE4fillEv
FN:380,_ZNSt9basic_iosIcSt11char_traitsIcEE4fillEc
FN:147,_ZNSt9basic_iosIcSt11char_traitsIcEE8setstateESt12_Ios_Iostate
FNDA:0,_ZSt13__check_facetISt5ctypeIcEERKT_PS3_
FNDA:0,_ZNKSt9basic_iosIcSt11char_traitsIcEE7rdstateEv
FNDA:0,_ZNSt9basic_iosIcSt11char_traitsIcEE8setstateESt12_Ios_Iostate
FNDA:0,_ZNKSt9basic_iosIcSt11char_traitsIcEE4fillEv
FNDA:0,_ZNSt9basic_iosIcSt11char_traitsIcEE4fillEc
FNDA:0,_ZNKSt9basic_iosIcSt11char_traitsIcEE5widenEc
FNF:6
FNH:0
DA:46,0
DA:48,0
DA:49,0
DA:50,0
DA:127,0
DA:128,0
DA:147,0
DA:148,0
DA:360,0
DA:362,0
DA:364,0
DA:365,0
DA:367,0
DA:380,0
DA:382,0
DA:383,0
DA:384,0
DA:439,0
DA:440,0
BA:48,0
BA:48,0
BA:362,0
BA:362,0
LF:19
LH:0
end_of_record
SF:/usr/include/c++/4.4/bits/char_traits.h
FN:262,_ZNSt11char_traitsIcE6lengthEPKc
FNDA:0,_ZNSt11char_traitsIcE6lengthEPKc
FNF:1
FNH:0
DA:262,0
DA:263,0
LF:2
LH:0
end_of_record
SF:/usr/include/c++/4.4/bits/ios_base.h
FN:166,_ZStorSt12_Ios_IostateS_
FN:657,_ZNSt8ios_base5widthEi
FNDA:0,_ZStorSt12_Ios_IostateS_
FNDA:0,_ZNSt8ios_base5widthEi
FNF:2
FNH:0
DA:166,0
DA:167,0
DA:657,0
DA:659,0
DA:660,0
DA:661,0
LF:6
LH:0
end_of_record
SF:/usr/include/c++/4.4/bits/locale_facets.h
FN:865,_ZNKSt5ctypeIcE5widenEc
FNDA:0,_ZNKSt5ctypeIcE5widenEc
FNF:1
FNH:0
DA:865,0
DA:867,0
DA:868,0
DA:869,0
DA:870,0
BA:867,0
BA:867,0
LF:5
LH:0
end_of_record
SF:/usr/include/c++/4.4/iomanip
FN:238,_ZSt4setwi
FN:170,_ZSt7setfillIcESt8_SetfillIT_ES1_
FN:255,_ZStlsIcSt11char_traitsIcEERSt13basic_ostreamIT_T0_ES6_St5_Setw
FN:187,_ZStlsIcSt11char_traitsIcEERSt13basic_ostreamIT_T0_ES6_St8_SetfillIS3_E
FNDA:840,_ZSt7setfillIcESt8_SetfillIT_ES1_
FNDA:0,_ZStlsIcSt11char_traitsIcEERSt13basic_ostreamIT_T0_ES6_St8_SetfillIS3_E
FNDA:840,_ZSt4setwi
FNDA:0,_ZStlsIcSt11char_traitsIcEERSt13basic_ostreamIT_T0_ES6_St5_Setw
FNF:4
FNH:2
DA:170,840
DA:173,840
DA:187,0
DA:189,0
DA:190,0
DA:238,840
DA:241,840
DA:255,0
DA:257,0
DA:258,0
LF:10
LH:4
end_of_record
SF:/usr/include/c++/4.4/iostream
DA:72,18
LF:1
LH:1
end_of_record
SF:/usr/include/c++/4.4/ostream
FN:108,_ZNSolsEPFRSoS_E
FN:457,_ZStlsISt11char_traitsIcEERSt13basic_ostreamIcT_ES5_c
FN:505,_ZStlsISt11char_traitsIcEERSt13basic_ostreamIcT_ES5_PKc
FN:559,_ZSt5flushIcSt11char_traitsIcEERSt13basic_ostreamIT_T0_ES6_
FN:538,_ZSt4endlIcSt11char_traitsIcEERSt13basic_ostreamIT_T0_ES6_
FNDA:0,_ZNSolsEPFRSoS_E
FNDA:0,_ZStlsISt11char_traitsIcEERSt13basic_ostreamIcT_ES5_c
FNDA:0,_ZStlsISt11char_traitsIcEERSt13basic_ostreamIcT_ES5_PKc
FNDA:0,_ZSt4endlIcSt11char_traitsIcEERSt13basic_ostreamIT_T0_ES6_
FNDA:0,_ZSt5flushIcSt11char_traitsIcEERSt13basic_ostreamIT_T0_ES6_
FNF:5
FNH:0
DA:108,0
DA:113,0
DA:457,0
DA:458,0
DA:505,0
DA:507,0
DA:508,0
DA:510,0
DA:512,0
DA:538,0
DA:539,0
DA:559,0
DA:560,0
BA:507,0
BA:507,0
LF:13
LH:0
end_of_record
SF:/home/frechilla/workspace/headless/blockem_sourceforge/src/board.cpp
FN:114,_ZN5Board14CopyFromObjectERKS_
FN:164,_ZN5Board5ResetEv
FN:173,_Z41__static_initialization_and_destruction_0ii
FN:173,_GLOBAL__I__ZN5BoardC2EiicPPc
FN:130,_ZNK5Board10PrintBoardERSo
FN:82,_ZN5BoardaSERKS_
FN:70,_ZN5BoardC1ERKS_
FN:70,_ZN5BoardC2ERKS_
FN:34,_ZN5BoardC1EiicPPc
FN:34,_ZN5BoardC2EiicPPc
FN:59,_ZN5BoardD0Ev
FN:59,_ZN5BoardD1Ev
FN:59,_ZN5BoardD2Ev
FNDA:19,_ZN5BoardC1EiicPPc
FNDA:0,_ZN5BoardC2EiicPPc
FNDA:0,_ZN5BoardD0Ev
FNDA:20,_ZN5BoardD1Ev
FNDA:0,_ZN5BoardD2Ev
FNDA:1,_ZN5BoardC1ERKS_
FNDA:0,_ZN5BoardC2ERKS_
FNDA:1,_ZN5BoardaSERKS_
FNDA:2,_ZN5Board14CopyFromObjectERKS_
FNDA:30,_ZNK5Board10PrintBoardERSo
FNDA:3,_ZN5Board5ResetEv
FNDA:18,_Z41__static_initialization_and_destruction_0ii
FNDA:18,_GLOBAL__I__ZN5BoardC2EiicPPc
FNF:13
FNH:9
DA:34,19
DA:37,19
DA:40,19
DA:41,268
DA:43,249
DA:44,3642
DA:46,3393
DA:49,0
DA:53,3393
DA:57,19
DA:59,20
DA:62,273
DA:64,253
DA:67,20
DA:68,20
DA:70,1
DA:73,1
DA:74,6
DA:76,5
DA:79,1
DA:80,1
DA:82,1
DA:84,1
DA:88,1
DA:92,7
DA:94,6
DA:96,1
DA:100,1
DA:101,6
DA:103,5
DA:108,1
DA:111,1
DA:114,2
DA:116,2
DA:117,2
DA:118,2
DA:121,12
DA:123,60
DA:125,50
DA:128,2
DA:130,30
DA:132,30
DA:133,450
DA:135,420
DA:137,30
DA:139,450
DA:141,420
DA:142,6300
DA:144,5880
DA:146,420
DA:148,420
DA:149,6300
DA:151,5880
DA:153,420
DA:156,30
DA:157,450
DA:159,420
DA:161,30
DA:162,30
DA:164,3
DA:166,45
DA:168,630
DA:170,588
DA:173,57
BA:41,2
BA:41,2
BA:41,0
BA:41,0
BA:44,2
BA:44,2
BA:44,0
BA:44,0
BA:46,1
BA:46,2
BA:46,0
BA:46,0
BA:62,0
BA:62,0
BA:62,2
BA:62,2
BA:62,0
BA:62,0
BA:64,0
BA:64,0
BA:64,2
BA:64,1
BA:64,0
BA:64,0
BA:67,0
BA:67,0
BA:67,2
BA:67,1
BA:67,0
BA:67,0
BA:68,0
BA:68,0
BA:68,1
BA:68,2
BA:68,0
BA:68,0
BA:74,2
BA:74,2
BA:74,0
BA:74,0
BA:84,2
BA:84,1
BA:88,1
BA:88,2
BA:88,0
BA:88,0
BA:92,2
BA:92,2
BA:94,2
BA:94,1
BA:96,2
BA:96,1
BA:101,2
BA:101,2
BA:121,2
BA:121,2
BA:123,2
BA:123,2
BA:133,2
BA:133,2
BA:139,2
BA:139,2
BA:142,2
BA:142,2
BA:149,2
BA:149,2
BA:157,2
BA:157,2
BA:166,2
BA:166,2
BA:168,2
BA:168,2
BA:173,2
BA:173,1
BA:173,2
BA:173,1
LF:64
LH:63
end_of_record
TN:
SF:/home/frechilla/workspace/headless/blockem_sourceforge/src/coordinate.h
FN:53,_ZN10CoordinateC1Eii
FN:47,_ZN10CoordinateaSERKS_
FN:47,_ZN10CoordinateC1ERKS_
FN:57,_ZN10CoordinateD0Ev
FN:57,_ZN10CoordinateD1Ev
FNDA:0,_ZN10CoordinateaSERKS_
FNDA:0,_ZN10CoordinateC1ERKS_
FNDA:0,_ZN10CoordinateC1Eii
FNDA:0,_ZN10CoordinateD0Ev
FNDA:0,_ZN10CoordinateD1Ev
FNF:5
FNH:0
DA:47,0
DA:53,0
DA:55,0
DA:56,0
DA:57,0
DA:58,0
BA:58,0
BA:58,0
BA:58,0
BA:58,0
LF:6
LH:0
end_of_record
SF:/home/frechilla/workspace/headless/blockem_sourceforge/src/game1v1.h
DA:53,17
DA:56,17
LF:2
LH:2
end_of_record
SF:/home/frechilla/workspace/headless/blockem_sourceforge/src/gui_game1v1_config.cpp
FN:69,_ZNK13Game1v1Config23GetHeuristicTypePlayer1Ev
FN:74,_ZNK13Game1v1Config23GetHeuristicTypePlayer2Ev
FN:79,_ZNK13Game1v1Config17IsPlayer1ComputerEv
FN:84,_ZNK13Game1v1Config17IsPlayer2ComputerEv
FN:89,_ZNK13Game1v1Config22GetMinimaxDepthPlayer1Ev
FN:94,_ZNK13Game1v1Config22GetMinimaxDepthPlayer2Ev
FN:99,_ZNK13Game1v1Config16GetPlayer1ColourERhS0_S0_
FN:106,_ZNK13Game1v1Config16GetPlayer2ColourERhS0_S0_
FN:113,_ZNK13Game1v1Config23GetPlayer1StartingCoordEv
FN:118,_ZNK13Game1v1Config23GetPlayer2StartingCoordEv
FN:143,_ZN13Game1v1Config14SetPlayer1TypeENS_13ePlayerType_tE
FN:148,_ZN13Game1v1Config14SetPlayer2TypeENS_13ePlayerType_tE
FN:153,_ZN13Game1v1Config22SetMinimaxDepthPlayer1Ei
FN:165,_ZN13Game1v1Config22SetMinimaxDepthPlayer2Ei
FN:177,_ZN13Game1v1Config23SetPlayer1StartingCoordERK10Coordinate
FN:182,_ZN13Game1v1Config23SetPlayer2StartingCoordERK10Coordinate
FN:185,_Z41__static_initialization_and_destruction_0ii
FN:185,_GLOBAL__I__ZN13Game1v1ConfigC2Ev
FN:133,_ZN13Game1v1Config23SetHeuristicTypePlayer2EN9Heuristic16eHeuristicType_tE
FN:123,_ZN13Game1v1Config23SetHeuristicTypePlayer1EN9Heuristic16eHeuristicType_tE
FN:65,_ZN13Game1v1ConfigD0Ev
FN:65,_ZN13Game1v1ConfigD1Ev
FN:65,_ZN13Game1v1ConfigD2Ev
FN:46,_ZN13Game1v1ConfigC1Ev
FN:46,_ZN13Game1v1ConfigC2Ev
FNDA:0,_ZN13Game1v1ConfigC1Ev
FNDA:0,_ZN13Game1v1ConfigC2Ev
FNDA:0,_ZN13Game1v1ConfigD0Ev
FNDA:0,_ZN13Game1v1ConfigD1Ev
FNDA:0,_ZN13Game1v1ConfigD2Ev
FNDA:0,_ZNK13Game1v1Config23GetHeuristicTypePlayer1Ev
FNDA:0,_ZNK13Game1v1Config23GetHeuristicTypePlayer2Ev
FNDA:0,_ZNK13Game1v1Config17IsPlayer1ComputerEv
FNDA:0,_ZNK13Game1v1Config17IsPlayer2ComputerEv
FNDA:0,_ZNK13Game1v1Config22GetMinimaxDepthPlayer1Ev
FNDA:0,_ZNK13Game1v1Config22GetMinimaxDepthPlayer2Ev
FNDA:0,_ZNK13Game1v1Config16GetPlayer1ColourERhS0_S0_
FNDA:0,_ZNK13Game1v1Config16GetPlayer2ColourERhS0_S0_
FNDA:0,_ZNK13Game1v1Config23GetPlayer1StartingCoordEv
FNDA:0,_ZNK13Game1v1Config23GetPlayer2StartingCoordEv
FNDA:0,_ZN13Game1v1Config23SetHeuristicTypePlayer1EN9Heuristic16eHeuristicType_tE
FNDA:0,_ZN13Game1v1Config23SetHeuristicTypePlayer2EN9Heuristic16eHeuristicType_tE
FNDA:0,_ZN13Game1v1Config14SetPlayer1TypeENS_13ePlayerType_tE
FNDA:0,_ZN13Game1v1Config14SetPlayer2TypeENS_13ePlayerType_tE
FNDA:0,_ZN13Game1v1Config22SetMinimaxDepthPlayer1Ei
FNDA:0,_ZN13Game1v1Config22SetMinimaxDepthPlayer2Ei
FNDA:0,_ZN13Game1v1Config23SetPlayer1StartingCoordERK10Coordinate
FNDA:0,_ZN13Game1v1Config23SetPlayer2StartingCoordERK10Coordinate
FNDA:17,_Z41__static_initialization_and_destruction_0ii
FNDA:17,_GLOBAL__I__ZN13Game1v1ConfigC2Ev
FNF:25
FNH:2
DA:43,17
DA:44,17
DA:46,0
DA:61,0
DA:63,0
DA:65,0
DA:67,0
DA:69,0
DA:71,0
DA:74,0
DA:76,0
DA:79,0
DA:81,0
DA:84,0
DA:86,0
DA:89,0
DA:91,0
DA:94,0
DA:96,0
DA:99,0
DA:101,0
DA:102,0
DA:103,0
DA:104,0
DA:106,0
DA:108,0
DA:109,0
DA:110,0
DA:111,0
DA:113,0
DA:115,0
DA:118,0
DA:120,0
DA:123,0
DA:126,0
DA:127,0
DA:130,0
DA:131,0
DA:133,0
DA:136,0
DA:137,0
DA:140,0
DA:141,0
DA:143,0
DA:145,0
DA:146,0
DA:148,0
DA:150,0
DA:151,0
DA:153,0
DA:155,0
DA:157,0
DA:161,0
DA:163,0
DA:165,0
DA:167,0
DA:169,0
DA:173,0
DA:175,0
DA:177,0
DA:179,0
DA:180,0
DA:182,0
DA:184,0
DA:185,51
BA:67,0
BA:67,0
BA:67,0
BA:67,0
BA:67,0
BA:67,0
BA:126,0
BA:126,0
BA:127,0
BA:127,0
BA:136,0
BA:136,0
BA:137,0
BA:137,0
BA:155,0
BA:155,0
BA:167,0
BA:167,0
BA:185,2
BA:185,1
BA:185,2
BA:185,1
LF:65
LH:3
end_of_record
SF:/home/frechilla/workspace/headless/blockem_sourceforge/src/singleton.h
FN:62,_ZN9SingletonI13Game1v1ConfigEC2Ev
FN:63,_ZN9SingletonI13Game1v1ConfigED2Ev
FN:63,_ZN9SingletonI13Game1v1ConfigED0Ev
FN:63,_ZN9SingletonI13Game1v1ConfigED1Ev
FNDA:0,_ZN9SingletonI13Game1v1ConfigEC2Ev
FNDA:0,_ZN9SingletonI13Game1v1ConfigED2Ev
FNDA:0,_ZN9SingletonI13Game1v1ConfigED0Ev
FNDA:0,_ZN9SingletonI13Game1v1ConfigED1Ev
FNF:4
FNH:0
DA:62,0
DA:63,0
BA:63,0
BA:63,0
BA:63,0
BA:63,0
BA:63,0
BA:63,0
LF:2
LH:0
end_of_record
TN:
SF:/usr/include/c++/4.4/bits/allocator.h
FN:101,_ZNSaIcEC1Ev
FN:109,_ZNSaIcED1Ev
FN:103,_ZNSaIcEC1ERKS_
FN:109,_ZNSaIcED2Ev
FNDA:0,_ZNSaIcEC1Ev
FNDA:0,_ZNSaIcEC1ERKS_
FNDA:0,_ZNSaIcED1Ev
FNDA:0,_ZNSaIcED2Ev
FNF:4
FNH:0
DA:101,0
DA:103,0
DA:104,0
DA:109,0
LF:4
LH:0
end_of_record
SF:/usr/include/c++/4.4/bits/basic_string.h
FN:272,_ZNKSs7_M_dataEv
FN:280,_ZNKSs6_M_repEv
FN:1615,_ZNKSs5c_strEv
FN:173,_ZNSs4_Rep12_S_empty_repEv
FN:1632,_ZNKSs13get_allocatorEv
FN:253,_ZNSs12_Alloc_hiderD1Ev
FN:224,_ZNSs4_Rep10_M_disposeERKSaIcE
FN:497,_ZNSsD1Ev
FN:2164,_ZStplIcSt11char_traitsIcESaIcEESbIT_T0_T1_ERKS6_S8_
FNDA:0,_ZNSs4_Rep12_S_empty_repEv
FNDA:0,_ZNSs4_Rep10_M_disposeERKSaIcE
FNDA:0,_ZNSs12_Alloc_hiderD1Ev
FNDA:0,_ZNKSs7_M_dataEv
FNDA:0,_ZNKSs6_M_repEv
FNDA:0,_ZNSsD1Ev
FNDA:0,_ZNKSs5c_strEv
FNDA:0,_ZNKSs13get_allocatorEv
FNDA:0,_ZStplIcSt11char_traitsIcESaIcEESbIT_T0_T1_ERKS6_S8_
FNF:9
FNH:0
DA:173,0
DA:178,0
DA:179,0
DA:224,0
DA:227,0
DA:229,0
DA:231,0
DA:232,0
DA:253,0
DA:272,0
DA:273,0
DA:280,0
DA:281,0
DA:497,0
DA:498,0
DA:1615,0
DA:1616,0
DA:1632,0
DA:1633,0
DA:2164,0
DA:2167,0
DA:2168,0
DA:2169,0
BA:227,0
BA:227,0
BA:229,0
BA:229,0
LF:23
LH:0
end_of_record
SF:/usr/include/c++/4.4/ext/atomicity.h
FN:62,_ZN9__gnu_cxxL25__exchange_and_add_singleEPii
FN:45,_ZN9__gnu_cxxL18__exchange_and_addEPVii
FN:75,_ZN9__gnu_cxxL27__exchange_and_add_dispatchEPii
FNDA:0,_ZN9__gnu_cxxL18__exchange_and_addEPVii
FNDA:0,_ZN9__gnu_cxxL25__exchange_and_add_singleEPii
FNDA:0,_ZN9__gnu_cxxL27__exchange_and_add_dispatchEPii
FNF:3
FNH:0
DA:45,0
DA:46,0
DA:62,0
DA:64,0
DA:65,0
DA:66,0
DA:75,0
DA:78,0
DA:79,0
DA:81,0
BA:78,0
BA:78,0
LF:10
LH:0
end_of_record
SF:/usr/include/c++/4.4/ext/new_allocator.h
FN:66,_ZN9__gnu_cxx13new_allocatorIcEC2Ev
FN:73,_ZN9__gnu_cxx13new_allocatorIcED2Ev
FN:68,_ZN9__gnu_cxx13new_allocatorIcEC2ERKS1_
FNDA:0,_ZN9__gnu_cxx13new_allocatorIcEC2Ev
FNDA:0,_ZN9__gnu_cxx13new_allocatorIcEC2ERKS1_
FNDA:0,_ZN9__gnu_cxx13new_allocatorIcED2Ev
FNF:3
FNH:0
DA:66,0
DA:68,0
DA:73,0
LF:3
LH:0
end_of_record
SF:/usr/include/c++/4.4/i486-linux-gnu/bits/gthr-default.h
FN:238,_ZL18__gthread_active_pv
FNDA:0,_ZL18__gthread_active_pv
FNF:1
FNH:0
DA:238,0
DA:242,0
LF:2
LH:0
end_of_record
SF:/usr/include/glibmm-2.4/glibmm/refptr.h
FN:194,_ZN4Glib6RefPtrIN3Gtk7BuilderEEC1ERKS3_
FN:181,_ZN4Glib6RefPtrIN3Gtk7BuilderEED1Ev
FN:175,_ZN4Glib6RefPtrIN3Gtk10TextBufferEEC1Ev
FN:181,_ZN4Glib6RefPtrIN3Gtk10TextBufferEED1Ev
FN:169,_ZNK4Glib6RefPtrIN3Gtk7BuilderEEptEv
FN:169,_ZNK4Glib6RefPtrIN3Gtk10TextBufferEEptEv
FN:194,_ZN4Glib6RefPtrIN3Gtk10TextBufferEEC1ERKS3_
FN:220,_ZN4Glib6RefPtrIN3Gtk10TextBufferEE4swapERS3_
FN:228,_ZN4Glib6RefPtrIN3Gtk10TextBufferEEaSERKS3_
FNDA:0,_ZNK4Glib6RefPtrIN3Gtk7BuilderEEptEv
FNDA:0,_ZNK4Glib6RefPtrIN3Gtk10TextBufferEEptEv
FNDA:0,_ZN4Glib6RefPtrIN3Gtk10TextBufferEEC1Ev
FNDA:0,_ZN4Glib6RefPtrIN3Gtk7BuilderEED1Ev
FNDA:0,_ZN4Glib6RefPtrIN3Gtk10TextBufferEED1Ev
FNDA:0,_ZN4Glib6RefPtrIN3Gtk7BuilderEEC1ERKS3_
FNDA:0,_ZN4Glib6RefPtrIN3Gtk10TextBufferEEC1ERKS3_
FNDA:0,_ZN4Glib6RefPtrIN3Gtk10TextBufferEE4swapERS3_
FNDA:0,_ZN4Glib6RefPtrIN3Gtk10TextBufferEEaSERKS3_
FNF:9
FNH:0
DA:169,0
DA:171,0
DA:175,0
DA:177,0
DA:178,0
DA:181,0
DA:183,0
DA:184,0
DA:185,0
DA:194,0
DA:196,0
DA:198,0
DA:199,0
DA:200,0
DA:220,0
DA:222,0
DA:223,0
DA:224,0
DA:225,0
DA:228,0
DA:254,0
DA:255,0
DA:256,0
BA:183,0
BA:183,0
BA:183,0
BA:183,0
BA:198,0
BA:198,0
BA:198,0
BA:198,0
LF:23
LH:0
end_of_record
SF:/usr/include/glibmm-2.4/glibmm/signalproxy.h
FN:145,_ZN4Glib12SignalProxy0IvE7connectERKN4sigc4slotIvNS2_3nilES4_S4_S4_S4_S4_S4_EEb
FN:131,_ZN4Glib12SignalProxy0IvED1Ev
FNDA:0,_ZN4Glib12SignalProxy0IvED1Ev
FNDA:0,_ZN4Glib12SignalProxy0IvE7connectERKN4sigc4slotIvNS2_3nilES4_S4_S4_S4_S4_S4_EEb
FNF:2
FNH:0
DA:131,0
DA:145,0
DA:146,0
LF:3
LH:0
end_of_record
SF:/usr/include/gtkmm-2.4/gtkmm/builder.h
FN:489,_ZN3Gtk7Builder10get_widgetINS_5FrameEEEvRKN4Glib7ustringERPT_
FN:489,_ZN3Gtk7Builder10get_widgetINS_5TableEEEvRKN4Glib7ustringERPT_
FN:489,_ZN3Gtk7Builder10get_widgetINS_10SpinButtonEEEvRKN4Glib7ustringERPT_
FN:489,_ZN3Gtk7Builder10get_widgetINS_8TextViewEEEvRKN4Glib7ustringERPT_
FNDA:0,_ZN3Gtk7Builder10get_widgetINS_5FrameEEEvRKN4Glib7ustringERPT_
FNDA:0,_ZN3Gtk7Builder10get_widgetINS_5TableEEEvRKN4Glib7ustringERPT_
FNDA:0,_ZN3Gtk7Builder10get_widgetINS_10SpinButtonEEEvRKN4Glib7ustringERPT_
FNDA:0,_ZN3Gtk7Builder10get_widgetINS_8TextViewEEEvRKN4Glib7ustringERPT_
FNF:4
FNH:0
DA:489,0
DA:492,0
DA:495,0
DA:497,0
DA:498,0
DA:499,0
BA:495,0
BA:495,0
BA:495,0
BA:495,0
BA:495,0
BA:495,0
BA:495,0
BA:495,0
BA:497,0
BA:497,0
BA:497,0
BA:497,0
BA:497,0
BA:497,0
BA:497,0
BA:497,0
LF:6
LH:0
end_of_record
SF:/usr/include/gtkmm-2.4/gtkmm/comboboxtext.h
FN:101,_ZN3Gtk12ComboBoxText16TextModelColumnsD1Ev
FN:44,_ZN3Gtk12ComboBoxTextD1Ev
FN:44,_ZN3Gtk12ComboBoxTextD0Ev
FN:101,_ZN3Gtk12ComboBoxText16TextModelColumnsD0Ev
FNDA:0,_ZN3Gtk12ComboBoxTextD1Ev
FNDA:0,_ZN3Gtk12ComboBoxTextD0Ev
FNDA:0,_ZN3Gtk12ComboBoxText16TextModelColumnsD1Ev
FNDA:0,_ZN3Gtk12ComboBoxText16TextModelColumnsD0Ev
FNF:4
FNH:0
DA:44,0
DA:101,0
BA:44,0
BA:44,0
BA:44,0
BA:44,0
BA:44,0
BA:44,0
BA:44,0
BA:44,0
BA:44,0
BA:44,0
BA:44,0
BA:44,0
BA:44,0
BA:44,0
BA:44,0
BA:44,0
BA:44,0
BA:44,0
BA:44,0
BA:44,0
BA:101,0
BA:101,0
BA:101,0
BA:101,0
LF:2
LH:0
end_of_record
SF:/usr/include/gtkmm-2.4/gtkmm/enums.h
FN:221,_ZN3GtkorENS_13AttachOptionsES0_
FNDA:0,_ZN3GtkorENS_13AttachOptionsES0_
FNF:1
FNH:0
DA:221,0
DA:222,0
LF:2
LH:0
end_of_record
SF:/usr/include/gtkmm-2.4/gtkmm/papersize.h
DA:37,17
DA:38,17
DA:39,17
DA:40,17
DA:41,17
DA:42,17
DA:43,17
LF:7
LH:7
end_of_record
SF:/usr/include/sigc++-2.0/sigc++/adaptors/adaptor_trait.h
FN:60,_ZN4sigc15adaptor_functorINS_18bound_mem_functor0Iv12ConfigDialogEEED1Ev
FN:231,_ZN4sigc15adaptor_functorINS_18bound_mem_functor0Iv12ConfigDialogEEEC1ERKS3_
FN:250,_ZNK4sigc15adaptor_functorINS_18bound_mem_functor0Iv12ConfigDialogEEEclEv
FN:262,_ZN4sigc10visit_eachINS_8internal20limit_derived_targetIPNS_9trackableENS1_12slot_do_bindEEENS_18bound_mem_functor0Iv12ConfigDialogEEEEvRKT_RKNS_15adaptor_functorIT0_EE
FN:262,_ZN4sigc10visit_eachINS_8internal20limit_derived_targetIPNS_9trackableENS1_14slot_do_unbindEEENS_18bound_mem_functor0Iv12ConfigDialogEEEEvRKT_RKNS_15adaptor_functorIT0_EE
FNDA:0,_ZN4sigc15adaptor_functorINS_18bound_mem_functor0Iv12ConfigDialogEEED1Ev
FNDA:0,_ZN4sigc15adaptor_functorINS_18bound_mem_functor0Iv12ConfigDialogEEEC1ERKS3_
FNDA:0,_ZNK4sigc15adaptor_functorINS_18bound_mem_functor0Iv12ConfigDialogEEEclEv
FNDA:0,_ZN4sigc10visit_eachINS_8internal20limit_derived_targetIPNS_9trackableENS1_12slot_do_bindEEENS_18bound_mem_functor0Iv12ConfigDialogEEEEvRKT_RKNS_15adaptor_functorIT0_EE
FNDA:0,_ZN4sigc10visit_eachINS_8internal20limit_derived_targetIPNS_9trackableENS1_14slot_do_unbindEEENS_18bound_mem_functor0Iv12ConfigDialogEEEEvRKT_RKNS_15adaptor_functorIT0_EE
FNF:5
FNH:0
DA:60,0
DA:231,0
DA:232,0
DA:233,0
DA:250,0
DA:251,0
DA:262,0
DA:267,0
DA:268,0
LF:9
LH:0
end_of_record
SF:/usr/include/sigc++-2.0/sigc++/adaptors/deduce_result_type.h
FN:28,_ZN4sigc12adaptor_baseC2Ev
FNDA:0,_ZN4sigc12adaptor_baseC2Ev
FNF:1
FNH:0
DA:28,0
LF:1
LH:0
end_of_record
SF:/usr/include/sigc++-2.0/sigc++/functors/functor_trait.h
FN:64,_ZN4sigc12functor_baseC2Ev
FNDA:0,_ZN4sigc12functor_baseC2Ev
FNF:1
FNH:0
DA:64,0
LF:1
LH:0
end_of_record
SF:/usr/include/sigc++-2.0/sigc++/functors/mem_fun.h
FN:89,_ZN4sigc12mem_functor0Iv12ConfigDialogEC2EMS1_FvvE
FN:1778,_ZN4sigc18bound_mem_functor0Iv12ConfigDialogEC1ERS1_MS1_FvvE
FN:5452,_ZN4sigc7mem_funIv12ConfigDialogS1_EENS_18bound_mem_functor0IT_T0_EERS4_MT1_FS3_vE
FN:1786,_ZNK4sigc18bound_mem_functor0Iv12ConfigDialogEclEv
FN:1803,_ZN4sigc10visit_eachINS_8internal20limit_derived_targetIPNS_9trackableENS1_12slot_do_bindEEEv12ConfigDialogEEvRKT_RKNS_18bound_mem_functor0IT0_T1_EE
FN:1803,_ZN4sigc10visit_eachINS_8internal20limit_derived_targetIPNS_9trackableENS1_14slot_do_unbindEEEv12ConfigDialogEEvRKT_RKNS_18bound_mem_functor0IT0_T1_EE
FNDA:0,_ZN4sigc12mem_functor0Iv12ConfigDialogEC2EMS1_FvvE
FNDA:0,_ZN4sigc18bound_mem_functor0Iv12ConfigDialogEC1ERS1_MS1_FvvE
FNDA:0,_ZNK4sigc18bound_mem_functor0Iv12ConfigDialogEclEv
FNDA:0,_ZN4sigc10visit_eachINS_8internal20limit_derived_targetIPNS_9trackableENS1_12slot_do_bindEEEv12ConfigDialogEEvRKT_RKNS_18bound_mem_functor0IT0_T1_EE
FNDA:0,_ZN4sigc10visit_eachINS_8internal20limit_derived_targetIPNS_9trackableENS1_14slot_do_unbindEEEv12ConfigDialogEEvRKT_RKNS_18bound_mem_functor0IT0_T1_EE
FNDA:0,_ZN4sigc7mem_funIv12ConfigDialogS1_EENS_18bound_mem_functor0IT_T0_EERS4_MT1_FS3_vE
FNF:6
FNH:0
DA:89,0
DA:1778,0
DA:1780,0
DA:1781,0
DA:1786,0
DA:1787,0
DA:1803,0
DA:1806,0
DA:1807,0
DA:5452,0
DA:5453,0
BA:1787,0
BA:1787,0
LF:11
LH:0
end_of_record
SF:/usr/include/sigc++-2.0/sigc++/functors/slot.h
FN:109,_ZN4sigc8internal10slot_call0INS_18bound_mem_functor0Iv12ConfigDialogEEvE7addressEv
FN:99,_ZN4sigc8internal10slot_call0INS_18bound_mem_functor0Iv12ConfigDialogEEvE7call_itEPNS0_8slot_repE
FN:422,_ZN4sigc5slot0IvED2Ev
FN:1091,_ZN4sigc4slotIvNS_3nilES1_S1_S1_S1_S1_S1_ED1Ev
FN:37,_ZN4sigc8internal14typed_slot_repINS_18bound_mem_functor0Iv12ConfigDialogEEEC1ERKS4_
FN:450,_ZN4sigc5slot0IvEC2INS_18bound_mem_functor0Iv12ConfigDialogEEEERKT_
FN:1129,_ZN4sigc4slotIvNS_3nilES1_S1_S1_S1_S1_S1_EC1INS_18bound_mem_functor0Iv12ConfigDialogEEEERKT_
FN:41,_ZN4sigc8internal14typed_slot_repINS_18bound_mem_functor0Iv12ConfigDialogEEEC1ERKS5_
FN:74,_ZN4sigc8internal14typed_slot_repINS_18bound_mem_functor0Iv12ConfigDialogEEE3dupEPv
FN:55,_ZN4sigc8internal14typed_slot_repINS_18bound_mem_functor0Iv12ConfigDialogEEE7destroyEPv
FNDA:0,_ZN4sigc8internal14typed_slot_repINS_18bound_mem_functor0Iv12ConfigDialogEEEC1ERKS4_
FNDA:0,_ZN4sigc8internal14typed_slot_repINS_18bound_mem_functor0Iv12ConfigDialogEEEC1ERKS5_
FNDA:0,_ZN4sigc8internal14typed_slot_repINS_18bound_mem_functor0Iv12ConfigDialogEEE7destroyEPv
FNDA:0,_ZN4sigc8internal14typed_slot_repINS_18bound_mem_functor0Iv12ConfigDialogEEE3dupEPv
FNDA:0,_ZN4sigc8internal10slot_call0INS_18bound_mem_functor0Iv12ConfigDialogEEvE7call_itEPNS0_8slot_repE
FNDA:0,_ZN4sigc8internal10slot_call0INS_18bound_mem_functor0Iv12ConfigDialogEEvE7addressEv
FNDA:0,_ZN4sigc5slot0IvED2Ev
FNDA:0,_ZN4sigc5slot0IvEC2INS_18bound_mem_functor0Iv12ConfigDialogEEEERKT_
FNDA:0,_ZN4sigc4slotIvNS_3nilES1_S1_S1_S1_S1_S1_ED1Ev
FNDA:0,_ZN4sigc4slotIvNS_3nilES1_S1_S1_S1_S1_S1_EC1INS_18bound_mem_functor0Iv12ConfigDialogEEEERKT_
FNF:10
FNH:0
DA:37,0
DA:38,0
DA:39,0
DA:41,0
DA:42,0
DA:43,0
DA:55,0
DA:57,0
DA:58,0
DA:59,0
DA:60,0
DA:61,0
DA:66,0
DA:74,0
DA:76,0
DA:77,0
DA:99,0
DA:102,0
DA:103,0
DA:109,0
DA:110,0
DA:422,0
DA:450,0
DA:451,0
DA:454,0
DA:455,0
DA:1091,0
DA:1129,0
DA:1130,0
LF:29
LH:0
end_of_record
SF:/usr/include/sigc++-2.0/sigc++/functors/slot_base.h
FN:97,_ZN4sigc8internal8slot_rep7destroyEv
FN:142,_ZN4sigc8internal12slot_do_bindC1EPNS0_8slot_repE
FN:160,_ZN4sigc8internal14slot_do_unbindC1EPNS0_8slot_repE
FN:86,_ZN4sigc8internal8slot_repD2Ev
FN:83,_ZN4sigc8internal8slot_repC2EPFPvS2_ES4_S4_
FN:147,_ZNK4sigc8internal12slot_do_bindclEPKNS_9trackableE
FN:165,_ZNK4sigc8internal14slot_do_unbindclEPKNS_9trackableE
FNDA:0,_ZN4sigc8internal8slot_repC2EPFPvS2_ES4_S4_
FNDA:0,_ZN4sigc8internal8slot_repD2Ev
FNDA:0,_ZN4sigc8internal8slot_rep7destroyEv
FNDA:0,_ZN4sigc8internal12slot_do_bindC1EPNS0_8slot_repE
FNDA:0,_ZNK4sigc8internal12slot_do_bindclEPKNS_9trackableE
FNDA:0,_ZN4sigc8internal14slot_do_unbindC1EPNS0_8slot_repE
FNDA:0,_ZNK4sigc8internal14slot_do_unbindclEPKNS_9trackableE
FNF:7
FNH:0
DA:83,0
DA:84,0
DA:86,0
DA:87,0
DA:97,0
DA:98,0
DA:142,0
DA:147,0
DA:148,0
DA:160,0
DA:165,0
DA:166,0
BA:98,0
BA:98,0
LF:12
LH:0
end_of_record
SF:/usr/include/sigc++-2.0/sigc++/limit_reference.h
FN:79,_ZN4sigc15limit_referenceI12ConfigDialogLb1EEC1ERS1_
FN:95,_ZNK4sigc15limit_referenceI12ConfigDialogLb1EE6invokeEv
FN:88,_ZNK4sigc15limit_referenceI12ConfigDialogLb1EE5visitEv
FN:118,_ZN4sigc10visit_eachINS_8internal20limit_derived_targetIPNS_9trackableENS1_12slot_do_bindEEE12ConfigDialogLb1EEEvRKT_RKNS_15limit_referenceIT0_XT1_EEE
FN:118,_ZN4sigc10visit_eachINS_8internal20limit_derived_targetIPNS_9trackableENS1_14slot_do_unbindEEE12ConfigDialogLb1EEEvRKT_RKNS_15limit_referenceIT0_XT1_EEE
FNDA:0,_ZN4sigc15limit_referenceI12ConfigDialogLb1EEC1ERS1_
FNDA:0,_ZNK4sigc15limit_referenceI12ConfigDialogLb1EE5visitEv
FNDA:0,_ZNK4sigc15limit_referenceI12ConfigDialogLb1EE6invokeEv
FNDA:0,_ZN4sigc10visit_eachINS_8internal20limit_derived_targetIPNS_9trackableENS1_12slot_do_bindEEE12ConfigDialogLb1EEEvRKT_RKNS_15limit_referenceIT0_XT1_EEE
FNDA:0,_ZN4sigc10visit_eachINS_8internal20limit_derived_targetIPNS_9trackableENS1_14slot_do_unbindEEE12ConfigDialogLb1EEEvRKT_RKNS_15limit_referenceIT0_XT1_EEE
FNF:5
FNH:0
DA:79,0
DA:81,0
DA:82,0
DA:88,0
DA:89,0
DA:95,0
DA:96,0
DA:118,0
DA:121,0
DA:122,0
LF:10
LH:0
end_of_record
SF:/usr/include/sigc++-2.0/sigc++/visit_each.h
FN:103,_ZN4sigc8internal20limit_derived_targetIPNS_9trackableENS0_12slot_do_bindEEC1ERKS4_
FN:103,_ZN4sigc8internal20limit_derived_targetIPNS_9trackableENS0_14slot_do_unbindEEC1ERKS4_
FN:87,_ZN4sigc8internal17with_type_pointerILb1ENS_9trackableENS0_20limit_derived_targetIPS2_NS0_12slot_do_bindEEEE8execute_ERKS2_RKS6_
FN:98,_ZNK4sigc8internal20limit_derived_targetIPNS_9trackableENS0_12slot_do_bindEEclIS2_EEvRKT_
FN:143,_ZN4sigc10visit_eachINS_8internal20limit_derived_targetIPNS_9trackableENS1_12slot_do_bindEEES3_EEvRKT_RKT0_
FN:152,_ZN4sigc15visit_each_typeIPNS_9trackableENS_8internal12slot_do_bindENS_15adaptor_functorINS_18bound_mem_functor0Iv12ConfigDialogEEEEEEvRKT0_RKT1_
FN:87,_ZN4sigc8internal17with_type_pointerILb1ENS_9trackableENS0_20limit_derived_targetIPS2_NS0_14slot_do_unbindEEEE8execute_ERKS2_RKS6_
FN:98,_ZNK4sigc8internal20limit_derived_targetIPNS_9trackableENS0_14slot_do_unbindEEclIS2_EEvRKT_
FN:143,_ZN4sigc10visit_eachINS_8internal20limit_derived_targetIPNS_9trackableENS1_14slot_do_unbindEEES3_EEvRKT_RKT0_
FN:152,_ZN4sigc15visit_each_typeIPNS_9trackableENS_8internal14slot_do_unbindENS_15adaptor_functorINS_18bound_mem_functor0Iv12ConfigDialogEEEEEEvRKT0_RKT1_
FNDA:0,_ZN4sigc8internal17with_type_pointerILb1ENS_9trackableENS0_20limit_derived_targetIPS2_NS0_12slot_do_bindEEEE8execute_ERKS2_RKS6_
FNDA:0,_ZN4sigc8internal17with_type_pointerILb1ENS_9trackableENS0_20limit_derived_targetIPS2_NS0_14slot_do_unbindEEEE8execute_ERKS2_RKS6_
FNDA:0,_ZNK4sigc8internal20limit_derived_targetIPNS_9trackableENS0_12slot_do_bindEEclIS2_EEvRKT_
FNDA:0,_ZNK4sigc8internal20limit_derived_targetIPNS_9trackableENS0_14slot_do_unbindEEclIS2_EEvRKT_
FNDA:0,_ZN4sigc8internal20limit_derived_targetIPNS_9trackableENS0_12slot_do_bindEEC1ERKS4_
FNDA:0,_ZN4sigc8internal20limit_derived_targetIPNS_9trackableENS0_14slot_do_unbindEEC1ERKS4_
FNDA:0,_ZN4sigc10visit_eachINS_8internal20limit_derived_targetIPNS_9trackableENS1_12slot_do_bindEEES3_EEvRKT_RKT0_
FNDA:0,_ZN4sigc10visit_eachINS_8internal20limit_derived_targetIPNS_9trackableENS1_14slot_do_unbindEEES3_EEvRKT_RKT0_
FNDA:0,_ZN4sigc15visit_each_typeIPNS_9trackableENS_8internal12slot_do_bindENS_15adaptor_functorINS_18bound_mem_functor0Iv12ConfigDialogEEEEEEvRKT0_RKT1_
FNDA:0,_ZN4sigc15visit_each_typeIPNS_9trackableENS_8internal14slot_do_unbindENS_15adaptor_functorINS_18bound_mem_functor0Iv12ConfigDialogEEEEEEvRKT0_RKT1_
FNF:10
FNH:0
DA:87,0
DA:88,0
DA:98,0
DA:100,0
DA:101,0
DA:103,0
DA:104,0
DA:105,0
DA:143,0
DA:144,0
DA:152,0
DA:156,0
DA:170,0
DA:171,0
LF:14
LH:0
end_of_record
SF:/home/frechilla/workspace/headless/blockem_sourceforge/src/coordinate.h
FN:49,_ZN10CoordinateC1Ev
FN:53,_ZN10CoordinateC1Eii
FN:47,_ZN10CoordinateaSERKS_
FN:57,_ZN10CoordinateD0Ev
FN:57,_ZN10CoordinateD1Ev
FNDA:0,_ZN10CoordinateaSERKS_
FNDA:0,_ZN10CoordinateC1Ev
FNDA:0,_ZN10CoordinateC1Eii
FNDA:0,_ZN10CoordinateD0Ev
FNDA:0,_ZN10CoordinateD1Ev
FNF:5
FNH:0
DA:47,0
DA:49,0
DA:51,0
DA:52,0
DA:53,0
DA:55,0
DA:56,0
DA:57,0
DA:58,0
BA:58,0
BA:58,0
BA:58,0
BA:58,0
LF:9
LH:0
end_of_record
SF:/home/frechilla/workspace/headless/blockem_sourceforge/src/game1v1.h
DA:53,17
DA:56,17
LF:2
LH:2
end_of_record
SF:/home/frechilla/workspace/headless/blockem_sourceforge/src/gui_config_dialog.cpp
FN:604,_Z41__static_initialization_and_destruction_0ii
FN:604,_GLOBAL__I__ZN12ConfigDialogC2EP10_GtkDialogRKN4Glib6RefPtrIN3Gtk7BuilderEEE
FN:517,_ZN12ConfigDialog3runEv
FN:496,_ZNK12ConfigDialog19GetPlayer2HeuristicEv
FN:475,_ZNK12ConfigDialog19GetPlayer1HeuristicEv
FN:470,_ZNK12ConfigDialog25GetPlayer2SearchTreeDepthEv
FN:465,_ZNK12ConfigDialog25GetPlayer1SearchTreeDepthEv
FN:457,_ZNK12ConfigDialog23GetPlayer2StartingCoordER10Coordinate
FN:449,_ZNK12ConfigDialog23GetPlayer1StartingCoordER10Coordinate
FN:444,_ZNK12ConfigDialog21IsPlayer2TypeComputerEv
FN:439,_ZNK12ConfigDialog21IsPlayer1TypeComputerEv
FN:566,_ZNK12ConfigDialog35SaveCurrentConfigIntoGlobalSettingsEv
FN:406,_ZN12ConfigDialog35ComboHeuristicPlayer2_signalChangedEv
FN:373,_ZN12ConfigDialog35ComboHeuristicPlayer1_signalChangedEv
FN:361,_ZN12ConfigDialog30ComboPlayer2Type_signalChangedEv
FN:349,_ZN12ConfigDialog30ComboPlayer1Type_signalChangedEv
FN:307,_ZN12ConfigDialog32SetStartingCoordEditionSensitiveEb
FN:332,_ZN12ConfigDialog41SpinButtonDepthPlayer2_SignalValueChangedEv
FN:315,_ZN12ConfigDialog41SpinButtonDepthPlayer1_SignalValueChangedEv
FN:291,_ZN12ConfigDialog15on_expose_eventEP15_GdkEventExpose
FN:287,_ZN12ConfigDialogD0Ev
FN:287,_ZN12ConfigDialogD1Ev
FN:287,_ZN12ConfigDialogD2Ev
FN:47,_ZN12ConfigDialogC1EP10_GtkDialogRKN4Glib6RefPtrIN3Gtk7BuilderEEE
FN:47,_ZN12ConfigDialogC2EP10_GtkDialogRKN4Glib6RefPtrIN3Gtk7BuilderEEE
FNDA:0,_ZN12ConfigDialogC1EP10_GtkDialogRKN4Glib6RefPtrIN3Gtk7BuilderEEE
FNDA:0,_ZN12ConfigDialogC2EP10_GtkDialogRKN4Glib6RefPtrIN3Gtk7BuilderEEE
FNDA:0,_ZN12ConfigDialogD0Ev
FNDA:0,_ZN12ConfigDialogD1Ev
FNDA:0,_ZN12ConfigDialogD2Ev
FNDA:0,_ZN12ConfigDialog15on_expose_eventEP15_GdkEventExpose
FNDA:0,_ZN12ConfigDialog32SetStartingCoordEditionSensitiveEb
FNDA:0,_ZN12ConfigDialog41SpinButtonDepthPlayer1_SignalValueChangedEv
FNDA:0,_ZN12ConfigDialog41SpinButtonDepthPlayer2_SignalValueChangedEv
FNDA:0,_ZN12ConfigDialog30ComboPlayer1Type_signalChangedEv
FNDA:0,_ZN12ConfigDialog30ComboPlayer2Type_signalChangedEv
FNDA:0,_ZN12ConfigDialog35ComboHeuristicPlayer1_signalChangedEv
FNDA:0,_ZN12ConfigDialog35ComboHeuristicPlayer2_signalChangedEv
FNDA:0,_ZNK12ConfigDialog21IsPlayer1TypeComputerEv
FNDA:0,_ZNK12ConfigDialog21IsPlayer2TypeComputerEv
FNDA:0,_ZNK12ConfigDialog23GetPlayer1StartingCoordER10Coordinate
FNDA:0,_ZNK12ConfigDialog23GetPlayer2StartingCoordER10Coordinate
FNDA:0,_ZNK12ConfigDialog25GetPlayer1SearchTreeDepthEv
FNDA:0,_ZNK12ConfigDialog25GetPlayer2SearchTreeDepthEv
FNDA:0,_ZNK12ConfigDialog19GetPlayer1HeuristicEv
FNDA:0,_ZNK12ConfigDialog19GetPlayer2HeuristicEv
FNDA:0,_ZN12ConfigDialog3runEv
FNDA:0,_ZNK12ConfigDialog35SaveCurrentConfigIntoGlobalSettingsEv
FNDA:17,_Z41__static_initialization_and_destruction_0ii
FNDA:17,_GLOBAL__I__ZN12ConfigDialogC2EP10_GtkDialogRKN4Glib6RefPtrIN3Gtk7BuilderEEE
FNF:25
FNH:2
DA:47,0
DA:67,0
DA:77,0
DA:78,0
DA:82,0
DA:83,0
DA:85,0
DA:88,0
DA:89,0
DA:91,0
DA:94,0
DA:95,0
DA:97,0
DA:100,0
DA:101,0
DA:103,0
DA:106,0
DA:107,0
DA:109,0
DA:112,0
DA:113,0
DA:115,0
DA:118,0
DA:119,0
DA:121,0
DA:124,0
DA:125,0
DA:127,0
DA:130,0
DA:131,0
DA:133,0
DA:136,0
DA:137,0
DA:139,0
DA:142,0
DA:143,0
DA:145,0
DA:148,0
DA:149,0
DA:151,0
DA:154,0
DA:155,0
DA:157,0
DA:160,0
DA:161,0
DA:163,0
DA:167,0
DA:168,0
DA:169,0
DA:170,0
DA:173,0
DA:174,0
DA:178,0
DA:179,0
DA:180,0
DA:182,0
DA:183,0
DA:184,0
DA:186,0
DA:191,0
DA:193,0
DA:194,0
DA:197,0
DA:198,0
DA:202,0
DA:203,0
DA:204,0
DA:207,0
DA:208,0
DA:209,0
DA:231,0
DA:232,0
DA:243,0
DA:244,0
DA:256,0
DA:257,0
DA:268,0
DA:269,0
DA:273,0
DA:275,0
DA:277,0
DA:279,0
DA:282,0
DA:284,0
DA:285,0
DA:287,0
DA:289,0
DA:291,0
DA:297,0
DA:299,0
DA:300,0
DA:301,0
DA:304,0
DA:307,0
DA:309,0
DA:310,0
DA:311,0
DA:312,0
DA:313,0
DA:315,0
DA:317,0
DA:319,0
DA:321,0
DA:324,0
DA:326,0
DA:328,0
DA:330,0
DA:332,0
DA:334,0
DA:336,0
DA:338,0
DA:341,0
DA:343,0
DA:345,0
DA:347,0
DA:349,0
DA:351,0
DA:353,0
DA:357,0
DA:359,0
DA:361,0
DA:363,0
DA:365,0
DA:369,0
DA:371,0
DA:373,0
DA:376,0
DA:379,0
DA:387,0
DA:389,0
DA:391,0
DA:392,0
DA:396,0
DA:398,0
DA:399,0
DA:401,0
DA:404,0
DA:406,0
DA:409,0
DA:412,0
DA:421,0
DA:423,0
DA:425,0
DA:426,0
DA:430,0
DA:432,0
DA:433,0
DA:435,0
DA:437,0
DA:439,0
DA:441,0
DA:444,0
DA:446,0
DA:449,0
DA:454,0
DA:455,0
DA:457,0
DA:462,0
DA:463,0
DA:465,0
DA:467,0
DA:470,0
DA:472,0
DA:475,0
DA:477,0
DA:482,0
DA:484,0
DA:486,0
DA:491,0
DA:496,0
DA:498,0
DA:503,0
DA:505,0
DA:507,0
DA:512,0
DA:517,0
DA:522,0
DA:524,0
DA:528,0
DA:531,0
DA:533,0
DA:537,0
DA:542,0
DA:544,0
DA:546,0
DA:548,0
DA:551,0
DA:552,0
DA:556,0
DA:557,0
DA:559,0
DA:560,0
DA:563,0
DA:566,0
DA:571,0
DA:573,0
DA:577,0
DA:580,0
DA:582,0
DA:586,0
DA:590,0
DA:591,0
DA:592,0
DA:593,0
DA:594,0
DA:595,0
DA:598,0
DA:599,0
DA:602,0
DA:603,0
DA:604,51
BA:67,0
BA:67,0
BA:67,0
BA:67,0
BA:67,0
BA:67,0
BA:67,0
BA:67,0
BA:67,0
BA:67,0
BA:67,0
BA:67,0
BA:83,0
BA:83,0
BA:83,0
BA:83,0
BA:89,0
BA:89,0
BA:89,0
BA:89,0
BA:95,0
BA:95,0
BA:95,0
BA:95,0
BA:101,0
BA:101,0
BA:101,0
BA:101,0
BA:107,0
BA:107,0
BA:107,0
BA:107,0
BA:113,0
BA:113,0
BA:113,0
BA:113,0
BA:119,0
BA:119,0
BA:119,0
BA:119,0
BA:125,0
BA:125,0
BA:125,0
BA:125,0
BA:131,0
BA:131,0
BA:131,0
BA:131,0
BA:137,0
BA:137,0
BA:137,0
BA:137,0
BA:143,0
BA:143,0
BA:143,0
BA:143,0
BA:149,0
BA:149,0
BA:149,0
BA:149,0
BA:155,0
BA:155,0
BA:155,0
BA:155,0
BA:161,0
BA:161,0
BA:161,0
BA:161,0
BA:186,0
BA:186,0
BA:186,0
BA:186,0
BA:285,0
BA:285,0
BA:285,0
BA:285,0
BA:285,0
BA:285,0
BA:285,0
BA:285,0
BA:289,0
BA:289,0
BA:289,0
BA:289,0
BA:289,0
BA:289,0
BA:289,0
BA:289,0
BA:289,0
BA:289,0
BA:289,0
BA:289,0
BA:289,0
BA:289,0
BA:289,0
BA:289,0
BA:289,0
BA:289,0
BA:289,0
BA:289,0
BA:289,0
BA:289,0
BA:289,0
BA:289,0
BA:289,0
BA:289,0
BA:289,0
BA:289,0
BA:289,0
BA:289,0
BA:289,0
BA:289,0
BA:289,0
BA:289,0
BA:289,0
BA:289,0
BA:289,0
BA:289,0
BA:289,0
BA:289,0
BA:289,0
BA:289,0
BA:297,0
BA:297,0
BA:317,0
BA:317,0
BA:319,0
BA:319,0
BA:326,0
BA:326,0
BA:334,0
BA:334,0
BA:336,0
BA:336,0
BA:343,0
BA:343,0
BA:351,0
BA:351,0
BA:363,0
BA:363,0
BA:387,0
BA:387,0
BA:396,0
BA:396,0
BA:421,0
BA:421,0
BA:430,0
BA:430,0
BA:477,0
BA:477,0
BA:484,0
BA:484,0
BA:498,0
BA:498,0
BA:505,0
BA:505,0
BA:522,0
BA:522,0
BA:531,0
BA:531,0
BA:571,0
BA:571,0
BA:580,0
BA:580,0
BA:604,2
BA:604,1
BA:604,2
BA:604,1
LF:211
LH:1
end_of_record
SF:/home/frechilla/workspace/headless/blockem_sourceforge/src/gui_exception.h
FN:47,_ZNK12GUIException4whatEv
FN:39,_ZN12GUIExceptionC1ERKSs
FN:44,_ZN12GUIExceptionD0Ev
FN:44,_ZN12GUIExceptionD1Ev
FNDA:0,_ZN12GUIExceptionC1ERKSs
FNDA:0,_ZN12GUIExceptionD0Ev
FNDA:0,_ZN12GUIExceptionD1Ev
FNDA:0,_ZNK12GUIException4whatEv
FNF:4
FNH:0
DA:39,0
DA:41,0
DA:42,0
DA:44,0
DA:45,0
DA:47,0
DA:48,0
DA:49,0
BA:45,0
BA:45,0
BA:45,0
BA:45,0
LF:8
LH:0
end_of_record
SF:/home/frechilla/workspace/headless/blockem_sourceforge/src/gui_glade_defs.h
DA:97,17
DA:98,34
DA:99,34
DA:100,34
LF:4
LH:4
end_of_record
SF:/home/frechilla/workspace/headless/blockem_sourceforge/src/singleton.h
FN:39,_ZN9SingletonI13Game1v1ConfigE8InstanceEv
FNDA:0,_ZN9SingletonI13Game1v1ConfigE8InstanceEv
FNF:1
FNH:0
DA:39,0
DA:41,0
DA:43,0
DA:44,0
DA:47,0
BA:41,0
BA:41,0
BA:43,0
BA:43,0
BA:43,0
BA:43,0
BA:43,0
BA:43,0
LF:5
LH:0
end_of_record
TN:
SF:/usr/include/c++/4.4/bits/allocator.h
FN:121,_ZSteqIcEbRKSaIT_ES3_
FN:101,_ZNSaIcEC1Ev
FN:103,_ZNSaIcEC2ERKS_
FN:109,_ZNSaIcED1Ev
FN:103,_ZNSaIcEC1ERKS_
FN:109,_ZNSaIcED2Ev
FNDA:0,_ZNSaIcEC1Ev
FNDA:0,_ZNSaIcEC2ERKS_
FNDA:0,_ZNSaIcEC1ERKS_
FNDA:0,_ZNSaIcED1Ev
FNDA:0,_ZNSaIcED2Ev
FNDA:0,_ZSteqIcEbRKSaIT_ES3_
FNF:6
FNH:0
DA:101,0
DA:103,0
DA:104,0
DA:109,0
DA:121,0
DA:122,0
LF:6
LH:0
end_of_record
SF:/usr/include/c++/4.4/bits/basic_ios.h
FN:127,_ZNKSt9basic_iosIcSt11char_traitsIcEE7rdstateEv
FN:450,_ZNSt9basic_iosIcSt11char_traitsIcEEC2Ev
FN:272,_ZNSt9basic_iosIcSt11char_traitsIcEED2Ev
FN:46,_ZSt13__check_facetISt5ctypeIcEERKT_PS3_
FN:439,_ZNKSt9basic_iosIcSt11char_traitsIcEE5widenEc
FN:360,_ZNKSt9basic_iosIcSt11char_traitsIcEE4fillEv
FN:380,_ZNSt9basic_iosIcSt11char_traitsIcEE4fillEc
FN:147,_ZNSt9basic_iosIcSt11char_traitsIcEE8setstateESt12_Ios_Iostate
FNDA:0,_ZSt13__check_facetISt5ctypeIcEERKT_PS3_
FNDA:0,_ZNKSt9basic_iosIcSt11char_traitsIcEE7rdstateEv
FNDA:0,_ZNSt9basic_iosIcSt11char_traitsIcEE8setstateESt12_Ios_Iostate
FNDA:0,_ZNSt9basic_iosIcSt11char_traitsIcEED2Ev
FNDA:0,_ZNKSt9basic_iosIcSt11char_traitsIcEE4fillEv
FNDA:0,_ZNSt9basic_iosIcSt11char_traitsIcEE4fillEc
FNDA:0,_ZNKSt9basic_iosIcSt11char_traitsIcEE5widenEc
FNDA:0,_ZNSt9basic_iosIcSt11char_traitsIcEEC2Ev
FNF:8
FNH:0
DA:46,0
DA:48,0
DA:49,0
DA:50,0
DA:127,0
DA:128,0
DA:147,0
DA:148,0
DA:272,0
DA:360,0
DA:362,0
DA:364,0
DA:365,0
DA:367,0
DA:380,0
DA:382,0
DA:383,0
DA:384,0
DA:439,0
DA:440,0
DA:450,0
DA:452,0
DA:453,0
BA:48,0
BA:48,0
BA:272,0
BA:272,0
BA:362,0
BA:362,0
LF:23
LH:0
end_of_record
SF:/usr/include/c++/4.4/bits/basic_string.h
FN:272,_ZNKSs7_M_dataEv
FN:280,_ZNKSs6_M_repEv
FN:629,_ZNKSs6lengthEv
FN:1615,_ZNKSs5c_strEv
FN:209,_ZNSs4_Rep10_M_refdataEv
FN:1625,_ZNKSs4dataEv
FN:623,_ZNKSs4sizeEv
FN:173,_ZNSs4_Rep12_S_empty_repEv
FN:406,_ZNSs12_S_empty_repEv
FN:195,_ZNSs4_Rep15_M_set_sharableEv
FN:199,_ZNSs4_Rep26_M_set_length_and_sharableEj
FN:254,_ZNSs12_Alloc_hiderC1EPcRKSaIcE
FN:2147,_ZNSsC1Ev
FN:1632,_ZNKSs13get_allocatorEv
FN:253,_ZNSs12_Alloc_hiderD1Ev
FN:2501,_ZStlsIcSt11char_traitsIcESaIcEERSt13basic_ostreamIT_T0_ES7_RKSbIS4_S5_T1_E
FN:334,_ZNSs7_M_copyEPcPKcj
FN:379,_ZNSs13_S_copy_charsEPcS_S_
FN:1542,_ZNSs16_S_construct_auxIPcEES0_T_S1_RKSaIcESt12__false_type
FN:1559,_ZNSs12_S_constructIPcEES0_T_S1_RKSaIcE
FN:505,_ZNSsaSERKSs
FN:224,_ZNSs4_Rep10_M_disposeERKSaIcE
FN:497,_ZNSsD1Ev
FNDA:0,_ZNSs4_Rep12_S_empty_repEv
FNDA:0,_ZNSs4_Rep15_M_set_sharableEv
FNDA:0,_ZNSs4_Rep26_M_set_length_and_sharableEj
FNDA:0,_ZNSs4_Rep10_M_refdataEv
FNDA:0,_ZNSs4_Rep10_M_disposeERKSaIcE
FNDA:0,_ZNSs12_Alloc_hiderD1Ev
FNDA:0,_ZNSs12_Alloc_hiderC1EPcRKSaIcE
FNDA:0,_ZNKSs7_M_dataEv
FNDA:0,_ZNKSs6_M_repEv
FNDA:0,_ZNSs7_M_copyEPcPKcj
FNDA:0,_ZNSs13_S_copy_charsEPcS_S_
FNDA:0,_ZNSs12_S_empty_repEv
FNDA:0,_ZNSsD1Ev
FNDA:0,_ZNSsaSERKSs
FNDA:0,_ZNKSs4sizeEv
FNDA:0,_ZNKSs6lengthEv
FNDA:0,_ZNSs16_S_construct_auxIPcEES0_T_S1_RKSaIcESt12__false_type
FNDA:0,_ZNSs12_S_constructIPcEES0_T_S1_RKSaIcE
FNDA:0,_ZNKSs5c_strEv
FNDA:0,_ZNKSs4dataEv
FNDA:0,_ZNKSs13get_allocatorEv
FNDA:0,_ZNSsC1Ev
FNDA:0,_ZStlsIcSt11char_traitsIcESaIcEERSt13basic_ostreamIT_T0_ES7_RKSbIS4_S5_T1_E
FNF:23
FNH:0
DA:173,0
DA:178,0
DA:179,0
DA:195,0
DA:196,0
DA:199,0
DA:201,0
DA:202,0
DA:203,0
DA:206,0
DA:209,0
DA:210,0
DA:224,0
DA:227,0
DA:229,0
DA:231,0
DA:232,0
DA:253,0
DA:254,0
DA:255,0
DA:272,0
DA:273,0
DA:280,0
DA:281,0
DA:334,0
DA:336,0
DA:337,0
DA:339,0
DA:340,0
DA:379,0
DA:380,0
DA:406,0
DA:407,0
DA:497,0
DA:498,0
DA:505,0
DA:506,0
DA:623,0
DA:624,0
DA:629,0
DA:630,0
DA:1542,0
DA:1546,0
DA:1559,0
DA:1562,0
DA:1615,0
DA:1616,0
DA:1625,0
DA:1626,0
DA:1632,0
DA:1633,0
DA:2147,0
DA:2150,0
DA:2501,0
DA:2506,0
BA:227,0
BA:227,0
BA:229,0
BA:229,0
BA:336,0
BA:336,0
LF:55
LH:0
end_of_record
SF:/usr/include/c++/4.4/bits/basic_string.tcc
FN:123,_ZNSs12_S_constructIPcEES0_T_S1_RKSaIcESt20forward_iterator_tag
FN:228,_ZNSsC1IPcEET_S1_RKSaIcE
FNDA:0,_ZNSs12_S_constructIPcEES0_T_S1_RKSaIcESt20forward_iterator_tag
FNDA:0,_ZNSsC1IPcEET_S1_RKSaIcE
FNF:2
FNH:0
DA:123,0
DA:128,0
DA:129,0
DA:132,0
DA:134,0
DA:137,0
DA:139,0
DA:141,0
DA:142,0
DA:144,0
DA:145,0
DA:147,0
DA:148,0
DA:228,0
DA:230,0
DA:231,0
BA:128,0
BA:128,0
BA:128,0
BA:128,0
BA:128,0
BA:128,0
BA:128,0
BA:128,0
BA:128,0
BA:128,0
BA:132,0
BA:132,0
BA:132,0
BA:132,0
BA:132,0
BA:132,0
LF:16
LH:0
end_of_record
SF:/usr/include/c++/4.4/bits/char_traits.h
FN:246,_ZNSt11char_traitsIcE6assignERcRKc
FN:262,_ZNSt11char_traitsIcE6lengthEPKc
FN:274,_ZNSt11char_traitsIcE4copyEPcPKcj
FNDA:0,_ZNSt11char_traitsIcE6assignERcRKc
FNDA:0,_ZNSt11char_traitsIcE6lengthEPKc
FNDA:0,_ZNSt11char_traitsIcE4copyEPcPKcj
FNF:3
FNH:0
DA:246,0
DA:247,0
DA:262,0
DA:263,0
DA:274,0
DA:275,0
LF:6
LH:0
end_of_record
SF:/usr/include/c++/4.4/bits/ios_base.h
FN:128,_ZStorSt13_Ios_OpenmodeS_
FN:166,_ZStorSt12_Ios_IostateS_
FN:657,_ZNSt8ios_base5widthEi
FNDA:0,_ZStorSt13_Ios_OpenmodeS_
FNDA:0,_ZStorSt12_Ios_IostateS_
FNDA:0,_ZNSt8ios_base5widthEi
FNF:3
FNH:0
DA:128,0
DA:129,0
DA:166,0
DA:167,0
DA:657,0
DA:659,0
DA:660,0
DA:661,0
LF:8
LH:0
end_of_record
SF:/usr/include/c++/4.4/bits/locale_facets.h
FN:865,_ZNKSt5ctypeIcE5widenEc
FNDA:0,_ZNKSt5ctypeIcE5widenEc
FNF:1
FNH:0
DA:865,0
DA:867,0
DA:868,0
DA:869,0
DA:870,0
BA:867,0
BA:867,0
LF:5
LH:0
end_of_record
SF:/usr/include/c++/4.4/bits/stl_iterator_base_funcs.h
FN:87,_ZSt10__distanceIPcENSt15iterator_traitsIT_E15difference_typeES2_S2_St26random_access_iterator_tag
FN:110,_ZSt8distanceIPcENSt15iterator_traitsIT_E15difference_typeES2_S2_
FNDA:0,_ZSt10__distanceIPcENSt15iterator_traitsIT_E15difference_typeES2_S2_St26random_access_iterator_tag
FNDA:0,_ZSt8distanceIPcENSt15iterator_traitsIT_E15difference_typeES2_S2_
FNF:2
FNH:0
DA:87,0
DA:93,0
DA:110,0
DA:114,0
LF:4
LH:0
end_of_record
SF:/usr/include/c++/4.4/bits/stl_iterator_base_types.h
FN:160,_ZSt19__iterator_categoryIPcENSt15iterator_traitsIT_E17iterator_categoryERKS2_
FNDA:0,_ZSt19__iterator_categoryIPcENSt15iterator_traitsIT_E17iterator_categoryERKS2_
FNF:1
FNH:0
DA:160,0
DA:161,0
LF:2
LH:0
end_of_record
SF:/usr/include/c++/4.4/ext/atomicity.h
FN:62,_ZN9__gnu_cxxL25__exchange_and_add_singleEPii
FN:45,_ZN9__gnu_cxxL18__exchange_and_addEPVii
FN:75,_ZN9__gnu_cxxL27__exchange_and_add_dispatchEPii
FNDA:0,_ZN9__gnu_cxxL18__exchange_and_addEPVii
FNDA:0,_ZN9__gnu_cxxL25__exchange_and_add_singleEPii
FNDA:0,_ZN9__gnu_cxxL27__exchange_and_add_dispatchEPii
FNF:3
FNH:0
DA:45,0
DA:46,0
DA:62,0
DA:64,0
DA:65,0
DA:66,0
DA:75,0
DA:78,0
DA:79,0
DA:81,0
BA:78,0
BA:78,0
LF:10
LH:0
end_of_record
SF:/usr/include/c++/4.4/ext/new_allocator.h
FN:66,_ZN9__gnu_cxx13new_allocatorIcEC2Ev
FN:73,_ZN9__gnu_cxx13new_allocatorIcED2Ev
FN:68,_ZN9__gnu_cxx13new_allocatorIcEC2ERKS1_
FNDA:0,_ZN9__gnu_cxx13new_allocatorIcEC2Ev
FNDA:0,_ZN9__gnu_cxx13new_allocatorIcEC2ERKS1_
FNDA:0,_ZN9__gnu_cxx13new_allocatorIcED2Ev
FNF:3
FNH:0
DA:66,0
DA:68,0
DA:73,0
LF:3
LH:0
end_of_record
SF:/usr/include/c++/4.4/ext/type_traits.h
FN:148,_ZN9__gnu_cxx17__is_null_pointerIcEEbPT_
FNDA:0,_ZN9__gnu_cxx17__is_null_pointerIcEEbPT_
FNF:1
FNH:0
DA:148,0
DA:149,0
LF:2
LH:0
end_of_record
SF:/usr/include/c++/4.4/i486-linux-gnu/bits/gthr-default.h
FN:238,_ZL18__gthread_active_pv
FNDA:0,_ZL18__gthread_active_pv
FNF:1
FNH:0
DA:238,0
DA:242,0
LF:2
LH:0
end_of_record
SF:/usr/include/c++/4.4/iomanip
FN:238,_ZSt4setwi
FN:170,_ZSt7setfillIcESt8_SetfillIT_ES1_
FN:255,_ZStlsIcSt11char_traitsIcEERSt13basic_ostreamIT_T0_ES6_St5_Setw
FN:187,_ZStlsIcSt11char_traitsIcEERSt13basic_ostreamIT_T0_ES6_St8_SetfillIS3_E
FNDA:0,_ZSt7setfillIcESt8_SetfillIT_ES1_
FNDA:0,_ZStlsIcSt11char_traitsIcEERSt13basic_ostreamIT_T0_ES6_St8_SetfillIS3_E
FNDA:0,_ZSt4setwi
FNDA:0,_ZStlsIcSt11char_traitsIcEERSt13basic_ostreamIT_T0_ES6_St5_Setw
FNF:4
FNH:0
DA:170,0
DA:173,0
DA:187,0
DA:189,0
DA:190,0
DA:238,0
DA:241,0
DA:255,0
DA:257,0
DA:258,0
LF:10
LH:0
end_of_record
SF:/usr/include/c++/4.4/iosfwd
FN:63,_ZNSt15basic_stringbufIcSt11char_traitsIcESaIcEED1Ev
FNDA:0,_ZNSt15basic_stringbufIcSt11char_traitsIcESaIcEED1Ev
FNF:1
FNH:0
DA:63,0
BA:63,0
BA:63,0
LF:1
LH:0
end_of_record
SF:/usr/include/c++/4.4/iostream
DA:72,17
LF:1
LH:1
end_of_record
SF:/usr/include/c++/4.4/istream
FN:581,_ZNSiC2Ev
FN:101,_ZNSiD2Ev
FN:798,_ZNSdC2Ev
FN:795,_ZNSdD2Ev
FNDA:0,_ZNSiD2Ev
FNDA:0,_ZNSiC2Ev
FNDA:0,_ZNSdD2Ev
FNDA:0,_ZNSdC2Ev
FNF:4
FNH:0
DA:101,0
DA:102,0
DA:581,0
DA:582,0
DA:583,0
DA:795,0
DA:798,0
DA:799,0
BA:102,0
BA:102,0
BA:102,0
BA:102,0
BA:795,0
BA:795,0
BA:795,0
BA:795,0
BA:795,0
BA:795,0
LF:8
LH:0
end_of_record
SF:/usr/include/c++/4.4/ostream
FN:361,_ZNSoC2Ev
FN:91,_ZNSoD2Ev
FN:191,_ZNSolsEj
FN:505,_ZStlsISt11char_traitsIcEERSt13basic_ostreamIcT_ES5_PKc
FNDA:0,_ZNSoD2Ev
FNDA:0,_ZNSolsEj
FNDA:0,_ZNSoC2Ev
FNDA:0,_ZStlsISt11char_traitsIcEERSt13basic_ostreamIcT_ES5_PKc
FNF:4
FNH:0
DA:91,0
DA:191,0
DA:195,0
DA:361,0
DA:362,0
DA:505,0
DA:507,0
DA:508,0
DA:510,0
DA:512,0
BA:91,0
BA:91,0
BA:91,0
BA:91,0
BA:507,0
BA:507,0
LF:10
LH:0
end_of_record
SF:/usr/include/c++/4.4/sstream
FN:92,_ZNSt15basic_stringbufIcSt11char_traitsIcESaIcEEC1ESt13_Ios_Openmode
FN:510,_ZNSt18basic_stringstreamIcSt11char_traitsIcESaIcEEC1ESt13_Ios_Openmode
FN:537,_ZNSt18basic_stringstreamIcSt11char_traitsIcESaIcEED1Ev
FN:120,_ZNKSt15basic_stringbufIcSt11char_traitsIcESaIcEE3strEv
FN:556,_ZNKSt18basic_stringstreamIcSt11char_traitsIcESaIcEE3strEv
FNDA:0,_ZNSt15basic_stringbufIcSt11char_traitsIcESaIcEEC1ESt13_Ios_Openmode
FNDA:0,_ZNKSt15basic_stringbufIcSt11char_traitsIcESaIcEE3strEv
FNDA:0,_ZNSt18basic_stringstreamIcSt11char_traitsIcESaIcEEC1ESt13_Ios_Openmode
FNDA:0,_ZNSt18basic_stringstreamIcSt11char_traitsIcESaIcEED1Ev
FNDA:0,_ZNKSt18basic_stringstreamIcSt11char_traitsIcESaIcEE3strEv
FNF:5
FNH:0
DA:92,0
DA:93,0
DA:94,0
DA:120,0
DA:122,0
DA:123,0
DA:126,0
DA:127,0
DA:129,0
DA:132,0
DA:133,0
DA:510,0
DA:511,0
DA:512,0
DA:537,0
DA:538,0
DA:556,0
DA:557,0
BA:123,0
BA:123,0
BA:126,0
BA:126,0
BA:538,0
BA:538,0
BA:538,0
BA:538,0
BA:538,0
BA:538,0
LF:18
LH:0
end_of_record
SF:/usr/include/c++/4.4/streambuf
FN:508,_ZNKSt15basic_streambufIcSt11char_traitsIcEE4pptrEv
FN:464,_ZNKSt15basic_streambufIcSt11char_traitsIcEE5egptrEv
FN:505,_ZNKSt15basic_streambufIcSt11char_traitsIcEE5pbaseEv
FN:439,_ZNSt15basic_streambufIcSt11char_traitsIcEEC2Ev
FN:192,_ZNSt15basic_streambufIcSt11char_traitsIcEED2Ev
FNDA:0,_ZNSt15basic_streambufIcSt11char_traitsIcEED2Ev
FNDA:0,_ZNSt15basic_streambufIcSt11char_traitsIcEEC2Ev
FNDA:0,_ZNKSt15basic_streambufIcSt11char_traitsIcEE5egptrEv
FNDA:0,_ZNKSt15basic_streambufIcSt11char_traitsIcEE5pbaseEv
FNDA:0,_ZNKSt15basic_streambufIcSt11char_traitsIcEE4pptrEv
FNF:5
FNH:0
DA:192,0
DA:193,0
DA:439,0
DA:442,0
DA:443,0
DA:464,0
DA:505,0
DA:508,0
BA:193,0
BA:193,0
LF:8
LH:0
end_of_record
SF:/usr/include/gtkmm-2.4/gtkmm/papersize.h
DA:37,17
DA:38,17
DA:39,17
DA:40,17
DA:41,17
DA:42,17
DA:43,17
LF:7
LH:7
end_of_record
SF:/home/frechilla/workspace/headless/blockem_sourceforge/src/gui_stop_watch_label.cpp
FN:136,_Z41__static_initialization_and_destruction_0ii
FN:136,_GLOBAL__I__ZN14StopWatchLabelC2EjSs
FN:85,_ZN14StopWatchLabel12UpdateWidgetEb
FN:123,_ZN14StopWatchLabel13timerCallbackEPv
FN:74,_ZN14StopWatchLabel4StopEv
FN:66,_ZN14StopWatchLabel8ContinueEv
FN:57,_ZN14StopWatchLabel5ResetEv
FN:52,_ZN14StopWatchLabelD0Ev
FN:52,_ZN14StopWatchLabelD1Ev
FN:52,_ZN14StopWatchLabelD2Ev
FN:34,_ZN14StopWatchLabelC1EjSs
FN:34,_ZN14StopWatchLabelC2EjSs
FNDA:0,_ZN14StopWatchLabelC1EjSs
FNDA:0,_ZN14StopWatchLabelC2EjSs
FNDA:0,_ZN14StopWatchLabelD0Ev
FNDA:0,_ZN14StopWatchLabelD1Ev
FNDA:0,_ZN14StopWatchLabelD2Ev
FNDA:0,_ZN14StopWatchLabel5ResetEv
FNDA:0,_ZN14StopWatchLabel8ContinueEv
FNDA:0,_ZN14StopWatchLabel4StopEv
FNDA:0,_ZN14StopWatchLabel12UpdateWidgetEb
FNDA:0,_ZN14StopWatchLabel13timerCallbackEPv
FNDA:17,_Z41__static_initialization_and_destruction_0ii
FNDA:17,_GLOBAL__I__ZN14StopWatchLabelC2EjSs
FNF:12
FNH:2
DA:34,0
DA:38,0
DA:40,0
DA:41,0
DA:47,0
DA:49,0
DA:50,0
DA:52,0
DA:54,0
DA:55,0
DA:57,0
DA:59,0
DA:60,0
DA:61,0
DA:63,0
DA:64,0
DA:66,0
DA:68,0
DA:69,0
DA:71,0
DA:72,0
DA:74,0
DA:76,0
DA:78,0
DA:79,0
DA:81,0
DA:83,0
DA:85,0
DA:90,0
DA:92,0
DA:93,0
DA:95,0
DA:96,0
DA:98,0
DA:100,0
DA:103,0
DA:104,0
DA:106,0
DA:108,0
DA:109,0
DA:112,0
DA:114,0
DA:115,0
DA:119,0
DA:120,0
DA:121,0
DA:123,0
DA:125,0
DA:127,0
DA:130,0
DA:133,0
DA:135,0
DA:136,51
BA:55,0
BA:55,0
BA:55,0
BA:55,0
BA:55,0
BA:55,0
BA:55,0
BA:55,0
BA:55,0
BA:55,0
BA:55,0
BA:55,0
BA:55,0
BA:55,0
BA:55,0
BA:55,0
BA:55,0
BA:55,0
BA:55,0
BA:55,0
BA:55,0
BA:55,0
BA:55,0
BA:55,0
BA:55,0
BA:55,0
BA:55,0
BA:55,0
BA:55,0
BA:55,0
BA:76,0
BA:76,0
BA:98,0
BA:98,0
BA:106,0
BA:106,0
BA:112,0
BA:112,0
BA:127,0
BA:127,0
BA:136,2
BA:136,1
BA:136,2
BA:136,1
LF:53
LH:1
end_of_record
TN:
SF:/usr/include/c++/4.4/bits/allocator.h
FN:167,_ZNSt11__alloc_neqISaISt10_List_nodeISt6vectorI10CoordinateSaIS2_EEEELb1EE8_S_do_itERKS6_S9_
FN:167,_ZNSt11__alloc_neqISaISt10_List_nodeIyEELb1EE8_S_do_itERKS2_S5_
FN:121,_ZSteqIcEbRKSaIT_ES3_
FN:101,_ZNSaIcEC1Ev
FN:109,_ZNSaIcED1Ev
FN:103,_ZNSaIcEC1ERKS_
FN:109,_ZNSaIcED2Ev
FN:103,_ZNSaIcEC2ERKS_
FN:107,_ZNSaISt6vectorI10CoordinateSaIS0_EEEC1ISt10_List_nodeIS2_EEERKSaIT_E
FN:109,_ZNSaI10CoordinateED2Ev
FN:109,_ZNSaISt6vectorI10CoordinateSaIS0_EEED1Ev
FN:107,_ZNSaISt10_List_nodeISt6vectorI10CoordinateSaIS1_EEEEC1IS3_EERKSaIT_E
FN:103,_ZNSaISt10_List_nodeISt6vectorI10CoordinateSaIS1_EEEEC2ERKS5_
FN:109,_ZNSaISt10_List_nodeISt6vectorI10CoordinateSaIS1_EEEED1Ev
FN:109,_ZNSaISt10_List_nodeISt6vectorI10CoordinateSaIS1_EEEED2Ev
FN:103,_ZNSaI10CoordinateEC2ERKS0_
FN:107,_ZNSaIyEC1ISt10_List_nodeIyEEERKSaIT_E
FN:109,_ZNSaIyED1Ev
FN:107,_ZNSaISt10_List_nodeIyEEC1IyEERKSaIT_E
FN:103,_ZNSaISt10_List_nodeIyEEC2ERKS1_
FN:109,_ZNSaISt10_List_nodeIyEED1Ev
FN:109,_ZNSaISt10_List_nodeIyEED2Ev
FN:107,_ZNSaIPN10MainWindow16CalculatedMove_tEEC1IS0_EERKSaIT_E
FN:109,_ZNSaIPN10MainWindow16CalculatedMove_tEED1Ev
FN:109,_ZNSaIN10MainWindow16CalculatedMove_tEED2Ev
FN:101,_ZNSaIN10MainWindow16CalculatedMove_tEEC2Ev
FN:103,_ZNSaIN10MainWindow16CalculatedMove_tEEC2ERKS1_
FNDA:0,_ZNSaIcEC1Ev
FNDA:0,_ZNSaIN10MainWindow16CalculatedMove_tEEC2Ev
FNDA:0,_ZNSaIcEC1ERKS_
FNDA:0,_ZNSaIcEC2ERKS_
FNDA:0,_ZNSaISt10_List_nodeISt6vectorI10CoordinateSaIS1_EEEEC2ERKS5_
FNDA:0,_ZNSaI10CoordinateEC2ERKS0_
FNDA:0,_ZNSaISt10_List_nodeIyEEC2ERKS1_
FNDA:0,_ZNSaIN10MainWindow16CalculatedMove_tEEC2ERKS1_
FNDA:0,_ZNSaISt6vectorI10CoordinateSaIS0_EEEC1ISt10_List_nodeIS2_EEERKSaIT_E
FNDA:0,_ZNSaISt10_List_nodeISt6vectorI10CoordinateSaIS1_EEEEC1IS3_EERKSaIT_E
FNDA:0,_ZNSaIyEC1ISt10_List_nodeIyEEERKSaIT_E
FNDA:0,_ZNSaISt10_List_nodeIyEEC1IyEERKSaIT_E
FNDA:0,_ZNSaIPN10MainWindow16CalculatedMove_tEEC1IS0_EERKSaIT_E
FNDA:0,_ZNSaIcED1Ev
FNDA:0,_ZNSaIcED2Ev
FNDA:0,_ZNSaI10CoordinateED2Ev
FNDA:0,_ZNSaISt6vectorI10CoordinateSaIS0_EEED1Ev
FNDA:0,_ZNSaISt10_List_nodeISt6vectorI10CoordinateSaIS1_EEEED1Ev
FNDA:0,_ZNSaISt10_List_nodeISt6vectorI10CoordinateSaIS1_EEEED2Ev
FNDA:0,_ZNSaIyED1Ev
FNDA:0,_ZNSaISt10_List_nodeIyEED1Ev
FNDA:0,_ZNSaISt10_List_nodeIyEED2Ev
FNDA:0,_ZNSaIPN10MainWindow16CalculatedMove_tEED1Ev
FNDA:0,_ZNSaIN10MainWindow16CalculatedMove_tEED2Ev
FNDA:0,_ZSteqIcEbRKSaIT_ES3_
FNDA:0,_ZNSt11__alloc_neqISaISt10_List_nodeISt6vectorI10CoordinateSaIS2_EEEELb1EE8_S_do_itERKS6_S9_
FNDA:0,_ZNSt11__alloc_neqISaISt10_List_nodeIyEELb1EE8_S_do_itERKS2_S5_
FNF:27
FNH:0
DA:101,0
DA:103,0
DA:104,0
DA:107,0
DA:109,0
DA:121,0
DA:122,0
DA:167,0
DA:168,0
LF:9
LH:0
end_of_record
SF:/usr/include/c++/4.4/bits/basic_ios.h
FN:127,_ZNKSt9basic_iosIcSt11char_traitsIcEE7rdstateEv
FN:450,_ZNSt9basic_iosIcSt11char_traitsIcEEC2Ev
FN:272,_ZNSt9basic_iosIcSt11char_traitsIcEED2Ev
FN:46,_ZSt13__check_facetISt5ctypeIcEERKT_PS3_
FN:439,_ZNKSt9basic_iosIcSt11char_traitsIcEE5widenEc
FN:360,_ZNKSt9basic_iosIcSt11char_traitsIcEE4fillEv
FN:380,_ZNSt9basic_iosIcSt11char_traitsIcEE4fillEc
FN:147,_ZNSt9basic_iosIcSt11char_traitsIcEE8setstateESt12_Ios_Iostate
FNDA:0,_ZSt13__check_facetISt5ctypeIcEERKT_PS3_
FNDA:0,_ZNKSt9basic_iosIcSt11char_traitsIcEE7rdstateEv
FNDA:0,_ZNSt9basic_iosIcSt11char_traitsIcEE8setstateESt12_Ios_Iostate
FNDA:0,_ZNSt9basic_iosIcSt11char_traitsIcEED2Ev
FNDA:0,_ZNKSt9basic_iosIcSt11char_traitsIcEE4fillEv
FNDA:0,_ZNSt9basic_iosIcSt11char_traitsIcEE4fillEc
FNDA:0,_ZNKSt9basic_iosIcSt11char_traitsIcEE5widenEc
FNDA:0,_ZNSt9basic_iosIcSt11char_traitsIcEEC2Ev
FNF:8
FNH:0
DA:46,0
DA:48,0
DA:49,0
DA:50,0
DA:127,0
DA:128,0
DA:147,0
DA:148,0
DA:272,0
DA:360,0
DA:362,0
DA:364,0
DA:365,0
DA:367,0
DA:380,0
DA:382,0
DA:383,0
DA:384,0
DA:439,0
DA:440,0
DA:450,0
DA:452,0
DA:453,0
BA:48,0
BA:48,0
BA:272,0
BA:272,0
BA:362,0
BA:362,0
LF:23
LH:0
end_of_record
SF:/usr/include/c++/4.4/bits/basic_string.h
FN:272,_ZNKSs7_M_dataEv
FN:280,_ZNKSs6_M_repEv
FN:1615,_ZNKSs5c_strEv
FN:209,_ZNSs4_Rep10_M_refdataEv
FN:1625,_ZNKSs4dataEv
FN:623,_ZNKSs4sizeEv
FN:173,_ZNSs4_Rep12_S_empty_repEv
FN:406,_ZNSs12_S_empty_repEv
FN:195,_ZNSs4_Rep15_M_set_sharableEv
FN:199,_ZNSs4_Rep26_M_set_length_and_sharableEj
FN:1632,_ZNKSs13get_allocatorEv
FN:253,_ZNSs12_Alloc_hiderD1Ev
FN:254,_ZNSs12_Alloc_hiderC1EPcRKSaIcE
FN:2147,_ZNSsC1Ev
FN:224,_ZNSs4_Rep10_M_disposeERKSaIcE
FN:497,_ZNSsD1Ev
FN:2164,_ZStplIcSt11char_traitsIcESaIcEESbIT_T0_T1_ERKS6_S8_
FN:2501,_ZStlsIcSt11char_traitsIcESaIcEERSt13basic_ostreamIT_T0_ES7_RKSbIS4_S5_T1_E
FN:334,_ZNSs7_M_copyEPcPKcj
FN:379,_ZNSs13_S_copy_charsEPcS_S_
FN:1542,_ZNSs16_S_construct_auxIPcEES0_T_S1_RKSaIcESt12__false_type
FN:1559,_ZNSs12_S_constructIPcEES0_T_S1_RKSaIcE
FN:505,_ZNSsaSERKSs
FNDA:0,_ZNSs4_Rep12_S_empty_repEv
FNDA:0,_ZNSs4_Rep15_M_set_sharableEv
FNDA:0,_ZNSs4_Rep26_M_set_length_and_sharableEj
FNDA:0,_ZNSs4_Rep10_M_refdataEv
FNDA:0,_ZNSs4_Rep10_M_disposeERKSaIcE
FNDA:0,_ZNSs12_Alloc_hiderD1Ev
FNDA:0,_ZNSs12_Alloc_hiderC1EPcRKSaIcE
FNDA:0,_ZNKSs7_M_dataEv
FNDA:0,_ZNKSs6_M_repEv
FNDA:0,_ZNSs7_M_copyEPcPKcj
FNDA:0,_ZNSs13_S_copy_charsEPcS_S_
FNDA:0,_ZNSs12_S_empty_repEv
FNDA:0,_ZNSsD1Ev
FNDA:0,_ZNSsaSERKSs
FNDA:0,_ZNKSs4sizeEv
FNDA:0,_ZNSs16_S_construct_auxIPcEES0_T_S1_RKSaIcESt12__false_type
FNDA:0,_ZNSs12_S_constructIPcEES0_T_S1_RKSaIcE
FNDA:0,_ZNKSs5c_strEv
FNDA:0,_ZNKSs4dataEv
FNDA:0,_ZNKSs13get_allocatorEv
FNDA:0,_ZNSsC1Ev
FNDA:0,_ZStplIcSt11char_traitsIcESaIcEESbIT_T0_T1_ERKS6_S8_
FNDA:0,_ZStlsIcSt11char_traitsIcESaIcEERSt13basic_ostreamIT_T0_ES7_RKSbIS4_S5_T1_E
FNF:23
FNH:0
DA:173,0
DA:178,0
DA:179,0
DA:195,0
DA:196,0
DA:199,0
DA:201,0
DA:202,0
DA:203,0
DA:206,0
DA:209,0
DA:210,0
DA:224,0
DA:227,0
DA:229,0
DA:231,0
DA:232,0
DA:253,0
DA:254,0
DA:255,0
DA:272,0
DA:273,0
DA:280,0
DA:281,0
DA:334,0
DA:336,0
DA:337,0
DA:339,0
DA:340,0
DA:379,0
DA:380,0
DA:406,0
DA:407,0
DA:497,0
DA:498,0
DA:505,0
DA:506,0
DA:623,0
DA:624,0
DA:1542,0
DA:1546,0
DA:1559,0
DA:1562,0
DA:1615,0
DA:1616,0
DA:1625,0
DA:1626,0
DA:1632,0
DA:1633,0
DA:2147,0
DA:2150,0
DA:2164,0
DA:2167,0
DA:2168,0
DA:2169,0
DA:2501,0
DA:2506,0
BA:227,0
BA:227,0
BA:229,0
BA:229,0
BA:336,0
BA:336,0
LF:57
LH:0
end_of_record
SF:/usr/include/c++/4.4/bits/basic_string.tcc
FN:123,_ZNSs12_S_constructIPcEES0_T_S1_RKSaIcESt20forward_iterator_tag
FN:228,_ZNSsC1IPcEET_S1_RKSaIcE
FNDA:0,_ZNSs12_S_constructIPcEES0_T_S1_RKSaIcESt20forward_iterator_tag
FNDA:0,_ZNSsC1IPcEET_S1_RKSaIcE
FNF:2
FNH:0
DA:123,0
DA:128,0
DA:129,0
DA:132,0
DA:134,0
DA:137,0
DA:139,0
DA:141,0
DA:142,0
DA:144,0
DA:145,0
DA:147,0
DA:148,0
DA:228,0
DA:230,0
DA:231,0
BA:128,0
BA:128,0
BA:128,0
BA:128,0
BA:128,0
BA:128,0
BA:128,0
BA:128,0
BA:128,0
BA:128,0
BA:132,0
BA:132,0
BA:132,0
BA:132,0
BA:132,0
BA:132,0
LF:16
LH:0
end_of_record
SF:/usr/include/c++/4.4/bits/char_traits.h
FN:246,_ZNSt11char_traitsIcE6assignERcRKc
FN:262,_ZNSt11char_traitsIcE6lengthEPKc
FN:274,_ZNSt11char_traitsIcE4copyEPcPKcj
FNDA:0,_ZNSt11char_traitsIcE6assignERcRKc
FNDA:0,_ZNSt11char_traitsIcE6lengthEPKc
FNDA:0,_ZNSt11char_traitsIcE4copyEPcPKcj
FNF:3
FNH:0
DA:246,0
DA:247,0
DA:262,0
DA:263,0
DA:274,0
DA:275,0
LF:6
LH:0
end_of_record
SF:/usr/include/c++/4.4/bits/deque.tcc
FN:441,_ZNSt5dequeIN10MainWindow16CalculatedMove_tESaIS1_EE16_M_pop_front_auxEv
FN:723,_ZNSt5dequeIN10MainWindow16CalculatedMove_tESaIS1_EE19_M_destroy_data_auxESt15_Deque_iteratorIS1_RS1_PS1_ES7_
FN:795,_ZNSt5dequeIN10MainWindow16CalculatedMove_tESaIS1_EE17_M_reallocate_mapEjb
FN:364,_ZNSt5dequeIN10MainWindow16CalculatedMove_tESaIS1_EE16_M_push_back_auxERKS1_
FNDA:0,_ZNSt5dequeIN10MainWindow16CalculatedMove_tESaIS1_EE16_M_push_back_auxERKS1_
FNDA:0,_ZNSt5dequeIN10MainWindow16CalculatedMove_tESaIS1_EE16_M_pop_front_auxEv
FNDA:0,_ZNSt5dequeIN10MainWindow16CalculatedMove_tESaIS1_EE19_M_destroy_data_auxESt15_Deque_iteratorIS1_RS1_PS1_ES7_
FNDA:0,_ZNSt5dequeIN10MainWindow16CalculatedMove_tESaIS1_EE17_M_reallocate_mapEjb
FNF:4
FNH:0
DA:364,0
DA:368,0
DA:369,0
DA:376,0
DA:378,0
DA:380,0
DA:382,0
DA:384,0
DA:385,0
DA:387,0
DA:441,0
DA:444,0
DA:445,0
DA:446,0
DA:447,0
DA:448,0
DA:723,0
DA:726,0
DA:728,0
DA:731,0
DA:733,0
DA:735,0
DA:739,0
DA:741,0
DA:795,0
DA:799,0
DA:800,0
DA:803,0
DA:805,0
DA:808,0
DA:809,0
DA:813,0
DA:821,0
DA:823,0
DA:824,0
DA:826,0
DA:829,0
DA:831,0
DA:832,0
DA:835,0
DA:836,0
DA:837,0
BA:726,0
BA:726,0
BA:731,0
BA:731,0
BA:803,0
BA:803,0
BA:805,0
BA:805,0
BA:808,0
BA:808,0
BA:824,0
BA:824,0
LF:42
LH:0
end_of_record
SF:/usr/include/c++/4.4/bits/ios_base.h
FN:124,_ZStanSt13_Ios_OpenmodeS_
FN:128,_ZStorSt13_Ios_OpenmodeS_
FN:166,_ZStorSt12_Ios_IostateS_
FN:657,_ZNSt8ios_base5widthEi
FNDA:0,_ZStanSt13_Ios_OpenmodeS_
FNDA:0,_ZStorSt13_Ios_OpenmodeS_
FNDA:0,_ZStorSt12_Ios_IostateS_
FNDA:0,_ZNSt8ios_base5widthEi
FNF:4
FNH:0
DA:124,0
DA:125,0
DA:128,0
DA:129,0
DA:166,0
DA:167,0
DA:657,0
DA:659,0
DA:660,0
DA:661,0
LF:10
LH:0
end_of_record
SF:/usr/include/c++/4.4/bits/list.tcc
FN:64,_ZNSt10_List_baseISt6vectorI10CoordinateSaIS1_EESaIS3_EE8_M_clearEv
FN:64,_ZNSt10_List_baseIySaIyEE8_M_clearEv
FN:107,_ZNSt4listISt6vectorI10CoordinateSaIS1_EESaIS3_EE5eraseESt14_List_iteratorIS3_E
FN:107,_ZNSt4listIySaIyEE5eraseESt14_List_iteratorIyE
FN:132,_ZNSt4listISt6vectorI10CoordinateSaIS1_EESaIS3_EEaSERKS5_
FN:132,_ZNSt4listIySaIyEEaSERKS1_
FNDA:0,_ZNSt10_List_baseISt6vectorI10CoordinateSaIS1_EESaIS3_EE8_M_clearEv
FNDA:0,_ZNSt10_List_baseIySaIyEE8_M_clearEv
FNDA:0,_ZNSt4listISt6vectorI10CoordinateSaIS1_EESaIS3_EE5eraseESt14_List_iteratorIS3_E
FNDA:0,_ZNSt4listIySaIyEE5eraseESt14_List_iteratorIyE
FNDA:0,_ZNSt4listISt6vectorI10CoordinateSaIS1_EESaIS3_EEaSERKS5_
FNDA:0,_ZNSt4listIySaIyEEaSERKS1_
FNF:6
FNH:0
DA:64,0
DA:68,0
DA:69,0
DA:71,0
DA:72,0
DA:76,0
DA:78,0
DA:80,0
DA:107,0
DA:110,0
DA:111,0
DA:132,0
DA:135,0
DA:137,0
DA:138,0
DA:139,0
DA:140,0
DA:141,0
DA:143,0
DA:144,0
DA:145,0
DA:147,0
DA:149,0
BA:69,0
BA:69,0
BA:69,0
BA:69,0
BA:135,0
BA:135,0
BA:135,0
BA:135,0
BA:141,0
BA:141,0
BA:141,0
BA:141,0
BA:141,0
BA:141,0
BA:141,0
BA:141,0
BA:141,0
BA:141,0
BA:141,0
BA:141,0
BA:144,0
BA:144,0
BA:144,0
BA:144,0
LF:23
LH:0
end_of_record
SF:/usr/include/c++/4.4/bits/locale_facets.h
FN:865,_ZNKSt5ctypeIcE5widenEc
FNDA:0,_ZNKSt5ctypeIcE5widenEc
FNF:1
FNH:0
DA:865,0
DA:867,0
DA:868,0
DA:869,0
DA:870,0
BA:867,0
BA:867,0
LF:5
LH:0
end_of_record
SF:/usr/include/c++/4.4/bits/stl_algobase.h
FN:287,_ZNSt12__miter_baseIN9__gnu_cxx17__normal_iteratorIPK10CoordinateSt6vectorIS2_SaIS2_EEEELb0EE3__bES8_
FN:287,_ZNSt12__miter_baseIP10CoordinateLb0EE3__bES1_
FN:269,_ZNSt12__niter_baseIP10CoordinateLb0EE3__bES1_
FN:209,_ZSt3maxIjERKT_S2_S2_
FN:277,_ZNSt12__niter_baseIN9__gnu_cxx17__normal_iteratorIPK10CoordinateSt6vectorIS2_SaIS2_EEEELb1EE3__bES8_
FN:277,_ZNSt12__niter_baseIN9__gnu_cxx17__normal_iteratorIP10CoordinateSt6vectorIS2_SaIS2_EEEELb1EE3__bES7_
FN:338,_ZNSt11__copy_moveILb0ELb0ESt26random_access_iterator_tagE8__copy_mIPK10CoordinatePS3_EET0_T_S8_S7_
FN:386,_ZSt13__copy_move_aILb0EPK10CoordinatePS0_ET1_T0_S5_S4_
FN:431,_ZSt14__copy_move_a2ILb0EN9__gnu_cxx17__normal_iteratorIPK10CoordinateSt6vectorIS2_SaIS2_EEEENS1_IPS2_S7_EEET1_T0_SC_SB_
FN:458,_ZSt4copyIN9__gnu_cxx17__normal_iteratorIPK10CoordinateSt6vectorIS2_SaIS2_EEEENS1_IPS2_S7_EEET0_T_SC_SB_
FN:338,_ZNSt11__copy_moveILb0ELb0ESt26random_access_iterator_tagE8__copy_mIP10CoordinateS4_EET0_T_S6_S5_
FN:386,_ZSt13__copy_move_aILb0EP10CoordinateS1_ET1_T0_S3_S2_
FN:431,_ZSt14__copy_move_a2ILb0EP10CoordinateS1_ET1_T0_S3_S2_
FN:458,_ZSt4copyIP10CoordinateS1_ET0_T_S3_S2_
FN:287,_ZNSt12__miter_baseIPPN10MainWindow16CalculatedMove_tELb0EE3__bES3_
FN:269,_ZNSt12__niter_baseIPPN10MainWindow16CalculatedMove_tELb0EE3__bES3_
FN:572,_ZNSt20__copy_move_backwardILb0ELb1ESt26random_access_iterator_tagE13__copy_move_bIPN10MainWindow16CalculatedMove_tEEEPT_PKS6_S9_S7_
FN:582,_ZSt22__copy_move_backward_aILb0EPPN10MainWindow16CalculatedMove_tES3_ET1_T0_S5_S4_
FN:600,_ZSt23__copy_move_backward_a2ILb0EPPN10MainWindow16CalculatedMove_tES3_ET1_T0_S5_S4_
FN:628,_ZSt13copy_backwardIPPN10MainWindow16CalculatedMove_tES3_ET0_T_S5_S4_
FN:376,_ZNSt11__copy_moveILb0ELb1ESt26random_access_iterator_tagE8__copy_mIPN10MainWindow16CalculatedMove_tEEEPT_PKS6_S9_S7_
FN:386,_ZSt13__copy_move_aILb0EPPN10MainWindow16CalculatedMove_tES3_ET1_T0_S5_S4_
FN:431,_ZSt14__copy_move_a2ILb0EPPN10MainWindow16CalculatedMove_tES3_ET1_T0_S5_S4_
FN:458,_ZSt4copyIPPN10MainWindow16CalculatedMove_tES3_ET0_T_S5_S4_
FNDA:0,_ZSt3maxIjERKT_S2_S2_
FNDA:0,_ZNSt12__niter_baseIP10CoordinateLb0EE3__bES1_
FNDA:0,_ZNSt12__niter_baseIPPN10MainWindow16CalculatedMove_tELb0EE3__bES3_
FNDA:0,_ZNSt12__niter_baseIN9__gnu_cxx17__normal_iteratorIPK10CoordinateSt6vectorIS2_SaIS2_EEEELb1EE3__bES8_
FNDA:0,_ZNSt12__niter_baseIN9__gnu_cxx17__normal_iteratorIP10CoordinateSt6vectorIS2_SaIS2_EEEELb1EE3__bES7_
FNDA:0,_ZNSt12__miter_baseIN9__gnu_cxx17__normal_iteratorIPK10CoordinateSt6vectorIS2_SaIS2_EEEELb0EE3__bES8_
FNDA:0,_ZNSt12__miter_baseIP10CoordinateLb0EE3__bES1_
FNDA:0,_ZNSt12__miter_baseIPPN10MainWindow16CalculatedMove_tELb0EE3__bES3_
FNDA:0,_ZNSt11__copy_moveILb0ELb0ESt26random_access_iterator_tagE8__copy_mIPK10CoordinatePS3_EET0_T_S8_S7_
FNDA:0,_ZNSt11__copy_moveILb0ELb0ESt26random_access_iterator_tagE8__copy_mIP10CoordinateS4_EET0_T_S6_S5_
FNDA:0,_ZNSt11__copy_moveILb0ELb1ESt26random_access_iterator_tagE8__copy_mIPN10MainWindow16CalculatedMove_tEEEPT_PKS6_S9_S7_
FNDA:0,_ZSt13__copy_move_aILb0EPK10CoordinatePS0_ET1_T0_S5_S4_
FNDA:0,_ZSt13__copy_move_aILb0EP10CoordinateS1_ET1_T0_S3_S2_
FNDA:0,_ZSt13__copy_move_aILb0EPPN10MainWindow16CalculatedMove_tES3_ET1_T0_S5_S4_
FNDA:0,_ZSt14__copy_move_a2ILb0EN9__gnu_cxx17__normal_iteratorIPK10CoordinateSt6vectorIS2_SaIS2_EEEENS1_IPS2_S7_EEET1_T0_SC_SB_
FNDA:0,_ZSt14__copy_move_a2ILb0EP10CoordinateS1_ET1_T0_S3_S2_
FNDA:0,_ZSt14__copy_move_a2ILb0EPPN10MainWindow16CalculatedMove_tES3_ET1_T0_S5_S4_
FNDA:0,_ZSt4copyIN9__gnu_cxx17__normal_iteratorIPK10CoordinateSt6vectorIS2_SaIS2_EEEENS1_IPS2_S7_EEET0_T_SC_SB_
FNDA:0,_ZSt4copyIP10CoordinateS1_ET0_T_S3_S2_
FNDA:0,_ZSt4copyIPPN10MainWindow16CalculatedMove_tES3_ET0_T_S5_S4_
FNDA:0,_ZNSt20__copy_move_backwardILb0ELb1ESt26random_access_iterator_tagE13__copy_move_bIPN10MainWindow16CalculatedMove_tEEEPT_PKS6_S9_S7_
FNDA:0,_ZSt22__copy_move_backward_aILb0EPPN10MainWindow16CalculatedMove_tES3_ET1_T0_S5_S4_
FNDA:0,_ZSt23__copy_move_backward_a2ILb0EPPN10MainWindow16CalculatedMove_tES3_ET1_T0_S5_S4_
FNDA:0,_ZSt13copy_backwardIPPN10MainWindow16CalculatedMove_tES3_ET0_T_S5_S4_
FNF:24
FNH:0
DA:209,0
DA:214,0
DA:215,0
DA:216,0
DA:269,0
DA:270,0
DA:277,0
DA:278,0
DA:287,0
DA:288,0
DA:338,0
DA:341,0
DA:343,0
DA:344,0
DA:345,0
DA:347,0
DA:376,0
DA:378,0
DA:380,0
DA:386,0
DA:394,0
DA:397,0
DA:431,0
DA:436,0
DA:458,0
DA:468,0
DA:572,0
DA:574,0
DA:575,0
DA:576,0
DA:582,0
DA:590,0
DA:595,0
DA:600,0
DA:605,0
DA:628,0
DA:640,0
BA:214,0
BA:214,0
BA:341,0
BA:341,0
BA:341,0
BA:341,0
LF:37
LH:0
end_of_record
SF:/usr/include/c++/4.4/bits/stl_construct.h
FN:82,_ZSt8_DestroyI10CoordinateEvPT_
FN:90,_ZNSt12_Destroy_auxILb0EE9__destroyIP10CoordinateEEvT_S4_
FN:112,_ZSt8_DestroyIP10CoordinateEvT_S2_
FN:139,_ZSt8_DestroyIP10CoordinateS0_EvT_S2_RSaIT0_E
FN:90,_ZNSt12_Destroy_auxILb0EE9__destroyIN9__gnu_cxx17__normal_iteratorIP10CoordinateSt6vectorIS4_SaIS4_EEEEEEvT_SA_
FN:112,_ZSt8_DestroyIN9__gnu_cxx17__normal_iteratorIP10CoordinateSt6vectorIS2_SaIS2_EEEEEvT_S8_
FN:139,_ZSt8_DestroyIN9__gnu_cxx17__normal_iteratorIP10CoordinateSt6vectorIS2_SaIS2_EEEES2_EvT_S8_RSaIT0_E
FN:82,_ZSt8_DestroyIN10MainWindow16CalculatedMove_tEEvPT_
FN:90,_ZNSt12_Destroy_auxILb0EE9__destroyIPN10MainWindow16CalculatedMove_tEEEvT_S5_
FN:112,_ZSt8_DestroyIPN10MainWindow16CalculatedMove_tEEvT_S3_
FN:139,_ZSt8_DestroyIPN10MainWindow16CalculatedMove_tES1_EvT_S3_RSaIT0_E
FN:90,_ZNSt12_Destroy_auxILb0EE9__destroyISt15_Deque_iteratorIN10MainWindow16CalculatedMove_tERS4_PS4_EEEvT_S8_
FN:112,_ZSt8_DestroyISt15_Deque_iteratorIN10MainWindow16CalculatedMove_tERS2_PS2_EEvT_S6_
FNDA:0,_ZSt8_DestroyI10CoordinateEvPT_
FNDA:0,_ZSt8_DestroyIN10MainWindow16CalculatedMove_tEEvPT_
FNDA:0,_ZNSt12_Destroy_auxILb0EE9__destroyIP10CoordinateEEvT_S4_
FNDA:0,_ZNSt12_Destroy_auxILb0EE9__destroyIN9__gnu_cxx17__normal_iteratorIP10CoordinateSt6vectorIS4_SaIS4_EEEEEEvT_SA_
FNDA:0,_ZNSt12_Destroy_auxILb0EE9__destroyIPN10MainWindow16CalculatedMove_tEEEvT_S5_
FNDA:0,_ZNSt12_Destroy_auxILb0EE9__destroyISt15_Deque_iteratorIN10MainWindow16CalculatedMove_tERS4_PS4_EEEvT_S8_
FNDA:0,_ZSt8_DestroyIP10CoordinateEvT_S2_
FNDA:0,_ZSt8_DestroyIN9__gnu_cxx17__normal_iteratorIP10CoordinateSt6vectorIS2_SaIS2_EEEEEvT_S8_
FNDA:0,_ZSt8_DestroyIPN10MainWindow16CalculatedMove_tEEvT_S3_
FNDA:0,_ZSt8_DestroyISt15_Deque_iteratorIN10MainWindow16CalculatedMove_tERS2_PS2_EEvT_S6_
FNDA:0,_ZSt8_DestroyIP10CoordinateS0_EvT_S2_RSaIT0_E
FNDA:0,_ZSt8_DestroyIN9__gnu_cxx17__normal_iteratorIP10CoordinateSt6vectorIS2_SaIS2_EEEES2_EvT_S8_RSaIT0_E
FNDA:0,_ZSt8_DestroyIPN10MainWindow16CalculatedMove_tES1_EvT_S3_RSaIT0_E
FNF:13
FNH:0
DA:82,0
DA:83,0
DA:90,0
DA:92,0
DA:93,0
DA:94,0
DA:112,0
DA:116,0
DA:118,0
DA:139,0
DA:142,0
DA:143,0
BA:92,0
BA:92,0
BA:92,0
BA:92,0
BA:92,0
BA:92,0
BA:92,0
BA:92,0
LF:12
LH:0
end_of_record
SF:/usr/include/c++/4.4/bits/stl_deque.h
FN:78,_ZSt16__deque_buf_sizej
FN:430,_ZNSt11_Deque_baseIN10MainWindow16CalculatedMove_tESaIS1_EE19_M_get_Tp_allocatorEv
FN:123,_ZNSt15_Deque_iteratorIN10MainWindow16CalculatedMove_tERS1_PS1_EC1ERKS4_
FN:900,_ZNSt5dequeIN10MainWindow16CalculatedMove_tESaIS1_EE5beginEv
FN:917,_ZNSt5dequeIN10MainWindow16CalculatedMove_tESaIS1_EE3endEv
FN:434,_ZNKSt11_Deque_baseIN10MainWindow16CalculatedMove_tESaIS1_EE19_M_get_Tp_allocatorEv
FN:235,_ZSteqIN10MainWindow16CalculatedMove_tERS1_PS1_EbRKSt15_Deque_iteratorIT_T0_T1_ESA_
FN:1039,_ZNKSt5dequeIN10MainWindow16CalculatedMove_tESaIS1_EE5emptyEv
FN:128,_ZNKSt15_Deque_iteratorIN10MainWindow16CalculatedMove_tERS1_PS1_EdeEv
FN:1124,_ZNSt5dequeIN10MainWindow16CalculatedMove_tESaIS1_EE5frontEv
FN:120,_ZNSt15_Deque_iteratorIN10MainWindow16CalculatedMove_tERS1_PS1_EC1Ev
FN:665,_ZNSt5dequeIN10MainWindow16CalculatedMove_tESaIS1_EE14_S_buffer_sizeEv
FN:123,_ZNSt15_Deque_iteratorIN10MainWindow16CalculatedMove_tERKS1_PS2_EC1ERKS_IS1_RS1_PS1_E
FN:926,_ZNKSt5dequeIN10MainWindow16CalculatedMove_tESaIS1_EE3endEv
FN:908,_ZNKSt5dequeIN10MainWindow16CalculatedMove_tESaIS1_EE5beginEv
FN:99,_ZNSt15_Deque_iteratorIN10MainWindow16CalculatedMove_tERS1_PS1_E14_S_buffer_sizeEv
FN:319,_ZStmiIN10MainWindow16CalculatedMove_tERS1_PS1_ENSt15_Deque_iteratorIT_T0_T1_E15difference_typeERKS8_SB_
FN:1005,_ZNKSt5dequeIN10MainWindow16CalculatedMove_tESaIS1_EE4sizeEv
FN:222,_ZNSt15_Deque_iteratorIN10MainWindow16CalculatedMove_tERS1_PS1_E11_M_set_nodeEPS3_
FN:136,_ZNSt15_Deque_iteratorIN10MainWindow16CalculatedMove_tERS1_PS1_EppEv
FN:128,_ZNKSt15_Deque_iteratorIN10MainWindow16CalculatedMove_tERKS1_PS2_EdeEv
FN:235,_ZSteqIN10MainWindow16CalculatedMove_tERKS1_PS2_EbRKSt15_Deque_iteratorIT_T0_T1_ESB_
FN:248,_ZStneIN10MainWindow16CalculatedMove_tERKS1_PS2_EbRKSt15_Deque_iteratorIT_T0_T1_ESB_
FN:99,_ZNSt15_Deque_iteratorIN10MainWindow16CalculatedMove_tERKS1_PS2_E14_S_buffer_sizeEv
FN:222,_ZNSt15_Deque_iteratorIN10MainWindow16CalculatedMove_tERKS1_PS2_E11_M_set_nodeEPPS1_
FN:136,_ZNSt15_Deque_iteratorIN10MainWindow16CalculatedMove_tERKS1_PS2_EppEv
FN:248,_ZStneIN10MainWindow16CalculatedMove_tERS1_PS1_EbRKSt15_Deque_iteratorIT_T0_T1_ESA_
FN:448,_ZNSt11_Deque_baseIN10MainWindow16CalculatedMove_tESaIS1_EE18_M_deallocate_nodeEPS1_
FN:549,_ZNSt11_Deque_baseIN10MainWindow16CalculatedMove_tESaIS1_EE16_M_destroy_nodesEPPS1_S5_
FN:438,_ZNKSt11_Deque_baseIN10MainWindow16CalculatedMove_tESaIS1_EE20_M_get_map_allocatorEv
FN:458,_ZNSt11_Deque_baseIN10MainWindow16CalculatedMove_tESaIS1_EE17_M_deallocate_mapEPPS1_j
FN:412,_ZNSt11_Deque_baseIN10MainWindow16CalculatedMove_tESaIS1_EE11_Deque_implD1Ev
FN:471,_ZNSt11_Deque_baseIN10MainWindow16CalculatedMove_tESaIS1_EED2Ev
FN:418,_ZNSt11_Deque_baseIN10MainWindow16CalculatedMove_tESaIS1_EE11_Deque_implC1Ev
FN:423,_ZNSt11_Deque_baseIN10MainWindow16CalculatedMove_tESaIS1_EE11_Deque_implC1ERKS2_
FN:1232,_ZNSt5dequeIN10MainWindow16CalculatedMove_tESaIS1_EE9pop_frontEv
FN:1649,_ZNSt5dequeIN10MainWindow16CalculatedMove_tESaIS1_EE15_M_destroy_dataESt15_Deque_iteratorIS1_RS1_PS1_ES7_RKS2_
FN:789,_ZNSt5dequeIN10MainWindow16CalculatedMove_tESaIS1_EED1Ev
FN:454,_ZNSt11_Deque_baseIN10MainWindow16CalculatedMove_tESaIS1_EE15_M_allocate_mapEj
FN:442,_ZNSt11_Deque_baseIN10MainWindow16CalculatedMove_tESaIS1_EE16_M_allocate_nodeEv
FN:531,_ZNSt11_Deque_baseIN10MainWindow16CalculatedMove_tESaIS1_EE15_M_create_nodesEPPS1_S5_
FN:492,_ZNSt11_Deque_baseIN10MainWindow16CalculatedMove_tESaIS1_EE17_M_initialize_mapEj
FN:373,_ZNSt11_Deque_baseIN10MainWindow16CalculatedMove_tESaIS1_EEC2Ev
FN:690,_ZNSt5dequeIN10MainWindow16CalculatedMove_tESaIS1_EEC1Ev
FN:377,_ZNSt11_Deque_baseIN10MainWindow16CalculatedMove_tESaIS1_EEC2ERKS2_j
FN:722,_ZNSt5dequeIN10MainWindow16CalculatedMove_tESaIS1_EEC1ERKS3_
FN:1715,_ZNSt5dequeIN10MainWindow16CalculatedMove_tESaIS1_EE22_M_reserve_map_at_backEj
FN:1201,_ZNSt5dequeIN10MainWindow16CalculatedMove_tESaIS1_EE9push_backERKS1_
FNDA:0,_ZSt16__deque_buf_sizej
FNDA:0,_ZNSt15_Deque_iteratorIN10MainWindow16CalculatedMove_tERS1_PS1_E14_S_buffer_sizeEv
FNDA:0,_ZNSt15_Deque_iteratorIN10MainWindow16CalculatedMove_tERKS1_PS2_E14_S_buffer_sizeEv
FNDA:0,_ZNSt15_Deque_iteratorIN10MainWindow16CalculatedMove_tERS1_PS1_EC1Ev
FNDA:0,_ZNSt15_Deque_iteratorIN10MainWindow16CalculatedMove_tERS1_PS1_EC1ERKS4_
FNDA:0,_ZNSt15_Deque_iteratorIN10MainWindow16CalculatedMove_tERKS1_PS2_EC1ERKS_IS1_RS1_PS1_E
FNDA:0,_ZNKSt15_Deque_iteratorIN10MainWindow16CalculatedMove_tERS1_PS1_EdeEv
FNDA:0,_ZNKSt15_Deque_iteratorIN10MainWindow16CalculatedMove_tERKS1_PS2_EdeEv
FNDA:0,_ZNSt15_Deque_iteratorIN10MainWindow16CalculatedMove_tERS1_PS1_EppEv
FNDA:0,_ZNSt15_Deque_iteratorIN10MainWindow16CalculatedMove_tERKS1_PS2_EppEv
FNDA:0,_ZNSt15_Deque_iteratorIN10MainWindow16CalculatedMove_tERS1_PS1_E11_M_set_nodeEPS3_
FNDA:0,_ZNSt15_Deque_iteratorIN10MainWindow16CalculatedMove_tERKS1_PS2_E11_M_set_nodeEPPS1_
FNDA:0,_ZSteqIN10MainWindow16CalculatedMove_tERS1_PS1_EbRKSt15_Deque_iteratorIT_T0_T1_ESA_
FNDA:0,_ZSteqIN10MainWindow16CalculatedMove_tERKS1_PS2_EbRKSt15_Deque_iteratorIT_T0_T1_ESB_
FNDA:0,_ZStneIN10MainWindow16CalculatedMove_tERKS1_PS2_EbRKSt15_Deque_iteratorIT_T0_T1_ESB_
FNDA:0,_ZStneIN10MainWindow16CalculatedMove_tERS1_PS1_EbRKSt15_Deque_iteratorIT_T0_T1_ESA_
FNDA:0,_ZStmiIN10MainWindow16CalculatedMove_tERS1_PS1_ENSt15_Deque_iteratorIT_T0_T1_E15difference_typeERKS8_SB_
FNDA:0,_ZNSt11_Deque_baseIN10MainWindow16CalculatedMove_tESaIS1_EEC2Ev
FNDA:0,_ZNSt11_Deque_baseIN10MainWindow16CalculatedMove_tESaIS1_EEC2ERKS2_j
FNDA:0,_ZNSt11_Deque_baseIN10MainWindow16CalculatedMove_tESaIS1_EE11_Deque_implD1Ev
FNDA:0,_ZNSt11_Deque_baseIN10MainWindow16CalculatedMove_tESaIS1_EE11_Deque_implC1Ev
FNDA:0,_ZNSt11_Deque_baseIN10MainWindow16CalculatedMove_tESaIS1_EE11_Deque_implC1ERKS2_
FNDA:0,_ZNSt11_Deque_baseIN10MainWindow16CalculatedMove_tESaIS1_EE19_M_get_Tp_allocatorEv
FNDA:0,_ZNKSt11_Deque_baseIN10MainWindow16CalculatedMove_tESaIS1_EE19_M_get_Tp_allocatorEv
FNDA:0,_ZNKSt11_Deque_baseIN10MainWindow16CalculatedMove_tESaIS1_EE20_M_get_map_allocatorEv
FNDA:0,_ZNSt11_Deque_baseIN10MainWindow16CalculatedMove_tESaIS1_EE16_M_allocate_nodeEv
FNDA:0,_ZNSt11_Deque_baseIN10MainWindow16CalculatedMove_tESaIS1_EE18_M_deallocate_nodeEPS1_
FNDA:0,_ZNSt11_Deque_baseIN10MainWindow16CalculatedMove_tESaIS1_EE15_M_allocate_mapEj
FNDA:0,_ZNSt11_Deque_baseIN10MainWindow16CalculatedMove_tESaIS1_EE17_M_deallocate_mapEPPS1_j
FNDA:0,_ZNSt11_Deque_baseIN10MainWindow16CalculatedMove_tESaIS1_EED2Ev
FNDA:0,_ZNSt11_Deque_baseIN10MainWindow16CalculatedMove_tESaIS1_EE17_M_initialize_mapEj
FNDA:0,_ZNSt11_Deque_baseIN10MainWindow16CalculatedMove_tESaIS1_EE15_M_create_nodesEPPS1_S5_
FNDA:0,_ZNSt11_Deque_baseIN10MainWindow16CalculatedMove_tESaIS1_EE16_M_destroy_nodesEPPS1_S5_
FNDA:0,_ZNSt5dequeIN10MainWindow16CalculatedMove_tESaIS1_EE14_S_buffer_sizeEv
FNDA:0,_ZNSt5dequeIN10MainWindow16CalculatedMove_tESaIS1_EEC1Ev
FNDA:0,_ZNSt5dequeIN10MainWindow16CalculatedMove_tESaIS1_EEC1ERKS3_
FNDA:0,_ZNSt5dequeIN10MainWindow16CalculatedMove_tESaIS1_EED1Ev
FNDA:0,_ZNSt5dequeIN10MainWindow16CalculatedMove_tESaIS1_EE5beginEv
FNDA:0,_ZNKSt5dequeIN10MainWindow16CalculatedMove_tESaIS1_EE5beginEv
FNDA:0,_ZNSt5dequeIN10MainWindow16CalculatedMove_tESaIS1_EE3endEv
FNDA:0,_ZNKSt5dequeIN10MainWindow16CalculatedMove_tESaIS1_EE3endEv
FNDA:0,_ZNKSt5dequeIN10MainWindow16CalculatedMove_tESaIS1_EE4sizeEv
FNDA:0,_ZNKSt5dequeIN10MainWindow16CalculatedMove_tESaIS1_EE5emptyEv
FNDA:0,_ZNSt5dequeIN10MainWindow16CalculatedMove_tESaIS1_EE5frontEv
FNDA:0,_ZNSt5dequeIN10MainWindow16CalculatedMove_tESaIS1_EE9push_backERKS1_
FNDA:0,_ZNSt5dequeIN10MainWindow16CalculatedMove_tESaIS1_EE9pop_frontEv
FNDA:0,_ZNSt5dequeIN10MainWindow16CalculatedMove_tESaIS1_EE15_M_destroy_dataESt15_Deque_iteratorIS1_RS1_PS1_ES7_RKS2_
FNDA:0,_ZNSt5dequeIN10MainWindow16CalculatedMove_tESaIS1_EE22_M_reserve_map_at_backEj
FNF:48
FNH:0
DA:78,0
DA:79,0
DA:99,0
DA:100,0
DA:120,0
DA:121,0
DA:123,0
DA:125,0
DA:128,0
DA:129,0
DA:136,0
DA:138,0
DA:139,0
DA:141,0
DA:142,0
DA:144,0
DA:222,0
DA:224,0
DA:225,0
DA:226,0
DA:227,0
DA:235,0
DA:237,0
DA:248,0
DA:250,0
DA:319,0
DA:325,0
DA:373,0
DA:374,0
DA:375,0
DA:377,0
DA:378,0
DA:379,0
DA:412,0
DA:418,0
DA:420,0
DA:421,0
DA:423,0
DA:425,0
DA:426,0
DA:430,0
DA:431,0
DA:434,0
DA:435,0
DA:438,0
DA:439,0
DA:442,0
DA:444,0
DA:448,0
DA:450,0
DA:451,0
DA:454,0
DA:455,0
DA:458,0
DA:459,0
DA:471,0
DA:474,0
DA:476,0
DA:478,0
DA:480,0
DA:492,0
DA:496,0
DA:498,0
DA:500,0
DA:508,0
DA:509,0
DA:512,0
DA:513,0
DA:515,0
DA:516,0
DA:517,0
DA:518,0
DA:521,0
DA:522,0
DA:523,0
DA:524,0
DA:527,0
DA:531,0
DA:537,0
DA:538,0
DA:540,0
DA:542,0
DA:543,0
DA:545,0
DA:549,0
DA:552,0
DA:553,0
DA:554,0
DA:665,0
DA:666,0
DA:690,0
DA:691,0
DA:722,0
DA:723,0
DA:724,0
DA:726,0
DA:789,0
DA:790,0
DA:900,0
DA:901,0
DA:908,0
DA:909,0
DA:917,0
DA:918,0
DA:926,0
DA:927,0
DA:1005,0
DA:1006,0
DA:1039,0
DA:1040,0
DA:1124,0
DA:1125,0
DA:1201,0
DA:1203,0
DA:1206,0
DA:1207,0
DA:1210,0
DA:1211,0
DA:1232,0
DA:1234,0
DA:1237,0
DA:1238,0
DA:1241,0
DA:1242,0
DA:1649,0
DA:1653,0
DA:1654,0
DA:1715,0
DA:1717,0
DA:1719,0
DA:1720,0
BA:79,0
BA:79,0
BA:139,0
BA:139,0
BA:139,0
BA:139,0
BA:474,0
BA:474,0
BA:537,0
BA:537,0
BA:552,0
BA:552,0
BA:1203,0
BA:1203,0
BA:1234,0
BA:1234,0
BA:1717,0
BA:1717,0
LF:131
LH:0
end_of_record
SF:/usr/include/c++/4.4/bits/stl_iterator.h
FN:686,_ZN9__gnu_cxx17__normal_iteratorIPK10CoordinateSt6vectorIS1_SaIS1_EEEC1ERKS3_
FN:686,_ZN9__gnu_cxx17__normal_iteratorIP10CoordinateSt6vectorIS1_SaIS1_EEEC1ERKS2_
FN:750,_ZNK9__gnu_cxx17__normal_iteratorIPK10CoordinateSt6vectorIS1_SaIS1_EEE4baseEv
FN:750,_ZNK9__gnu_cxx17__normal_iteratorIP10CoordinateSt6vectorIS1_SaIS1_EEE4baseEv
FN:783,_ZN9__gnu_cxxneIP10CoordinateSt6vectorIS1_SaIS1_EEEEbRKNS_17__normal_iteratorIT_T0_EESB_
FN:706,_ZN9__gnu_cxx17__normal_iteratorIP10CoordinateSt6vectorIS1_SaIS1_EEEppEv
FN:698,_ZNK9__gnu_cxx17__normal_iteratorIP10CoordinateSt6vectorIS1_SaIS1_EEEdeEv
FN:783,_ZN9__gnu_cxxneIPK10CoordinateSt6vectorIS1_SaIS1_EEEEbRKNS_17__normal_iteratorIT_T0_EESC_
FN:706,_ZN9__gnu_cxx17__normal_iteratorIPK10CoordinateSt6vectorIS1_SaIS1_EEEppEv
FN:698,_ZNK9__gnu_cxx17__normal_iteratorIPK10CoordinateSt6vectorIS1_SaIS1_EEEdeEv
FNDA:0,_ZN9__gnu_cxx17__normal_iteratorIPK10CoordinateSt6vectorIS1_SaIS1_EEEC1ERKS3_
FNDA:0,_ZN9__gnu_cxx17__normal_iteratorIP10CoordinateSt6vectorIS1_SaIS1_EEEC1ERKS2_
FNDA:0,_ZNK9__gnu_cxx17__normal_iteratorIP10CoordinateSt6vectorIS1_SaIS1_EEEdeEv
FNDA:0,_ZNK9__gnu_cxx17__normal_iteratorIPK10CoordinateSt6vectorIS1_SaIS1_EEEdeEv
FNDA:0,_ZN9__gnu_cxx17__normal_iteratorIP10CoordinateSt6vectorIS1_SaIS1_EEEppEv
FNDA:0,_ZN9__gnu_cxx17__normal_iteratorIPK10CoordinateSt6vectorIS1_SaIS1_EEEppEv
FNDA:0,_ZNK9__gnu_cxx17__normal_iteratorIPK10CoordinateSt6vectorIS1_SaIS1_EEE4baseEv
FNDA:0,_ZNK9__gnu_cxx17__normal_iteratorIP10CoordinateSt6vectorIS1_SaIS1_EEE4baseEv
FNDA:0,_ZN9__gnu_cxxneIP10CoordinateSt6vectorIS1_SaIS1_EEEEbRKNS_17__normal_iteratorIT_T0_EESB_
FNDA:0,_ZN9__gnu_cxxneIPK10CoordinateSt6vectorIS1_SaIS1_EEEEbRKNS_17__normal_iteratorIT_T0_EESC_
FNF:10
FNH:0
DA:686,0
DA:698,0
DA:699,0
DA:706,0
DA:708,0
DA:709,0
DA:750,0
DA:751,0
DA:783,0
DA:785,0
LF:10
LH:0
end_of_record
SF:/usr/include/c++/4.4/bits/stl_iterator_base_funcs.h
FN:87,_ZSt10__distanceIPcENSt15iterator_traitsIT_E15difference_typeES2_S2_St26random_access_iterator_tag
FN:110,_ZSt8distanceIPcENSt15iterator_traitsIT_E15difference_typeES2_S2_
FNDA:0,_ZSt10__distanceIPcENSt15iterator_traitsIT_E15difference_typeES2_S2_St26random_access_iterator_tag
FNDA:0,_ZSt8distanceIPcENSt15iterator_traitsIT_E15difference_typeES2_S2_
FNF:2
FNH:0
DA:87,0
DA:93,0
DA:110,0
DA:114,0
LF:4
LH:0
end_of_record
SF:/usr/include/c++/4.4/bits/stl_iterator_base_types.h
FN:160,_ZSt19__iterator_categoryIPcENSt15iterator_traitsIT_E17iterator_categoryERKS2_
FNDA:0,_ZSt19__iterator_categoryIPcENSt15iterator_traitsIT_E17iterator_categoryERKS2_
FNF:1
FNH:0
DA:160,0
DA:161,0
LF:2
LH:0
end_of_record
SF:/usr/include/c++/4.4/bits/stl_list.h
FN:255,_ZNKSt20_List_const_iteratorISt6vectorI10CoordinateSaIS1_EEEneERKS4_
FN:175,_ZNKSt14_List_iteratorISt6vectorI10CoordinateSaIS1_EEEneERKS4_
FN:221,_ZNSt20_List_const_iteratorISt6vectorI10CoordinateSaIS1_EEEppEv
FN:141,_ZNSt14_List_iteratorISt6vectorI10CoordinateSaIS1_EEEppEv
FN:213,_ZNKSt20_List_const_iteratorISt6vectorI10CoordinateSaIS1_EEEdeEv
FN:133,_ZNKSt14_List_iteratorISt6vectorI10CoordinateSaIS1_EEEdeEv
FN:251,_ZNKSt20_List_const_iteratorISt6vectorI10CoordinateSaIS1_EEEeqERKS4_
FN:255,_ZNKSt20_List_const_iteratorIyEneERKS0_
FN:175,_ZNKSt14_List_iteratorIyEneERKS0_
FN:221,_ZNSt20_List_const_iteratorIyEppEv
FN:141,_ZNSt14_List_iteratorIyEppEv
FN:213,_ZNKSt20_List_const_iteratorIyEdeEv
FN:133,_ZNKSt14_List_iteratorIyEdeEv
FN:251,_ZNKSt20_List_const_iteratorIyEeqERKS0_
FN:128,_ZNSt14_List_iteratorISt6vectorI10CoordinateSaIS1_EEEC1EPSt15_List_node_base
FN:689,_ZNSt4listISt6vectorI10CoordinateSaIS1_EESaIS3_EE5beginEv
FN:707,_ZNSt4listISt6vectorI10CoordinateSaIS1_EESaIS3_EE3endEv
FN:204,_ZNSt20_List_const_iteratorISt6vectorI10CoordinateSaIS1_EEEC1EPKSt15_List_node_base
FN:698,_ZNKSt4listISt6vectorI10CoordinateSaIS1_EESaIS3_EE5beginEv
FN:716,_ZNKSt4listISt6vectorI10CoordinateSaIS1_EESaIS3_EE3endEv
FN:326,_ZNSt10_List_baseISt6vectorI10CoordinateSaIS1_EESaIS3_EE21_M_get_Node_allocatorEv
FN:128,_ZNSt14_List_iteratorIyEC1EPSt15_List_node_base
FN:689,_ZNSt4listIySaIyEE5beginEv
FN:707,_ZNSt4listIySaIyEE3endEv
FN:204,_ZNSt20_List_const_iteratorIyEC1EPKSt15_List_node_base
FN:698,_ZNKSt4listIySaIyEE5beginEv
FN:716,_ZNKSt4listIySaIyEE3endEv
FN:326,_ZNSt10_List_baseIySaIyEE21_M_get_Node_allocatorEv
FN:799,_ZNKSt4listISt6vectorI10CoordinateSaIS1_EESaIS3_EE5emptyEv
FN:799,_ZNKSt4listIySaIyEE5emptyEv
FN:366,_ZNSt10_List_baseISt6vectorI10CoordinateSaIS1_EESaIS3_EE7_M_initEv
FN:366,_ZNSt10_List_baseIySaIyEE7_M_initEv
FN:330,_ZNKSt10_List_baseISt6vectorI10CoordinateSaIS1_EESaIS3_EE21_M_get_Node_allocatorEv
FN:330,_ZNKSt10_List_baseIySaIyEE21_M_get_Node_allocatorEv
FN:319,_ZNSt10_List_baseISt6vectorI10CoordinateSaIS1_EESaIS3_EE11_M_put_nodeEPSt10_List_nodeIS3_E
FN:319,_ZNSt10_List_baseIySaIyEE11_M_put_nodeEPSt10_List_nodeIyE
FN:334,_ZNKSt10_List_baseISt6vectorI10CoordinateSaIS1_EESaIS3_EE19_M_get_Tp_allocatorEv
FN:307,_ZNSt10_List_baseISt6vectorI10CoordinateSaIS1_EESaIS3_EE10_List_implC1ERKSaISt10_List_nodeIS3_EE
FN:300,_ZNSt10_List_baseISt6vectorI10CoordinateSaIS1_EESaIS3_EE10_List_implD1Ev
FN:345,_ZNSt10_List_baseISt6vectorI10CoordinateSaIS1_EESaIS3_EEC2ERKS4_
FN:359,_ZNSt10_List_baseISt6vectorI10CoordinateSaIS1_EESaIS3_EED2Ev
FN:418,_ZNSt4listISt6vectorI10CoordinateSaIS1_EESaIS3_EED1Ev
FN:334,_ZNKSt10_List_baseIySaIyEE19_M_get_Tp_allocatorEv
FN:307,_ZNSt10_List_baseIySaIyEE10_List_implC1ERKSaISt10_List_nodeIyEE
FN:300,_ZNSt10_List_baseIySaIyEE10_List_implD1Ev
FN:345,_ZNSt10_List_baseIySaIyEEC2ERKS0_
FN:359,_ZNSt10_List_baseIySaIyEED2Ev
FN:418,_ZNSt4listIySaIyEED1Ev
FN:315,_ZNSt10_List_baseISt6vectorI10CoordinateSaIS1_EESaIS3_EE11_M_get_nodeEv
FN:459,_ZNSt4listISt6vectorI10CoordinateSaIS1_EESaIS3_EE14_M_create_nodeERKS3_
FN:315,_ZNSt10_List_baseIySaIyEE11_M_get_nodeEv
FN:459,_ZNSt4listIySaIyEE14_M_create_nodeERKy
FN:1422,_ZNSt4listISt6vectorI10CoordinateSaIS1_EESaIS3_EE8_M_eraseESt14_List_iteratorIS3_E
FN:1092,_ZNSt4listISt6vectorI10CoordinateSaIS1_EESaIS3_EE5eraseESt14_List_iteratorIS3_ES7_
FN:1422,_ZNSt4listIySaIyEE8_M_eraseESt14_List_iteratorIyE
FN:1092,_ZNSt4listIySaIyEE5eraseESt14_List_iteratorIyES3_
FN:1405,_ZNSt4listISt6vectorI10CoordinateSaIS1_EESaIS3_EE9_M_insertESt14_List_iteratorIS3_ERKS3_
FN:919,_ZNSt4listISt6vectorI10CoordinateSaIS1_EESaIS3_EE9push_backERKS3_
FN:1357,_ZNSt4listISt6vectorI10CoordinateSaIS1_EESaIS3_EE22_M_initialize_dispatchISt20_List_const_iteratorIS3_EEEvT_S9_St12__false_type
FN:571,_ZNSt4listISt6vectorI10CoordinateSaIS1_EESaIS3_EEC1ISt20_List_const_iteratorIS3_EEET_S9_RKS4_
FN:531,_ZNSt4listISt6vectorI10CoordinateSaIS1_EESaIS3_EEC1ERKS5_
FN:1405,_ZNSt4listIySaIyEE9_M_insertESt14_List_iteratorIyERKy
FN:919,_ZNSt4listIySaIyEE9push_backERKy
FN:1357,_ZNSt4listIySaIyEE22_M_initialize_dispatchISt20_List_const_iteratorIyEEEvT_S5_St12__false_type
FN:571,_ZNSt4listIySaIyEEC1ISt20_List_const_iteratorIyEEET_S5_RKS0_
FN:531,_ZNSt4listIySaIyEEC1ERKS1_
FN:1436,_ZNSt4listISt6vectorI10CoordinateSaIS1_EESaIS3_EE25_M_check_equal_allocatorsERS5_
FN:1436,_ZNSt4listIySaIyEE25_M_check_equal_allocatorsERS1_
FN:1399,_ZNSt4listISt6vectorI10CoordinateSaIS1_EESaIS3_EE11_M_transferESt14_List_iteratorIS3_ES7_S7_
FN:1152,_ZNSt4listISt6vectorI10CoordinateSaIS1_EESaIS3_EE6spliceESt14_List_iteratorIS3_ERS5_
FN:1048,_ZNSt4listISt6vectorI10CoordinateSaIS1_EESaIS3_EE6insertISt20_List_const_iteratorIS3_EEEvSt14_List_iteratorIS3_ET_SB_
FN:1399,_ZNSt4listIySaIyEE11_M_transferESt14_List_iteratorIyES3_S3_
FN:1152,_ZNSt4listIySaIyEE6spliceESt14_List_iteratorIyERS1_
FN:1048,_ZNSt4listIySaIyEE6insertISt20_List_const_iteratorIyEEEvSt14_List_iteratorIyET_S7_
FNDA:0,_ZNSt14_List_iteratorISt6vectorI10CoordinateSaIS1_EEEC1EPSt15_List_node_base
FNDA:0,_ZNSt14_List_iteratorIyEC1EPSt15_List_node_base
FNDA:0,_ZNKSt14_List_iteratorISt6vectorI10CoordinateSaIS1_EEEdeEv
FNDA:0,_ZNKSt14_List_iteratorIyEdeEv
FNDA:0,_ZNSt14_List_iteratorISt6vectorI10CoordinateSaIS1_EEEppEv
FNDA:0,_ZNSt14_List_iteratorIyEppEv
FNDA:0,_ZNKSt14_List_iteratorISt6vectorI10CoordinateSaIS1_EEEneERKS4_
FNDA:0,_ZNKSt14_List_iteratorIyEneERKS0_
FNDA:0,_ZNSt20_List_const_iteratorISt6vectorI10CoordinateSaIS1_EEEC1EPKSt15_List_node_base
FNDA:0,_ZNSt20_List_const_iteratorIyEC1EPKSt15_List_node_base
FNDA:0,_ZNKSt20_List_const_iteratorISt6vectorI10CoordinateSaIS1_EEEdeEv
FNDA:0,_ZNKSt20_List_const_iteratorIyEdeEv
FNDA:0,_ZNSt20_List_const_iteratorISt6vectorI10CoordinateSaIS1_EEEppEv
FNDA:0,_ZNSt20_List_const_iteratorIyEppEv
FNDA:0,_ZNKSt20_List_const_iteratorISt6vectorI10CoordinateSaIS1_EEEeqERKS4_
FNDA:0,_ZNKSt20_List_const_iteratorIyEeqERKS0_
FNDA:0,_ZNKSt20_List_const_iteratorISt6vectorI10CoordinateSaIS1_EEEneERKS4_
FNDA:0,_ZNKSt20_List_const_iteratorIyEneERKS0_
FNDA:0,_ZNSt10_List_baseISt6vectorI10CoordinateSaIS1_EESaIS3_EE10_List_implD1Ev
FNDA:0,_ZNSt10_List_baseIySaIyEE10_List_implD1Ev
FNDA:0,_ZNSt10_List_baseISt6vectorI10CoordinateSaIS1_EESaIS3_EE10_List_implC1ERKSaISt10_List_nodeIS3_EE
FNDA:0,_ZNSt10_List_baseIySaIyEE10_List_implC1ERKSaISt10_List_nodeIyEE
FNDA:0,_ZNSt10_List_baseISt6vectorI10CoordinateSaIS1_EESaIS3_EE11_M_get_nodeEv
FNDA:0,_ZNSt10_List_baseIySaIyEE11_M_get_nodeEv
FNDA:0,_ZNSt10_List_baseISt6vectorI10CoordinateSaIS1_EESaIS3_EE11_M_put_nodeEPSt10_List_nodeIS3_E
FNDA:0,_ZNSt10_List_baseIySaIyEE11_M_put_nodeEPSt10_List_nodeIyE
FNDA:0,_ZNSt10_List_baseISt6vectorI10CoordinateSaIS1_EESaIS3_EE21_M_get_Node_allocatorEv
FNDA:0,_ZNSt10_List_baseIySaIyEE21_M_get_Node_allocatorEv
FNDA:0,_ZNKSt10_List_baseISt6vectorI10CoordinateSaIS1_EESaIS3_EE21_M_get_Node_allocatorEv
FNDA:0,_ZNKSt10_List_baseIySaIyEE21_M_get_Node_allocatorEv
FNDA:0,_ZNKSt10_List_baseISt6vectorI10CoordinateSaIS1_EESaIS3_EE19_M_get_Tp_allocatorEv
FNDA:0,_ZNKSt10_List_baseIySaIyEE19_M_get_Tp_allocatorEv
FNDA:0,_ZNSt10_List_baseISt6vectorI10CoordinateSaIS1_EESaIS3_EEC2ERKS4_
FNDA:0,_ZNSt10_List_baseIySaIyEEC2ERKS0_
FNDA:0,_ZNSt10_List_baseISt6vectorI10CoordinateSaIS1_EESaIS3_EED2Ev
FNDA:0,_ZNSt10_List_baseIySaIyEED2Ev
FNDA:0,_ZNSt10_List_baseISt6vectorI10CoordinateSaIS1_EESaIS3_EE7_M_initEv
FNDA:0,_ZNSt10_List_baseIySaIyEE7_M_initEv
FNDA:0,_ZNSt4listISt6vectorI10CoordinateSaIS1_EESaIS3_EED1Ev
FNDA:0,_ZNSt4listIySaIyEED1Ev
FNDA:0,_ZNSt4listISt6vectorI10CoordinateSaIS1_EESaIS3_EE14_M_create_nodeERKS3_
FNDA:0,_ZNSt4listIySaIyEE14_M_create_nodeERKy
FNDA:0,_ZNSt4listISt6vectorI10CoordinateSaIS1_EESaIS3_EEC1ERKS5_
FNDA:0,_ZNSt4listIySaIyEEC1ERKS1_
FNDA:0,_ZNSt4listISt6vectorI10CoordinateSaIS1_EESaIS3_EEC1ISt20_List_const_iteratorIS3_EEET_S9_RKS4_
FNDA:0,_ZNSt4listIySaIyEEC1ISt20_List_const_iteratorIyEEET_S5_RKS0_
FNDA:0,_ZNSt4listISt6vectorI10CoordinateSaIS1_EESaIS3_EE5beginEv
FNDA:0,_ZNSt4listIySaIyEE5beginEv
FNDA:0,_ZNKSt4listISt6vectorI10CoordinateSaIS1_EESaIS3_EE5beginEv
FNDA:0,_ZNKSt4listIySaIyEE5beginEv
FNDA:0,_ZNSt4listISt6vectorI10CoordinateSaIS1_EESaIS3_EE3endEv
FNDA:0,_ZNSt4listIySaIyEE3endEv
FNDA:0,_ZNKSt4listISt6vectorI10CoordinateSaIS1_EESaIS3_EE3endEv
FNDA:0,_ZNKSt4listIySaIyEE3endEv
FNDA:0,_ZNKSt4listISt6vectorI10CoordinateSaIS1_EESaIS3_EE5emptyEv
FNDA:0,_ZNKSt4listIySaIyEE5emptyEv
FNDA:0,_ZNSt4listISt6vectorI10CoordinateSaIS1_EESaIS3_EE9push_backERKS3_
FNDA:0,_ZNSt4listIySaIyEE9push_backERKy
FNDA:0,_ZNSt4listISt6vectorI10CoordinateSaIS1_EESaIS3_EE6insertISt20_List_const_iteratorIS3_EEEvSt14_List_iteratorIS3_ET_SB_
FNDA:0,_ZNSt4listIySaIyEE6insertISt20_List_const_iteratorIyEEEvSt14_List_iteratorIyET_S7_
FNDA:0,_ZNSt4listISt6vectorI10CoordinateSaIS1_EESaIS3_EE5eraseESt14_List_iteratorIS3_ES7_
FNDA:0,_ZNSt4listIySaIyEE5eraseESt14_List_iteratorIyES3_
FNDA:0,_ZNSt4listISt6vectorI10CoordinateSaIS1_EESaIS3_EE6spliceESt14_List_iteratorIS3_ERS5_
FNDA:0,_ZNSt4listIySaIyEE6spliceESt14_List_iteratorIyERS1_
FNDA:0,_ZNSt4listISt6vectorI10CoordinateSaIS1_EESaIS3_EE22_M_initialize_dispatchISt20_List_const_iteratorIS3_EEEvT_S9_St12__false_type
FNDA:0,_ZNSt4listIySaIyEE22_M_initialize_dispatchISt20_List_const_iteratorIyEEEvT_S5_St12__false_type
FNDA:0,_ZNSt4listISt6vectorI10CoordinateSaIS1_EESaIS3_EE11_M_transferESt14_List_iteratorIS3_ES7_S7_
FNDA:0,_ZNSt4listIySaIyEE11_M_transferESt14_List_iteratorIyES3_S3_
FNDA:0,_ZNSt4listISt6vectorI10CoordinateSaIS1_EESaIS3_EE9_M_insertESt14_List_iteratorIS3_ERKS3_
FNDA:0,_ZNSt4listIySaIyEE9_M_insertESt14_List_iteratorIyERKy
FNDA:0,_ZNSt4listISt6vectorI10CoordinateSaIS1_EESaIS3_EE8_M_eraseESt14_List_iteratorIS3_E
FNDA:0,_ZNSt4listIySaIyEE8_M_eraseESt14_List_iteratorIyE
FNDA:0,_ZNSt4listISt6vectorI10CoordinateSaIS1_EESaIS3_EE25_M_check_equal_allocatorsERS5_
FNDA:0,_ZNSt4listIySaIyEE25_M_check_equal_allocatorsERS1_
FNF:74
FNH:0
DA:128,0
DA:129,0
DA:133,0
DA:134,0
DA:141,0
DA:143,0
DA:144,0
DA:175,0
DA:176,0
DA:204,0
DA:205,0
DA:213,0
DA:214,0
DA:221,0
DA:223,0
DA:224,0
DA:251,0
DA:252,0
DA:255,0
DA:256,0
DA:300,0
DA:307,0
DA:308,0
DA:309,0
DA:315,0
DA:316,0
DA:319,0
DA:320,0
DA:326,0
DA:327,0
DA:330,0
DA:331,0
DA:334,0
DA:335,0
DA:345,0
DA:346,0
DA:347,0
DA:359,0
DA:360,0
DA:366,0
DA:368,0
DA:369,0
DA:370,0
DA:418,0
DA:459,0
DA:461,0
DA:464,0
DA:466,0
DA:468,0
DA:469,0
DA:471,0
DA:531,0
DA:532,0
DA:533,0
DA:571,0
DA:573,0
DA:577,0
DA:578,0
DA:689,0
DA:690,0
DA:698,0
DA:699,0
DA:707,0
DA:708,0
DA:716,0
DA:717,0
DA:799,0
DA:800,0
DA:919,0
DA:920,0
DA:1048,0
DA:1051,0
DA:1052,0
DA:1053,0
DA:1092,0
DA:1094,0
DA:1095,0
DA:1096,0
DA:1152,0
DA:1155,0
DA:1157,0
DA:1159,0
DA:1161,0
DA:1357,0
DA:1360,0
DA:1361,0
DA:1362,0
DA:1399,0
DA:1400,0
DA:1405,0
DA:1407,0
DA:1408,0
DA:1409,0
DA:1422,0
DA:1424,0
DA:1425,0
DA:1429,0
DA:1431,0
DA:1432,0
DA:1436,0
DA:1438,0
DA:1440,0
DA:1441,0
BA:1094,0
BA:1094,0
BA:1094,0
BA:1094,0
BA:1155,0
BA:1155,0
BA:1155,0
BA:1155,0
BA:1360,0
BA:1360,0
BA:1360,0
BA:1360,0
BA:1438,0
BA:1438,0
BA:1438,0
BA:1438,0
LF:103
LH:0
end_of_record
SF:/usr/include/c++/4.4/bits/stl_queue.h
FN:156,_ZNKSt5queueIN10MainWindow16CalculatedMove_tESt5dequeIS1_SaIS1_EEE5emptyEv
FN:169,_ZNSt5queueIN10MainWindow16CalculatedMove_tESt5dequeIS1_SaIS1_EEE5frontEv
FN:161,_ZNKSt5queueIN10MainWindow16CalculatedMove_tESt5dequeIS1_SaIS1_EEE4sizeEv
FN:244,_ZNSt5queueIN10MainWindow16CalculatedMove_tESt5dequeIS1_SaIS1_EEE3popEv
FN:90,_ZNSt5queueIN10MainWindow16CalculatedMove_tESt5dequeIS1_SaIS1_EEED1Ev
FN:130,_ZNSt5queueIN10MainWindow16CalculatedMove_tESt5dequeIS1_SaIS1_EEEC1ERKS4_
FN:218,_ZNSt5queueIN10MainWindow16CalculatedMove_tESt5dequeIS1_SaIS1_EEE4pushERKS1_
FNDA:0,_ZNSt5queueIN10MainWindow16CalculatedMove_tESt5dequeIS1_SaIS1_EEED1Ev
FNDA:0,_ZNSt5queueIN10MainWindow16CalculatedMove_tESt5dequeIS1_SaIS1_EEEC1ERKS4_
FNDA:0,_ZNKSt5queueIN10MainWindow16CalculatedMove_tESt5dequeIS1_SaIS1_EEE5emptyEv
FNDA:0,_ZNKSt5queueIN10MainWindow16CalculatedMove_tESt5dequeIS1_SaIS1_EEE4sizeEv
FNDA:0,_ZNSt5queueIN10MainWindow16CalculatedMove_tESt5dequeIS1_SaIS1_EEE5frontEv
FNDA:0,_ZNSt5queueIN10MainWindow16CalculatedMove_tESt5dequeIS1_SaIS1_EEE4pushERKS1_
FNDA:0,_ZNSt5queueIN10MainWindow16CalculatedMove_tESt5dequeIS1_SaIS1_EEE3popEv
FNF:7
FNH:0
DA:90,0
DA:130,0
DA:131,0
DA:156,0
DA:157,0
DA:161,0
DA:162,0
DA:169,0
DA:172,0
DA:218,0
DA:219,0
DA:244,0
DA:247,0
DA:248,0
LF:14
LH:0
end_of_record
SF:/usr/include/c++/4.4/bits/stl_uninitialized.h
FN:67,_ZNSt20__uninitialized_copyILb0EE18uninitialized_copyIN9__gnu_cxx17__normal_iteratorIPK10CoordinateSt6vectorIS4_SaIS4_EEEEPS4_EET0_T_SD_SC_
FN:107,_ZSt18uninitialized_copyIN9__gnu_cxx17__normal_iteratorIPK10CoordinateSt6vectorIS2_SaIS2_EEEEPS2_ET0_T_SB_SA_
FN:255,_ZSt22__uninitialized_copy_aIN9__gnu_cxx17__normal_iteratorIPK10CoordinateSt6vectorIS2_SaIS2_EEEEPS2_S2_ET0_T_SB_SA_RSaIT1_E
FN:67,_ZNSt20__uninitialized_copyILb0EE18uninitialized_copyIP10CoordinateS3_EET0_T_S5_S4_
FN:107,_ZSt18uninitialized_copyIP10CoordinateS1_ET0_T_S3_S2_
FN:255,_ZSt22__uninitialized_copy_aIP10CoordinateS1_S0_ET0_T_S3_S2_RSaIT1_E
FN:67,_ZNSt20__uninitialized_copyILb0EE18uninitialized_copyISt15_Deque_iteratorIN10MainWindow16CalculatedMove_tERKS4_PS5_ES2_IS4_RS4_PS4_EEET0_T_SD_SC_
FN:107,_ZSt18uninitialized_copyISt15_Deque_iteratorIN10MainWindow16CalculatedMove_tERKS2_PS3_ES0_IS2_RS2_PS2_EET0_T_SB_SA_
FN:255,_ZSt22__uninitialized_copy_aISt15_Deque_iteratorIN10MainWindow16CalculatedMove_tERKS2_PS3_ES0_IS2_RS2_PS2_ES2_ET0_T_SB_SA_RSaIT1_E
FNDA:0,_ZNSt20__uninitialized_copyILb0EE18uninitialized_copyIN9__gnu_cxx17__normal_iteratorIPK10CoordinateSt6vectorIS4_SaIS4_EEEEPS4_EET0_T_SD_SC_
FNDA:0,_ZNSt20__uninitialized_copyILb0EE18uninitialized_copyIP10CoordinateS3_EET0_T_S5_S4_
FNDA:0,_ZNSt20__uninitialized_copyILb0EE18uninitialized_copyISt15_Deque_iteratorIN10MainWindow16CalculatedMove_tERKS4_PS5_ES2_IS4_RS4_PS4_EEET0_T_SD_SC_
FNDA:0,_ZSt18uninitialized_copyIN9__gnu_cxx17__normal_iteratorIPK10CoordinateSt6vectorIS2_SaIS2_EEEEPS2_ET0_T_SB_SA_
FNDA:0,_ZSt18uninitialized_copyIP10CoordinateS1_ET0_T_S3_S2_
FNDA:0,_ZSt18uninitialized_copyISt15_Deque_iteratorIN10MainWindow16CalculatedMove_tERKS2_PS3_ES0_IS2_RS2_PS2_EET0_T_SB_SA_
FNDA:0,_ZSt22__uninitialized_copy_aIN9__gnu_cxx17__normal_iteratorIPK10CoordinateSt6vectorIS2_SaIS2_EEEEPS2_S2_ET0_T_SB_SA_RSaIT1_E
FNDA:0,_ZSt22__uninitialized_copy_aIP10CoordinateS1_S0_ET0_T_S3_S2_RSaIT1_E
FNDA:0,_ZSt22__uninitialized_copy_aISt15_Deque_iteratorIN10MainWindow16CalculatedMove_tERKS2_PS3_ES0_IS2_RS2_PS2_ES2_ET0_T_SB_SA_RSaIT1_E
FNF:9
FNH:0
DA:67,0
DA:70,0
DA:73,0
DA:74,0
DA:76,0
DA:78,0
DA:80,0
DA:81,0
DA:107,0
DA:117,0
DA:255,0
DA:257,0
BA:73,0
BA:73,0
BA:73,0
BA:73,0
BA:73,0
BA:73,0
BA:74,0
BA:74,0
BA:74,0
BA:74,0
BA:74,0
BA:74,0
LF:12
LH:0
end_of_record
SF:/usr/include/c++/4.4/bits/stl_vector.h
FN:532,_ZNKSt6vectorI10CoordinateSaIS0_EE4sizeEv
FN:565,_ZNKSt6vectorI10CoordinateSaIS0_EE8capacityEv
FN:93,_ZNSt12_Vector_baseI10CoordinateSaIS0_EE19_M_get_Tp_allocatorEv
FN:452,_ZNKSt6vectorI10CoordinateSaIS0_EE3endEv
FN:434,_ZNKSt6vectorI10CoordinateSaIS0_EE5beginEv
FN:443,_ZNSt6vectorI10CoordinateSaIS0_EE3endEv
FN:425,_ZNSt6vectorI10CoordinateSaIS0_EE5beginEv
FN:97,_ZNKSt12_Vector_baseI10CoordinateSaIS0_EE19_M_get_Tp_allocatorEv
FN:143,_ZNSt12_Vector_baseI10CoordinateSaIS0_EE13_M_deallocateEPS0_j
FN:75,_ZNSt12_Vector_baseI10CoordinateSaIS0_EE12_Vector_implD1Ev
FN:131,_ZNSt12_Vector_baseI10CoordinateSaIS0_EED2Ev
FN:312,_ZNSt6vectorI10CoordinateSaIS0_EED1Ev
FN:84,_ZNSt12_Vector_baseI10CoordinateSaIS0_EE12_Vector_implC1ERKS1_
FN:139,_ZNSt12_Vector_baseI10CoordinateSaIS0_EE11_M_allocateEj
FN:960,_ZNSt6vectorI10CoordinateSaIS0_EE20_M_allocate_and_copyIN9__gnu_cxx17__normal_iteratorIPKS0_S2_EEEEPS0_jT_SA_
FN:110,_ZNSt12_Vector_baseI10CoordinateSaIS0_EEC2EjRKS1_
FN:241,_ZNSt6vectorI10CoordinateSaIS0_EEC1ERKS2_
FNDA:0,_ZNSt12_Vector_baseI10CoordinateSaIS0_EE12_Vector_implD1Ev
FNDA:0,_ZNSt12_Vector_baseI10CoordinateSaIS0_EE12_Vector_implC1ERKS1_
FNDA:0,_ZNSt12_Vector_baseI10CoordinateSaIS0_EE19_M_get_Tp_allocatorEv
FNDA:0,_ZNKSt12_Vector_baseI10CoordinateSaIS0_EE19_M_get_Tp_allocatorEv
FNDA:0,_ZNSt12_Vector_baseI10CoordinateSaIS0_EEC2EjRKS1_
FNDA:0,_ZNSt12_Vector_baseI10CoordinateSaIS0_EED2Ev
FNDA:0,_ZNSt12_Vector_baseI10CoordinateSaIS0_EE11_M_allocateEj
FNDA:0,_ZNSt12_Vector_baseI10CoordinateSaIS0_EE13_M_deallocateEPS0_j
FNDA:0,_ZNSt6vectorI10CoordinateSaIS0_EEC1ERKS2_
FNDA:0,_ZNSt6vectorI10CoordinateSaIS0_EED1Ev
FNDA:0,_ZNSt6vectorI10CoordinateSaIS0_EE5beginEv
FNDA:0,_ZNKSt6vectorI10CoordinateSaIS0_EE5beginEv
FNDA:0,_ZNSt6vectorI10CoordinateSaIS0_EE3endEv
FNDA:0,_ZNKSt6vectorI10CoordinateSaIS0_EE3endEv
FNDA:0,_ZNKSt6vectorI10CoordinateSaIS0_EE4sizeEv
FNDA:0,_ZNKSt6vectorI10CoordinateSaIS0_EE8capacityEv
FNDA:0,_ZNSt6vectorI10CoordinateSaIS0_EE20_M_allocate_and_copyIN9__gnu_cxx17__normal_iteratorIPKS0_S2_EEEEPS0_jT_SA_
FNF:17
FNH:0
DA:75,0
DA:84,0
DA:85,0
DA:86,0
DA:93,0
DA:94,0
DA:97,0
DA:98,0
DA:110,0
DA:111,0
DA:113,0
DA:114,0
DA:115,0
DA:116,0
DA:131,0
DA:132,0
DA:133,0
DA:139,0
DA:140,0
DA:143,0
DA:145,0
DA:146,0
DA:147,0
DA:241,0
DA:242,0
DA:243,0
DA:247,0
DA:312,0
DA:313,0
DA:314,0
DA:425,0
DA:426,0
DA:434,0
DA:435,0
DA:443,0
DA:444,0
DA:452,0
DA:453,0
DA:532,0
DA:533,0
DA:565,0
DA:567,0
DA:960,0
DA:963,0
DA:966,0
DA:968,0
DA:970,0
DA:972,0
DA:973,0
BA:140,0
BA:140,0
BA:145,0
BA:145,0
LF:49
LH:0
end_of_record
SF:/usr/include/c++/4.4/bits/vector.tcc
FN:156,_ZNSt6vectorI10CoordinateSaIS0_EEaSERKS2_
FNDA:0,_ZNSt6vectorI10CoordinateSaIS0_EEaSERKS2_
FNF:1
FNH:0
DA:156,0
DA:159,0
DA:161,0
DA:162,0
DA:165,0
DA:166,0
DA:168,0
DA:171,0
DA:172,0
DA:174,0
DA:176,0
DA:181,0
DA:183,0
DA:188,0
DA:190,0
BA:159,0
BA:159,0
BA:162,0
BA:162,0
BA:174,0
BA:174,0
LF:15
LH:0
end_of_record
SF:/usr/include/c++/4.4/ext/atomicity.h
FN:62,_ZN9__gnu_cxxL25__exchange_and_add_singleEPii
FN:45,_ZN9__gnu_cxxL18__exchange_and_addEPVii
FN:75,_ZN9__gnu_cxxL27__exchange_and_add_dispatchEPii
FNDA:0,_ZN9__gnu_cxxL18__exchange_and_addEPVii
FNDA:0,_ZN9__gnu_cxxL25__exchange_and_add_singleEPii
FNDA:0,_ZN9__gnu_cxxL27__exchange_and_add_dispatchEPii
FNF:3
FNH:0
DA:45,0
DA:46,0
DA:62,0
DA:64,0
DA:65,0
DA:66,0
DA:75,0
DA:78,0
DA:79,0
DA:81,0
BA:78,0
BA:78,0
LF:10
LH:0
end_of_record
SF:/usr/include/c++/4.4/ext/new_allocator.h
FN:66,_ZN9__gnu_cxx13new_allocatorIcEC2Ev
FN:73,_ZN9__gnu_cxx13new_allocatorIcED2Ev
FN:68,_ZN9__gnu_cxx13new_allocatorIcEC2ERKS1_
FN:66,_ZN9__gnu_cxx13new_allocatorISt6vectorI10CoordinateSaIS2_EEEC2Ev
FN:73,_ZN9__gnu_cxx13new_allocatorISt6vectorI10CoordinateSaIS2_EEED2Ev
FN:66,_ZN9__gnu_cxx13new_allocatorIyEC2Ev
FN:73,_ZN9__gnu_cxx13new_allocatorIyED2Ev
FN:73,_ZN9__gnu_cxx13new_allocatorIN10MainWindow16CalculatedMove_tEED2Ev
FN:98,_ZNK9__gnu_cxx13new_allocatorI10CoordinateE8max_sizeEv
FN:73,_ZN9__gnu_cxx13new_allocatorISt10_List_nodeISt6vectorI10CoordinateSaIS3_EEEED2Ev
FN:115,_ZN9__gnu_cxx13new_allocatorIyE7destroyEPy
FN:73,_ZN9__gnu_cxx13new_allocatorISt10_List_nodeIyEED2Ev
FN:66,_ZN9__gnu_cxx13new_allocatorIN10MainWindow16CalculatedMove_tEEC2Ev
FN:73,_ZN9__gnu_cxx13new_allocatorIPN10MainWindow16CalculatedMove_tEED2Ev
FN:66,_ZN9__gnu_cxx13new_allocatorISt10_List_nodeISt6vectorI10CoordinateSaIS3_EEEEC2Ev
FN:66,_ZN9__gnu_cxx13new_allocatorISt10_List_nodeIyEEC2Ev
FN:98,_ZNK9__gnu_cxx13new_allocatorIPN10MainWindow16CalculatedMove_tEE8max_sizeEv
FN:66,_ZN9__gnu_cxx13new_allocatorIPN10MainWindow16CalculatedMove_tEEC2Ev
FN:68,_ZN9__gnu_cxx13new_allocatorIN10MainWindow16CalculatedMove_tEEC2ERKS3_
FN:68,_ZN9__gnu_cxx13new_allocatorISt10_List_nodeISt6vectorI10CoordinateSaIS3_EEEEC2ERKS7_
FN:68,_ZN9__gnu_cxx13new_allocatorISt10_List_nodeIyEEC2ERKS3_
FN:98,_ZNK9__gnu_cxx13new_allocatorIN10MainWindow16CalculatedMove_tEE8max_sizeEv
FN:104,_ZN9__gnu_cxx13new_allocatorIyE9constructEPyRKy
FN:73,_ZN9__gnu_cxx13new_allocatorI10CoordinateED2Ev
FN:68,_ZN9__gnu_cxx13new_allocatorI10CoordinateEC2ERKS2_
FN:98,_ZNK9__gnu_cxx13new_allocatorISt10_List_nodeISt6vectorI10CoordinateSaIS3_EEEE8max_sizeEv
FN:98,_ZNK9__gnu_cxx13new_allocatorISt10_List_nodeIyEE8max_sizeEv
FN:94,_ZN9__gnu_cxx13new_allocatorI10CoordinateE10deallocateEPS1_j
FN:94,_ZN9__gnu_cxx13new_allocatorISt10_List_nodeISt6vectorI10CoordinateSaIS3_EEEE10deallocateEPS6_j
FN:94,_ZN9__gnu_cxx13new_allocatorISt10_List_nodeIyEE10deallocateEPS2_j
FN:94,_ZN9__gnu_cxx13new_allocatorIN10MainWindow16CalculatedMove_tEE10deallocateEPS2_j
FN:94,_ZN9__gnu_cxx13new_allocatorIPN10MainWindow16CalculatedMove_tEE10deallocateEPS3_j
FN:115,_ZN9__gnu_cxx13new_allocatorISt6vectorI10CoordinateSaIS2_EEE7destroyEPS4_
FN:115,_ZN9__gnu_cxx13new_allocatorIN10MainWindow16CalculatedMove_tEE7destroyEPS2_
FN:84,_ZN9__gnu_cxx13new_allocatorI10CoordinateE8allocateEjPKv
FN:104,_ZN9__gnu_cxx13new_allocatorISt6vectorI10CoordinateSaIS2_EEE9constructEPS4_RKS4_
FN:84,_ZN9__gnu_cxx13new_allocatorISt10_List_nodeISt6vectorI10CoordinateSaIS3_EEEE8allocateEjPKv
FN:84,_ZN9__gnu_cxx13new_allocatorISt10_List_nodeIyEE8allocateEjPKv
FN:84,_ZN9__gnu_cxx13new_allocatorIPN10MainWindow16CalculatedMove_tEE8allocateEjPKv
FN:84,_ZN9__gnu_cxx13new_allocatorIN10MainWindow16CalculatedMove_tEE8allocateEjPKv
FN:104,_ZN9__gnu_cxx13new_allocatorIN10MainWindow16CalculatedMove_tEE9constructEPS2_RKS2_
FNDA:0,_ZN9__gnu_cxx13new_allocatorIcEC2Ev
FNDA:0,_ZN9__gnu_cxx13new_allocatorISt6vectorI10CoordinateSaIS2_EEEC2Ev
FNDA:0,_ZN9__gnu_cxx13new_allocatorIyEC2Ev
FNDA:0,_ZN9__gnu_cxx13new_allocatorIN10MainWindow16CalculatedMove_tEEC2Ev
FNDA:0,_ZN9__gnu_cxx13new_allocatorISt10_List_nodeISt6vectorI10CoordinateSaIS3_EEEEC2Ev
FNDA:0,_ZN9__gnu_cxx13new_allocatorISt10_List_nodeIyEEC2Ev
FNDA:0,_ZN9__gnu_cxx13new_allocatorIPN10MainWindow16CalculatedMove_tEEC2Ev
FNDA:0,_ZN9__gnu_cxx13new_allocatorIcEC2ERKS1_
FNDA:0,_ZN9__gnu_cxx13new_allocatorIN10MainWindow16CalculatedMove_tEEC2ERKS3_
FNDA:0,_ZN9__gnu_cxx13new_allocatorISt10_List_nodeISt6vectorI10CoordinateSaIS3_EEEEC2ERKS7_
FNDA:0,_ZN9__gnu_cxx13new_allocatorISt10_List_nodeIyEEC2ERKS3_
FNDA:0,_ZN9__gnu_cxx13new_allocatorI10CoordinateEC2ERKS2_
FNDA:0,_ZN9__gnu_cxx13new_allocatorIcED2Ev
FNDA:0,_ZN9__gnu_cxx13new_allocatorISt6vectorI10CoordinateSaIS2_EEED2Ev
FNDA:0,_ZN9__gnu_cxx13new_allocatorIyED2Ev
FNDA:0,_ZN9__gnu_cxx13new_allocatorIN10MainWindow16CalculatedMove_tEED2Ev
FNDA:0,_ZN9__gnu_cxx13new_allocatorISt10_List_nodeISt6vectorI10CoordinateSaIS3_EEEED2Ev
FNDA:0,_ZN9__gnu_cxx13new_allocatorISt10_List_nodeIyEED2Ev
FNDA:0,_ZN9__gnu_cxx13new_allocatorIPN10MainWindow16CalculatedMove_tEED2Ev
FNDA:0,_ZN9__gnu_cxx13new_allocatorI10CoordinateED2Ev
FNDA:0,_ZN9__gnu_cxx13new_allocatorI10CoordinateE8allocateEjPKv
FNDA:0,_ZN9__gnu_cxx13new_allocatorISt10_List_nodeISt6vectorI10CoordinateSaIS3_EEEE8allocateEjPKv
FNDA:0,_ZN9__gnu_cxx13new_allocatorISt10_List_nodeIyEE8allocateEjPKv
FNDA:0,_ZN9__gnu_cxx13new_allocatorIPN10MainWindow16CalculatedMove_tEE8allocateEjPKv
FNDA:0,_ZN9__gnu_cxx13new_allocatorIN10MainWindow16CalculatedMove_tEE8allocateEjPKv
FNDA:0,_ZN9__gnu_cxx13new_allocatorI10CoordinateE10deallocateEPS1_j
FNDA:0,_ZN9__gnu_cxx13new_allocatorISt10_List_nodeISt6vectorI10CoordinateSaIS3_EEEE10deallocateEPS6_j
FNDA:0,_ZN9__gnu_cxx13new_allocatorISt10_List_nodeIyEE10deallocateEPS2_j
FNDA:0,_ZN9__gnu_cxx13new_allocatorIN10MainWindow16CalculatedMove_tEE10deallocateEPS2_j
FNDA:0,_ZN9__gnu_cxx13new_allocatorIPN10MainWindow16CalculatedMove_tEE10deallocateEPS3_j
FNDA:0,_ZNK9__gnu_cxx13new_allocatorI10CoordinateE8max_sizeEv
FNDA:0,_ZNK9__gnu_cxx13new_allocatorIPN10MainWindow16CalculatedMove_tEE8max_sizeEv
FNDA:0,_ZNK9__gnu_cxx13new_allocatorIN10MainWindow16CalculatedMove_tEE8max_sizeEv
FNDA:0,_ZNK9__gnu_cxx13new_allocatorISt10_List_nodeISt6vectorI10CoordinateSaIS3_EEEE8max_sizeEv
FNDA:0,_ZNK9__gnu_cxx13new_allocatorISt10_List_nodeIyEE8max_sizeEv
FNDA:0,_ZN9__gnu_cxx13new_allocatorIyE9constructEPyRKy
FNDA:0,_ZN9__gnu_cxx13new_allocatorISt6vectorI10CoordinateSaIS2_EEE9constructEPS4_RKS4_
FNDA:0,_ZN9__gnu_cxx13new_allocatorIN10MainWindow16CalculatedMove_tEE9constructEPS2_RKS2_
FNDA:0,_ZN9__gnu_cxx13new_allocatorIyE7destroyEPy
FNDA:0,_ZN9__gnu_cxx13new_allocatorISt6vectorI10CoordinateSaIS2_EEE7destroyEPS4_
FNDA:0,_ZN9__gnu_cxx13new_allocatorIN10MainWindow16CalculatedMove_tEE7destroyEPS2_
FNF:41
FNH:0
DA:66,0
DA:68,0
DA:73,0
DA:84,0
DA:86,0
DA:87,0
DA:89,0
DA:94,0
DA:95,0
DA:98,0
DA:99,0
DA:104,0
DA:105,0
DA:115,0
BA:86,0
BA:86,0
BA:86,0
BA:86,0
BA:86,0
BA:86,0
BA:86,0
BA:86,0
BA:86,0
BA:86,0
BA:105,0
BA:105,0
BA:105,0
BA:105,0
BA:105,0
BA:105,0
LF:14
LH:0
end_of_record
SF:/usr/include/c++/4.4/ext/type_traits.h
FN:148,_ZN9__gnu_cxx17__is_null_pointerIcEEbPT_
FNDA:0,_ZN9__gnu_cxx17__is_null_pointerIcEEbPT_
FNF:1
FNH:0
DA:148,0
DA:149,0
LF:2
LH:0
end_of_record
SF:/usr/include/c++/4.4/i486-linux-gnu/bits/gthr-default.h
FN:238,_ZL18__gthread_active_pv
FNDA:0,_ZL18__gthread_active_pv
FNF:1
FNH:0
DA:238,0
DA:242,0
LF:2
LH:0
end_of_record
SF:/usr/include/c++/4.4/iomanip
FN:238,_ZSt4setwi
FN:170,_ZSt7setfillIcESt8_SetfillIT_ES1_
FN:255,_ZStlsIcSt11char_traitsIcEERSt13basic_ostreamIT_T0_ES6_St5_Setw
FN:187,_ZStlsIcSt11char_traitsIcEERSt13basic_ostreamIT_T0_ES6_St8_SetfillIS3_E
FNDA:0,_ZSt7setfillIcESt8_SetfillIT_ES1_
FNDA:0,_ZStlsIcSt11char_traitsIcEERSt13basic_ostreamIT_T0_ES6_St8_SetfillIS3_E
FNDA:0,_ZSt4setwi
FNDA:0,_ZStlsIcSt11char_traitsIcEERSt13basic_ostreamIT_T0_ES6_St5_Setw
FNF:4
FNH:0
DA:170,0
DA:173,0
DA:187,0
DA:189,0
DA:190,0
DA:238,0
DA:241,0
DA:255,0
DA:257,0
DA:258,0
LF:10
LH:0
end_of_record
SF:/usr/include/c++/4.4/iosfwd
FN:63,_ZNSt15basic_stringbufIcSt11char_traitsIcESaIcEED1Ev
FNDA:0,_ZNSt15basic_stringbufIcSt11char_traitsIcESaIcEED1Ev
FNF:1
FNH:0
DA:63,0
BA:63,0
BA:63,0
LF:1
LH:0
end_of_record
SF:/usr/include/c++/4.4/iostream
DA:72,17
LF:1
LH:1
end_of_record
SF:/usr/include/c++/4.4/istream
FN:581,_ZNSiC2Ev
FN:101,_ZNSiD2Ev
FN:798,_ZNSdC2Ev
FN:795,_ZNSdD2Ev
FNDA:0,_ZNSiD2Ev
FNDA:0,_ZNSiC2Ev
FNDA:0,_ZNSdD2Ev
FNDA:0,_ZNSdC2Ev
FNF:4
FNH:0
DA:101,0
DA:102,0
DA:581,0
DA:582,0
DA:583,0
DA:795,0
DA:798,0
DA:799,0
BA:102,0
BA:102,0
BA:102,0
BA:102,0
BA:795,0
BA:795,0
BA:795,0
BA:795,0
BA:795,0
BA:795,0
LF:8
LH:0
end_of_record
SF:/usr/include/c++/4.4/limits
FN:829,_ZNSt14numeric_limitsIjE3maxEv
FNDA:0,_ZNSt14numeric_limitsIjE3maxEv
FNF:1
FNH:0
DA:829,0
DA:830,0
LF:2
LH:0
end_of_record
SF:/usr/include/c++/4.4/new
FN:101,_ZnwjPv
FN:105,_ZdlPvS_
FNDA:0,_ZnwjPv
FNDA:0,_ZdlPvS_
FNF:2
FNH:0
DA:101,0
DA:105,0
LF:2
LH:0
end_of_record
SF:/usr/include/c++/4.4/ostream
FN:108,_ZNSolsEPFRSoS_E
FN:361,_ZNSoC2Ev
FN:91,_ZNSoD2Ev
FN:505,_ZStlsISt11char_traitsIcEERSt13basic_ostreamIcT_ES5_PKc
FN:559,_ZSt5flushIcSt11char_traitsIcEERSt13basic_ostreamIT_T0_ES6_
FN:538,_ZSt4endlIcSt11char_traitsIcEERSt13basic_ostreamIT_T0_ES6_
FNDA:0,_ZNSoD2Ev
FNDA:0,_ZNSolsEPFRSoS_E
FNDA:0,_ZNSoC2Ev
FNDA:0,_ZStlsISt11char_traitsIcEERSt13basic_ostreamIcT_ES5_PKc
FNDA:0,_ZSt4endlIcSt11char_traitsIcEERSt13basic_ostreamIT_T0_ES6_
FNDA:0,_ZSt5flushIcSt11char_traitsIcEERSt13basic_ostreamIT_T0_ES6_
FNF:6
FNH:0
DA:91,0
DA:108,0
DA:113,0
DA:361,0
DA:362,0
DA:505,0
DA:507,0
DA:508,0
DA:510,0
DA:512,0
DA:538,0
DA:539,0
DA:559,0
DA:560,0
BA:91,0
BA:91,0
BA:91,0
BA:91,0
BA:507,0
BA:507,0
LF:14
LH:0
end_of_record
SF:/usr/include/c++/4.4/sstream
FN:92,_ZNSt15basic_stringbufIcSt11char_traitsIcESaIcEEC1ESt13_Ios_Openmode
FN:510,_ZNSt18basic_stringstreamIcSt11char_traitsIcESaIcEEC1ESt13_Ios_Openmode
FN:537,_ZNSt18basic_stringstreamIcSt11char_traitsIcESaIcEED1Ev
FN:154,_ZNSt15basic_stringbufIcSt11char_traitsIcESaIcEE17_M_stringbuf_initESt13_Ios_Openmode
FN:144,_ZNSt15basic_stringbufIcSt11char_traitsIcESaIcEE3strERKSs
FN:566,_ZNSt18basic_stringstreamIcSt11char_traitsIcESaIcEE3strERKSs
FN:120,_ZNKSt15basic_stringbufIcSt11char_traitsIcESaIcEE3strEv
FN:556,_ZNKSt18basic_stringstreamIcSt11char_traitsIcESaIcEE3strEv
FNDA:0,_ZNSt15basic_stringbufIcSt11char_traitsIcESaIcEEC1ESt13_Ios_Openmode
FNDA:0,_ZNKSt15basic_stringbufIcSt11char_traitsIcESaIcEE3strEv
FNDA:0,_ZNSt15basic_stringbufIcSt11char_traitsIcESaIcEE3strERKSs
FNDA:0,_ZNSt15basic_stringbufIcSt11char_traitsIcESaIcEE17_M_stringbuf_initESt13_Ios_Openmode
FNDA:0,_ZNSt18basic_stringstreamIcSt11char_traitsIcESaIcEEC1ESt13_Ios_Openmode
FNDA:0,_ZNSt18basic_stringstreamIcSt11char_traitsIcESaIcEED1Ev
FNDA:0,_ZNKSt18basic_stringstreamIcSt11char_traitsIcESaIcEE3strEv
FNDA:0,_ZNSt18basic_stringstreamIcSt11char_traitsIcESaIcEE3strERKSs
FNF:8
FNH:0
DA:92,0
DA:93,0
DA:94,0
DA:120,0
DA:122,0
DA:123,0
DA:126,0
DA:127,0
DA:129,0
DA:132,0
DA:133,0
DA:144,0
DA:147,0
DA:148,0
DA:149,0
DA:154,0
DA:156,0
DA:157,0
DA:158,0
DA:159,0
DA:160,0
DA:161,0
DA:510,0
DA:511,0
DA:512,0
DA:537,0
DA:538,0
DA:556,0
DA:557,0
DA:566,0
DA:567,0
BA:123,0
BA:123,0
BA:126,0
BA:126,0
BA:158,0
BA:158,0
BA:538,0
BA:538,0
BA:538,0
BA:538,0
BA:538,0
BA:538,0
LF:31
LH:0
end_of_record
SF:/usr/include/c++/4.4/streambuf
FN:508,_ZNKSt15basic_streambufIcSt11char_traitsIcEE4pptrEv
FN:464,_ZNKSt15basic_streambufIcSt11char_traitsIcEE5egptrEv
FN:505,_ZNKSt15basic_streambufIcSt11char_traitsIcEE5pbaseEv
FN:439,_ZNSt15basic_streambufIcSt11char_traitsIcEEC2Ev
FN:192,_ZNSt15basic_streambufIcSt11char_traitsIcEED2Ev
FNDA:0,_ZNSt15basic_streambufIcSt11char_traitsIcEED2Ev
FNDA:0,_ZNSt15basic_streambufIcSt11char_traitsIcEEC2Ev
FNDA:0,_ZNKSt15basic_streambufIcSt11char_traitsIcEE5egptrEv
FNDA:0,_ZNKSt15basic_streambufIcSt11char_traitsIcEE5pbaseEv
FNDA:0,_ZNKSt15basic_streambufIcSt11char_traitsIcEE4pptrEv
FNF:5
FNH:0
DA:192,0
DA:193,0
DA:439,0
DA:442,0
DA:443,0
DA:464,0
DA:505,0
DA:508,0
BA:193,0
BA:193,0
LF:8
LH:0
end_of_record
SF:/usr/include/glibmm-2.4/glibmm/propertyproxy.h
FN:144,_ZNK4Glib13PropertyProxyIbE9get_valueEv
FN:75,_ZNK4Glib13PropertyProxyIbEcvbEv
FNDA:0,_ZNK4Glib13PropertyProxyIbEcvbEv
FNDA:0,_ZNK4Glib13PropertyProxyIbE9get_valueEv
FNF:2
FNH:0
DA:75,0
DA:76,0
DA:144,0
DA:146,0
DA:147,0
DA:149,0
DA:150,0
LF:7
LH:0
end_of_record
SF:/usr/include/glibmm-2.4/glibmm/refptr.h
FN:194,_ZN4Glib6RefPtrIN3Gtk7BuilderEEC1ERKS3_
FN:181,_ZN4Glib6RefPtrIN3Gtk7BuilderEED1Ev
FN:175,_ZN4Glib6RefPtrIN3Gtk10AccelGroupEEC1Ev
FN:181,_ZN4Glib6RefPtrIN3Gtk10AccelGroupEED1Ev
FN:175,_ZN4Glib6RefPtrIN3Gtk8MenuItemEEC1Ev
FN:181,_ZN4Glib6RefPtrIN3Gtk8MenuItemEED1Ev
FN:175,_ZN4Glib6RefPtrIN3Gtk13CheckMenuItemEEC1Ev
FN:181,_ZN4Glib6RefPtrIN3Gtk13CheckMenuItemEED1Ev
FN:175,_ZN4Glib6RefPtrIN3Gdk6PixbufEEC1Ev
FN:181,_ZN4Glib6RefPtrIN3Gdk6PixbufEED1Ev
FN:282,_ZNK4Glib6RefPtrIN3Gdk6PixbufEEcvbEv
FN:169,_ZNK4Glib6RefPtrIN3Gtk7BuilderEEptEv
FN:181,_ZN4Glib6RefPtrINS_6ObjectEED1Ev
FN:282,_ZNK4Glib6RefPtrIN3Gtk10AccelGroupEEcvbEv
FN:282,_ZNK4Glib6RefPtrIN3Gtk8MenuItemEEcvbEv
FN:282,_ZNK4Glib6RefPtrIN3Gtk13CheckMenuItemEEcvbEv
FN:169,_ZNK4Glib6RefPtrIN3Gtk8MenuItemEEptEv
FN:169,_ZNK4Glib6RefPtrIN3Gtk13CheckMenuItemEEptEv
FN:175,_ZN4Glib6RefPtrIN3Gdk6WindowEEC1Ev
FN:181,_ZN4Glib6RefPtrIN3Gdk6WindowEED1Ev
FN:282,_ZNK4Glib6RefPtrIN3Gdk6WindowEEcvbEv
FN:169,_ZNK4Glib6RefPtrIN3Gdk6WindowEEptEv
FN:194,_ZN4Glib6RefPtrIN3Gdk6PixbufEEC1ERKS3_
FN:220,_ZN4Glib6RefPtrIN3Gdk6PixbufEE4swapERS3_
FN:188,_ZN4Glib6RefPtrIN3Gtk7BuilderEEC1EPS2_
FN:169,_ZNK4Glib6RefPtrINS_6ObjectEEptEv
FN:188,_ZN4Glib6RefPtrIN3Gtk10AccelGroupEEC1EPS2_
FN:194,_ZN4Glib6RefPtrIN3Gtk10AccelGroupEEC1ERKS3_
FN:220,_ZN4Glib6RefPtrIN3Gtk10AccelGroupEE4swapERS3_
FN:188,_ZN4Glib6RefPtrIN3Gtk8MenuItemEEC1EPS2_
FN:194,_ZN4Glib6RefPtrIN3Gtk8MenuItemEEC1ERKS3_
FN:220,_ZN4Glib6RefPtrIN3Gtk8MenuItemEE4swapERS3_
FN:188,_ZN4Glib6RefPtrIN3Gtk13CheckMenuItemEEC1EPS2_
FN:194,_ZN4Glib6RefPtrIN3Gtk13CheckMenuItemEEC1ERKS3_
FN:220,_ZN4Glib6RefPtrIN3Gtk13CheckMenuItemEE4swapERS3_
FN:194,_ZN4Glib6RefPtrIN3Gdk6WindowEEC1ERKS3_
FN:220,_ZN4Glib6RefPtrIN3Gdk6WindowEE4swapERS3_
FN:228,_ZN4Glib6RefPtrIN3Gdk6WindowEEaSERKS3_
FN:228,_ZN4Glib6RefPtrIN3Gdk6PixbufEEaSERKS3_
FN:296,_ZN4Glib6RefPtrIN3Gdk6PixbufEE5resetEv
FN:228,_ZN4Glib6RefPtrIN3Gtk10AccelGroupEEaSERKS3_
FN:228,_ZN4Glib6RefPtrIN3Gtk13CheckMenuItemEEaSERKS3_
FN:228,_ZN4Glib6RefPtrIN3Gtk8MenuItemEEaSERKS3_
FN:305,_ZN4Glib6RefPtrIN3Gtk10AccelGroupEE12cast_dynamicINS_6ObjectEEES3_RKNS0_IT_EE
FN:305,_ZN4Glib6RefPtrIN3Gtk13CheckMenuItemEE12cast_dynamicINS_6ObjectEEES3_RKNS0_IT_EE
FN:305,_ZN4Glib6RefPtrIN3Gtk8MenuItemEE12cast_dynamicINS_6ObjectEEES3_RKNS0_IT_EE
FNDA:0,_ZNK4Glib6RefPtrIN3Gtk7BuilderEEptEv
FNDA:0,_ZNK4Glib6RefPtrIN3Gtk8MenuItemEEptEv
FNDA:0,_ZNK4Glib6RefPtrIN3Gtk13CheckMenuItemEEptEv
FNDA:0,_ZNK4Glib6RefPtrIN3Gdk6WindowEEptEv
FNDA:0,_ZNK4Glib6RefPtrINS_6ObjectEEptEv
FNDA:0,_ZN4Glib6RefPtrIN3Gtk10AccelGroupEEC1Ev
FNDA:0,_ZN4Glib6RefPtrIN3Gtk8MenuItemEEC1Ev
FNDA:0,_ZN4Glib6RefPtrIN3Gtk13CheckMenuItemEEC1Ev
FNDA:0,_ZN4Glib6RefPtrIN3Gdk6PixbufEEC1Ev
FNDA:0,_ZN4Glib6RefPtrIN3Gdk6WindowEEC1Ev
FNDA:0,_ZN4Glib6RefPtrIN3Gtk7BuilderEED1Ev
FNDA:0,_ZN4Glib6RefPtrIN3Gtk10AccelGroupEED1Ev
FNDA:0,_ZN4Glib6RefPtrIN3Gtk8MenuItemEED1Ev
FNDA:0,_ZN4Glib6RefPtrIN3Gtk13CheckMenuItemEED1Ev
FNDA:0,_ZN4Glib6RefPtrIN3Gdk6PixbufEED1Ev
FNDA:0,_ZN4Glib6RefPtrINS_6ObjectEED1Ev
FNDA:0,_ZN4Glib6RefPtrIN3Gdk6WindowEED1Ev
FNDA:0,_ZN4Glib6RefPtrIN3Gtk7BuilderEEC1EPS2_
FNDA:0,_ZN4Glib6RefPtrIN3Gtk10AccelGroupEEC1EPS2_
FNDA:0,_ZN4Glib6RefPtrIN3Gtk8MenuItemEEC1EPS2_
FNDA:0,_ZN4Glib6RefPtrIN3Gtk13CheckMenuItemEEC1EPS2_
FNDA:0,_ZN4Glib6RefPtrIN3Gtk7BuilderEEC1ERKS3_
FNDA:0,_ZN4Glib6RefPtrIN3Gdk6PixbufEEC1ERKS3_
FNDA:0,_ZN4Glib6RefPtrIN3Gtk10AccelGroupEEC1ERKS3_
FNDA:0,_ZN4Glib6RefPtrIN3Gtk8MenuItemEEC1ERKS3_
FNDA:0,_ZN4Glib6RefPtrIN3Gtk13CheckMenuItemEEC1ERKS3_
FNDA:0,_ZN4Glib6RefPtrIN3Gdk6WindowEEC1ERKS3_
FNDA:0,_ZN4Glib6RefPtrIN3Gdk6PixbufEE4swapERS3_
FNDA:0,_ZN4Glib6RefPtrIN3Gtk10AccelGroupEE4swapERS3_
FNDA:0,_ZN4Glib6RefPtrIN3Gtk8MenuItemEE4swapERS3_
FNDA:0,_ZN4Glib6RefPtrIN3Gtk13CheckMenuItemEE4swapERS3_
FNDA:0,_ZN4Glib6RefPtrIN3Gdk6WindowEE4swapERS3_
FNDA:0,_ZN4Glib6RefPtrIN3Gdk6WindowEEaSERKS3_
FNDA:0,_ZN4Glib6RefPtrIN3Gdk6PixbufEEaSERKS3_
FNDA:0,_ZN4Glib6RefPtrIN3Gtk10AccelGroupEEaSERKS3_
FNDA:0,_ZN4Glib6RefPtrIN3Gtk13CheckMenuItemEEaSERKS3_
FNDA:0,_ZN4Glib6RefPtrIN3Gtk8MenuItemEEaSERKS3_
FNDA:0,_ZNK4Glib6RefPtrIN3Gdk6PixbufEEcvbEv
FNDA:0,_ZNK4Glib6RefPtrIN3Gtk10AccelGroupEEcvbEv
FNDA:0,_ZNK4Glib6RefPtrIN3Gtk8MenuItemEEcvbEv
FNDA:0,_ZNK4Glib6RefPtrIN3Gtk13CheckMenuItemEEcvbEv
FNDA:0,_ZNK4Glib6RefPtrIN3Gdk6WindowEEcvbEv
FNDA:0,_ZN4Glib6RefPtrIN3Gdk6PixbufEE5resetEv
FNDA:0,_ZN4Glib6RefPtrIN3Gtk10AccelGroupEE12cast_dynamicINS_6ObjectEEES3_RKNS0_IT_EE
FNDA:0,_ZN4Glib6RefPtrIN3Gtk13CheckMenuItemEE12cast_dynamicINS_6ObjectEEES3_RKNS0_IT_EE
FNDA:0,_ZN4Glib6RefPtrIN3Gtk8MenuItemEE12cast_dynamicINS_6ObjectEEES3_RKNS0_IT_EE
FNF:46
FNH:0
DA:169,0
DA:171,0
DA:175,0
DA:177,0
DA:178,0
DA:181,0
DA:183,0
DA:184,0
DA:185,0
DA:188,0
DA:190,0
DA:191,0
DA:194,0
DA:196,0
DA:198,0
DA:199,0
DA:200,0
DA:220,0
DA:222,0
DA:223,0
DA:224,0
DA:225,0
DA:228,0
DA:254,0
DA:255,0
DA:256,0
DA:282,0
DA:284,0
DA:296,0
DA:298,0
DA:299,0
DA:300,0
DA:305,0
DA:307,0
DA:309,0
DA:310,0
DA:312,0
BA:183,0
BA:183,0
BA:183,0
BA:183,0
BA:183,0
BA:183,0
BA:183,0
BA:183,0
BA:183,0
BA:183,0
BA:183,0
BA:183,0
BA:183,0
BA:183,0
BA:198,0
BA:198,0
BA:198,0
BA:198,0
BA:198,0
BA:198,0
BA:198,0
BA:198,0
BA:198,0
BA:198,0
BA:198,0
BA:198,0
BA:307,0
BA:307,0
BA:307,0
BA:307,0
BA:307,0
BA:307,0
BA:309,0
BA:309,0
BA:309,0
BA:309,0
BA:309,0
BA:309,0
LF:37
LH:0
end_of_record
SF:/usr/include/glibmm-2.4/glibmm/signalproxy.h
FN:183,_ZN4Glib12SignalProxy1IbP12_GdkEventAnyE7connectERKN4sigc4slotIbS2_NS4_3nilES6_S6_S6_S6_S6_EEb
FN:145,_ZN4Glib12SignalProxy0IvE7connectERKN4sigc4slotIvNS2_3nilES4_S4_S4_S4_S4_S4_EEb
FN:169,_ZN4Glib12SignalProxy1IbP12_GdkEventAnyED1Ev
FN:131,_ZN4Glib12SignalProxy0IvED1Ev
FNDA:0,_ZN4Glib12SignalProxy0IvED1Ev
FNDA:0,_ZN4Glib12SignalProxy0IvE7connectERKN4sigc4slotIvNS2_3nilES4_S4_S4_S4_S4_S4_EEb
FNDA:0,_ZN4Glib12SignalProxy1IbP12_GdkEventAnyED1Ev
FNDA:0,_ZN4Glib12SignalProxy1IbP12_GdkEventAnyE7connectERKN4sigc4slotIbS2_NS4_3nilES6_S6_S6_S6_S6_EEb
FNF:4
FNH:0
DA:131,0
DA:145,0
DA:146,0
DA:169,0
DA:183,0
DA:184,0
LF:6
LH:0
end_of_record
SF:/usr/include/glibmm-2.4/glibmm/value_basictypes.h
FN:24,_ZN4Glib5ValueIbEC1Ev
FN:24,_ZN4Glib5ValueIbED1Ev
FNDA:0,_ZN4Glib5ValueIbEC1Ev
FNDA:0,_ZN4Glib5ValueIbED1Ev
FNF:2
FNH:0
DA:24,0
LF:1
LH:0
end_of_record
SF:/usr/include/gtkmm-2.4/gtkmm/builder.h
FN:518,_ZN3Gtk7Builder18get_widget_derivedI12ConfigDialogEEvRKN4Glib7ustringERPT_
FN:518,_ZN3Gtk7Builder18get_widget_derivedI11AboutDialogEEvRKN4Glib7ustringERPT_
FN:518,_ZN3Gtk7Builder18get_widget_derivedI14TableEditPieceEEvRKN4Glib7ustringERPT_
FN:489,_ZN3Gtk7Builder10get_widgetINS_4VBoxEEEvRKN4Glib7ustringERPT_
FN:489,_ZN3Gtk7Builder10get_widgetINS_4HBoxEEEvRKN4Glib7ustringERPT_
FNDA:0,_ZN3Gtk7Builder10get_widgetINS_4VBoxEEEvRKN4Glib7ustringERPT_
FNDA:0,_ZN3Gtk7Builder10get_widgetINS_4HBoxEEEvRKN4Glib7ustringERPT_
FNDA:0,_ZN3Gtk7Builder18get_widget_derivedI12ConfigDialogEEvRKN4Glib7ustringERPT_
FNDA:0,_ZN3Gtk7Builder18get_widget_derivedI11AboutDialogEEvRKN4Glib7ustringERPT_
FNDA:0,_ZN3Gtk7Builder18get_widget_derivedI14TableEditPieceEEvRKN4Glib7ustringERPT_
FNF:5
FNH:0
DA:489,0
DA:492,0
DA:495,0
DA:497,0
DA:498,0
DA:499,0
DA:518,0
DA:521,0
DA:525,0
DA:528,0
DA:529,0
DA:532,0
DA:535,0
DA:537,0
DA:543,0
DA:544,0
DA:551,0
DA:552,0
DA:553,0
DA:554,0
BA:495,0
BA:495,0
BA:495,0
BA:495,0
BA:497,0
BA:497,0
BA:497,0
BA:497,0
BA:528,0
BA:528,0
BA:528,0
BA:528,0
BA:528,0
BA:528,0
BA:535,0
BA:535,0
BA:535,0
BA:535,0
BA:535,0
BA:535,0
BA:537,0
BA:537,0
BA:537,0
BA:537,0
BA:537,0
BA:537,0
BA:543,0
BA:543,0
BA:543,0
BA:543,0
BA:543,0
BA:543,0
LF:20
LH:0
end_of_record
SF:/usr/include/gtkmm-2.4/gtkmm/papersize.h
DA:37,17
DA:38,17
DA:39,17
DA:40,17
DA:41,17
DA:42,17
DA:43,17
LF:7
LH:7
end_of_record
SF:/usr/include/sigc++-2.0/sigc++/adaptors/adaptor_trait.h
FN:60,_ZN4sigc15adaptor_functorINS_18bound_mem_functor0Iv10MainWindowEEED1Ev
FN:231,_ZN4sigc15adaptor_functorINS_18bound_mem_functor0Iv10MainWindowEEEC1ERKS3_
FN:60,_ZN4sigc15adaptor_functorINS_18bound_mem_functor4Iv10MainWindowRK5PieceRK10CoordinateN7Game1v116eGame1v1Player_tEiEEED1Ev
FN:231,_ZN4sigc15adaptor_functorINS_18bound_mem_functor4Iv10MainWindowRK5PieceRK10CoordinateN7Game1v116eGame1v1Player_tEiEEEC1ERKSB_
FN:60,_ZN4sigc15adaptor_functorINS_18bound_mem_functor1Iv14TableEditPiece12ePieceType_tEEED1Ev
FN:231,_ZN4sigc15adaptor_functorINS_18bound_mem_functor1Iv14TableEditPiece12ePieceType_tEEEC1ERKS4_
FN:60,_ZN4sigc15adaptor_functorINS_18bound_mem_functor1Iv16DrawingAreaBoardRK5PieceEEED1Ev
FN:231,_ZN4sigc15adaptor_functorINS_18bound_mem_functor1Iv16DrawingAreaBoardRK5PieceEEEC1ERKS6_
FN:60,_ZN4sigc15adaptor_functorINS_18bound_mem_functor3Iv10MainWindowRK10CoordinateRK5PieceRK6PlayerEEED1Ev
FN:231,_ZN4sigc15adaptor_functorINS_18bound_mem_functor3Iv10MainWindowRK10CoordinateRK5PieceRK6PlayerEEEC1ERKSC_
FN:60,_ZN4sigc15adaptor_functorINS_18bound_mem_functor1Ib10MainWindowP12_GdkEventAnyEEED1Ev
FN:231,_ZN4sigc15adaptor_functorINS_18bound_mem_functor1Ib10MainWindowP12_GdkEventAnyEEEC1ERKS5_
FN:143,_ZNK4sigc15adaptor_functorINS_18bound_mem_functor4Iv10MainWindowRK5PieceRK10CoordinateN7Game1v116eGame1v1Player_tEiEEEclIS5_S8_RKSA_RKiEENSC_18deduce_result_typeIT_T0_T1_T2_vvvE4typeESJ_SK_SL_SM_
FN:122,_ZNK4sigc15adaptor_functorINS_18bound_mem_functor3Iv10MainWindowRK10CoordinateRK5PieceRK6PlayerEEEclIS5_S8_SB_EENSD_18deduce_result_typeIT_T0_T1_vvvvE4typeESG_SH_SI_
FN:83,_ZNK4sigc15adaptor_functorINS_18bound_mem_functor1Ib10MainWindowP12_GdkEventAnyEEEclIRKS4_EENS6_18deduce_result_typeIT_vvvvvvE4typeESB_
FN:250,_ZNK4sigc15adaptor_functorINS_18bound_mem_functor0Iv10MainWindowEEEclEv
FN:83,_ZNK4sigc15adaptor_functorINS_18bound_mem_functor1Iv14TableEditPiece12ePieceType_tEEEclIRKS3_EENS5_18deduce_result_typeIT_vvvvvvE4typeESA_
FN:83,_ZNK4sigc15adaptor_functorINS_18bound_mem_functor1Iv16DrawingAreaBoardRK5PieceEEEclIS5_EENS7_18deduce_result_typeIT_vvvvvvE4typeESA_
FN:262,_ZN4sigc10visit_eachINS_8internal20limit_derived_targetIPNS_9trackableENS1_12slot_do_bindEEENS_18bound_mem_functor4Iv10MainWindowRK5PieceRK10CoordinateN7Game1v116eGame1v1Player_tEiEEEEvRKT_RKNS_15adaptor_functorIT0_EE
FN:262,_ZN4sigc10visit_eachINS_8internal20limit_derived_targetIPNS_9trackableENS1_12slot_do_bindEEENS_18bound_mem_functor3Iv10MainWindowRK10CoordinateRK5PieceRK6PlayerEEEEvRKT_RKNS_15adaptor_functorIT0_EE
FN:262,_ZN4sigc10visit_eachINS_8internal20limit_derived_targetIPNS_9trackableENS1_12slot_do_bindEEENS_18bound_mem_functor1Ib10MainWindowP12_GdkEventAnyEEEEvRKT_RKNS_15adaptor_functorIT0_EE
FN:262,_ZN4sigc10visit_eachINS_8internal20limit_derived_targetIPNS_9trackableENS1_12slot_do_bindEEENS_18bound_mem_functor0Iv10MainWindowEEEEvRKT_RKNS_15adaptor_functorIT0_EE
FN:262,_ZN4sigc10visit_eachINS_8internal20limit_derived_targetIPNS_9trackableENS1_12slot_do_bindEEENS_18bound_mem_functor1Iv14TableEditPiece12ePieceType_tEEEEvRKT_RKNS_15adaptor_functorIT0_EE
FN:262,_ZN4sigc10visit_eachINS_8internal20limit_derived_targetIPNS_9trackableENS1_12slot_do_bindEEENS_18bound_mem_functor1Iv16DrawingAreaBoardRK5PieceEEEEvRKT_RKNS_15adaptor_functorIT0_EE
FN:262,_ZN4sigc10visit_eachINS_8internal20limit_derived_targetIPNS_9trackableENS1_14slot_do_unbindEEENS_18bound_mem_functor4Iv10MainWindowRK5PieceRK10CoordinateN7Game1v116eGame1v1Player_tEiEEEEvRKT_RKNS_15adaptor_functorIT0_EE
FN:262,_ZN4sigc10visit_eachINS_8internal20limit_derived_targetIPNS_9trackableENS1_14slot_do_unbindEEENS_18bound_mem_functor3Iv10MainWindowRK10CoordinateRK5PieceRK6PlayerEEEEvRKT_RKNS_15adaptor_functorIT0_EE
FN:262,_ZN4sigc10visit_eachINS_8internal20limit_derived_targetIPNS_9trackableENS1_14slot_do_unbindEEENS_18bound_mem_functor1Ib10MainWindowP12_GdkEventAnyEEEEvRKT_RKNS_15adaptor_functorIT0_EE
FN:262,_ZN4sigc10visit_eachINS_8internal20limit_derived_targetIPNS_9trackableENS1_14slot_do_unbindEEENS_18bound_mem_functor0Iv10MainWindowEEEEvRKT_RKNS_15adaptor_functorIT0_EE
FN:262,_ZN4sigc10visit_eachINS_8internal20limit_derived_targetIPNS_9trackableENS1_14slot_do_unbindEEENS_18bound_mem_functor1Iv14TableEditPiece12ePieceType_tEEEEvRKT_RKNS_15adaptor_functorIT0_EE
FN:262,_ZN4sigc10visit_eachINS_8internal20limit_derived_targetIPNS_9trackableENS1_14slot_do_unbindEEENS_18bound_mem_functor1Iv16DrawingAreaBoardRK5PieceEEEEvRKT_RKNS_15adaptor_functorIT0_EE
FNDA:0,_ZN4sigc15adaptor_functorINS_18bound_mem_functor0Iv10MainWindowEEED1Ev
FNDA:0,_ZN4sigc15adaptor_functorINS_18bound_mem_functor4Iv10MainWindowRK5PieceRK10CoordinateN7Game1v116eGame1v1Player_tEiEEED1Ev
FNDA:0,_ZN4sigc15adaptor_functorINS_18bound_mem_functor1Iv14TableEditPiece12ePieceType_tEEED1Ev
FNDA:0,_ZN4sigc15adaptor_functorINS_18bound_mem_functor1Iv16DrawingAreaBoardRK5PieceEEED1Ev
FNDA:0,_ZN4sigc15adaptor_functorINS_18bound_mem_functor3Iv10MainWindowRK10CoordinateRK5PieceRK6PlayerEEED1Ev
FNDA:0,_ZN4sigc15adaptor_functorINS_18bound_mem_functor1Ib10MainWindowP12_GdkEventAnyEEED1Ev
FNDA:0,_ZNK4sigc15adaptor_functorINS_18bound_mem_functor1Ib10MainWindowP12_GdkEventAnyEEEclIRKS4_EENS6_18deduce_result_typeIT_vvvvvvE4typeESB_
FNDA:0,_ZNK4sigc15adaptor_functorINS_18bound_mem_functor1Iv14TableEditPiece12ePieceType_tEEEclIRKS3_EENS5_18deduce_result_typeIT_vvvvvvE4typeESA_
FNDA:0,_ZNK4sigc15adaptor_functorINS_18bound_mem_functor1Iv16DrawingAreaBoardRK5PieceEEEclIS5_EENS7_18deduce_result_typeIT_vvvvvvE4typeESA_
FNDA:0,_ZNK4sigc15adaptor_functorINS_18bound_mem_functor3Iv10MainWindowRK10CoordinateRK5PieceRK6PlayerEEEclIS5_S8_SB_EENSD_18deduce_result_typeIT_T0_T1_vvvvE4typeESG_SH_SI_
FNDA:0,_ZNK4sigc15adaptor_functorINS_18bound_mem_functor4Iv10MainWindowRK5PieceRK10CoordinateN7Game1v116eGame1v1Player_tEiEEEclIS5_S8_RKSA_RKiEENSC_18deduce_result_typeIT_T0_T1_T2_vvvE4typeESJ_SK_SL_SM_
FNDA:0,_ZN4sigc15adaptor_functorINS_18bound_mem_functor0Iv10MainWindowEEEC1ERKS3_
FNDA:0,_ZN4sigc15adaptor_functorINS_18bound_mem_functor4Iv10MainWindowRK5PieceRK10CoordinateN7Game1v116eGame1v1Player_tEiEEEC1ERKSB_
FNDA:0,_ZN4sigc15adaptor_functorINS_18bound_mem_functor1Iv14TableEditPiece12ePieceType_tEEEC1ERKS4_
FNDA:0,_ZN4sigc15adaptor_functorINS_18bound_mem_functor1Iv16DrawingAreaBoardRK5PieceEEEC1ERKS6_
FNDA:0,_ZN4sigc15adaptor_functorINS_18bound_mem_functor3Iv10MainWindowRK10CoordinateRK5PieceRK6PlayerEEEC1ERKSC_
FNDA:0,_ZN4sigc15adaptor_functorINS_18bound_mem_functor1Ib10MainWindowP12_GdkEventAnyEEEC1ERKS5_
FNDA:0,_ZNK4sigc15adaptor_functorINS_18bound_mem_functor0Iv10MainWindowEEEclEv
FNDA:0,_ZN4sigc10visit_eachINS_8internal20limit_derived_targetIPNS_9trackableENS1_12slot_do_bindEEENS_18bound_mem_functor4Iv10MainWindowRK5PieceRK10CoordinateN7Game1v116eGame1v1Player_tEiEEEEvRKT_RKNS_15adaptor_functorIT0_EE
FNDA:0,_ZN4sigc10visit_eachINS_8internal20limit_derived_targetIPNS_9trackableENS1_12slot_do_bindEEENS_18bound_mem_functor3Iv10MainWindowRK10CoordinateRK5PieceRK6PlayerEEEEvRKT_RKNS_15adaptor_functorIT0_EE
FNDA:0,_ZN4sigc10visit_eachINS_8internal20limit_derived_targetIPNS_9trackableENS1_12slot_do_bindEEENS_18bound_mem_functor1Ib10MainWindowP12_GdkEventAnyEEEEvRKT_RKNS_15adaptor_functorIT0_EE
FNDA:0,_ZN4sigc10visit_eachINS_8internal20limit_derived_targetIPNS_9trackableENS1_12slot_do_bindEEENS_18bound_mem_functor0Iv10MainWindowEEEEvRKT_RKNS_15adaptor_functorIT0_EE
FNDA:0,_ZN4sigc10visit_eachINS_8internal20limit_derived_targetIPNS_9trackableENS1_12slot_do_bindEEENS_18bound_mem_functor1Iv14TableEditPiece12ePieceType_tEEEEvRKT_RKNS_15adaptor_functorIT0_EE
FNDA:0,_ZN4sigc10visit_eachINS_8internal20limit_derived_targetIPNS_9trackableENS1_12slot_do_bindEEENS_18bound_mem_functor1Iv16DrawingAreaBoardRK5PieceEEEEvRKT_RKNS_15adaptor_functorIT0_EE
FNDA:0,_ZN4sigc10visit_eachINS_8internal20limit_derived_targetIPNS_9trackableENS1_14slot_do_unbindEEENS_18bound_mem_functor4Iv10MainWindowRK5PieceRK10CoordinateN7Game1v116eGame1v1Player_tEiEEEEvRKT_RKNS_15adaptor_functorIT0_EE
FNDA:0,_ZN4sigc10visit_eachINS_8internal20limit_derived_targetIPNS_9trackableENS1_14slot_do_unbindEEENS_18bound_mem_functor3Iv10MainWindowRK10CoordinateRK5PieceRK6PlayerEEEEvRKT_RKNS_15adaptor_functorIT0_EE
FNDA:0,_ZN4sigc10visit_eachINS_8internal20limit_derived_targetIPNS_9trackableENS1_14slot_do_unbindEEENS_18bound_mem_functor1Ib10MainWindowP12_GdkEventAnyEEEEvRKT_RKNS_15adaptor_functorIT0_EE
FNDA:0,_ZN4sigc10visit_eachINS_8internal20limit_derived_targetIPNS_9trackableENS1_14slot_do_unbindEEENS_18bound_mem_functor0Iv10MainWindowEEEEvRKT_RKNS_15adaptor_functorIT0_EE
FNDA:0,_ZN4sigc10visit_eachINS_8internal20limit_derived_targetIPNS_9trackableENS1_14slot_do_unbindEEENS_18bound_mem_functor1Iv14TableEditPiece12ePieceType_tEEEEvRKT_RKNS_15adaptor_functorIT0_EE
FNDA:0,_ZN4sigc10visit_eachINS_8internal20limit_derived_targetIPNS_9trackableENS1_14slot_do_unbindEEENS_18bound_mem_functor1Iv16DrawingAreaBoardRK5PieceEEEEvRKT_RKNS_15adaptor_functorIT0_EE
FNF:30
FNH:0
DA:60,0
DA:83,0
DA:84,0
DA:122,0
DA:123,0
DA:143,0
DA:144,0
DA:231,0
DA:232,0
DA:233,0
DA:250,0
DA:251,0
DA:262,0
DA:267,0
DA:268,0
LF:15
LH:0
end_of_record
SF:/usr/include/sigc++-2.0/sigc++/adaptors/deduce_result_type.h
FN:28,_ZN4sigc12adaptor_baseC2Ev
FNDA:0,_ZN4sigc12adaptor_baseC2Ev
FNF:1
FNH:0
DA:28,0
LF:1
LH:0
end_of_record
SF:/usr/include/sigc++-2.0/sigc++/functors/functor_trait.h
FN:64,_ZN4sigc12functor_baseC2Ev
FNDA:0,_ZN4sigc12functor_baseC2Ev
FNF:1
FNH:0
DA:64,0
LF:1
LH:0
end_of_record
SF:/usr/include/sigc++-2.0/sigc++/functors/mem_fun.h
FN:89,_ZN4sigc12mem_functor0Iv10MainWindowEC2EMS1_FvvE
FN:1778,_ZN4sigc18bound_mem_functor0Iv10MainWindowEC1ERS1_MS1_FvvE
FN:5452,_ZN4sigc7mem_funIv10MainWindowS1_EENS_18bound_mem_functor0IT_T0_EERS4_MT1_FS3_vE
FN:279,_ZN4sigc12mem_functor4Iv10MainWindowRK5PieceRK10CoordinateN7Game1v116eGame1v1Player_tEiEC2EMS1_FvS4_S7_S9_iE
FN:2042,_ZN4sigc18bound_mem_functor4Iv10MainWindowRK5PieceRK10CoordinateN7Game1v116eGame1v1Player_tEiEC1ERS1_MS1_FvS4_S7_S9_iE
FN:5548,_ZN4sigc7mem_funIRK5PieceRK10CoordinateN7Game1v116eGame1v1Player_tEiv10MainWindowS9_EENS_18bound_mem_functor4IT3_T4_T_T0_T1_T2_EERSC_MT5_FSB_SD_SE_SF_SG_E
FN:132,_ZN4sigc12mem_functor1Iv14TableEditPiece12ePieceType_tEC2EMS1_FvS2_E
FN:1841,_ZN4sigc18bound_mem_functor1Iv14TableEditPiece12ePieceType_tEC1ERS1_MS1_FvS2_E
FN:5476,_ZN4sigc7mem_funI12ePieceType_tv14TableEditPieceS2_EENS_18bound_mem_functor1IT0_T1_T_EERS5_MT2_FS4_S6_E
FN:132,_ZN4sigc12mem_functor1Iv16DrawingAreaBoardRK5PieceEC2EMS1_FvS4_E
FN:1841,_ZN4sigc18bound_mem_functor1Iv16DrawingAreaBoardRK5PieceEC1ERS1_MS1_FvS4_E
FN:5476,_ZN4sigc7mem_funIRK5Piecev16DrawingAreaBoardS4_EENS_18bound_mem_functor1IT0_T1_T_EERS7_MT2_FS6_S8_E
FN:227,_ZN4sigc12mem_functor3Iv10MainWindowRK10CoordinateRK5PieceRK6PlayerEC2EMS1_FvS4_S7_SA_E
FN:1973,_ZN4sigc18bound_mem_functor3Iv10MainWindowRK10CoordinateRK5PieceRK6PlayerEC1ERS1_MS1_FvS4_S7_SA_E
FN:5524,_ZN4sigc7mem_funIRK10CoordinateRK5PieceRK6Playerv10MainWindowSA_EENS_18bound_mem_functor3IT2_T3_T_T0_T1_EERSD_MT4_FSC_SE_SF_SG_E
FN:132,_ZN4sigc12mem_functor1Ib10MainWindowP12_GdkEventAnyEC2EMS1_FbS3_E
FN:1841,_ZN4sigc18bound_mem_functor1Ib10MainWindowP12_GdkEventAnyEC1ERS1_MS1_FbS3_E
FN:5476,_ZN4sigc7mem_funIP12_GdkEventAnyb10MainWindowS3_EENS_18bound_mem_functor1IT0_T1_T_EERS6_MT2_FS5_S7_E
FN:2054,_ZNK4sigc18bound_mem_functor4Iv10MainWindowRK5PieceRK10CoordinateN7Game1v116eGame1v1Player_tEiEclES4_S7_RKS9_RKi
FN:1984,_ZNK4sigc18bound_mem_functor3Iv10MainWindowRK10CoordinateRK5PieceRK6PlayerEclES4_S7_SA_
FN:1850,_ZNK4sigc18bound_mem_functor1Ib10MainWindowP12_GdkEventAnyEclERKS3_
FN:1786,_ZNK4sigc18bound_mem_functor0Iv10MainWindowEclEv
FN:1850,_ZNK4sigc18bound_mem_functor1Iv14TableEditPiece12ePieceType_tEclERKS2_
FN:1850,_ZNK4sigc18bound_mem_functor1Iv16DrawingAreaBoardRK5PieceEclES4_
FN:2071,_ZN4sigc10visit_eachINS_8internal20limit_derived_targetIPNS_9trackableENS1_12slot_do_bindEEEv10MainWindowRK5PieceRK10CoordinateN7Game1v116eGame1v1Player_tEiEEvRKT_RKNS_18bound_mem_functor4IT0_T1_T2_T3_T4_T5_EE
FN:2001,_ZN4sigc10visit_eachINS_8internal20limit_derived_targetIPNS_9trackableENS1_12slot_do_bindEEEv10MainWindowRK10CoordinateRK5PieceRK6PlayerEEvRKT_RKNS_18bound_mem_functor3IT0_T1_T2_T3_T4_EE
FN:1867,_ZN4sigc10visit_eachINS_8internal20limit_derived_targetIPNS_9trackableENS1_12slot_do_bindEEEb10MainWindowP12_GdkEventAnyEEvRKT_RKNS_18bound_mem_functor1IT0_T1_T2_EE
FN:1803,_ZN4sigc10visit_eachINS_8internal20limit_derived_targetIPNS_9trackableENS1_12slot_do_bindEEEv10MainWindowEEvRKT_RKNS_18bound_mem_functor0IT0_T1_EE
FN:1867,_ZN4sigc10visit_eachINS_8internal20limit_derived_targetIPNS_9trackableENS1_12slot_do_bindEEEv14TableEditPiece12ePieceType_tEEvRKT_RKNS_18bound_mem_functor1IT0_T1_T2_EE
FN:1867,_ZN4sigc10visit_eachINS_8internal20limit_derived_targetIPNS_9trackableENS1_12slot_do_bindEEEv16DrawingAreaBoardRK5PieceEEvRKT_RKNS_18bound_mem_functor1IT0_T1_T2_EE
FN:2071,_ZN4sigc10visit_eachINS_8internal20limit_derived_targetIPNS_9trackableENS1_14slot_do_unbindEEEv10MainWindowRK5PieceRK10CoordinateN7Game1v116eGame1v1Player_tEiEEvRKT_RKNS_18bound_mem_functor4IT0_T1_T2_T3_T4_T5_EE
FN:2001,_ZN4sigc10visit_eachINS_8internal20limit_derived_targetIPNS_9trackableENS1_14slot_do_unbindEEEv10MainWindowRK10CoordinateRK5PieceRK6PlayerEEvRKT_RKNS_18bound_mem_functor3IT0_T1_T2_T3_T4_EE
FN:1867,_ZN4sigc10visit_eachINS_8internal20limit_derived_targetIPNS_9trackableENS1_14slot_do_unbindEEEb10MainWindowP12_GdkEventAnyEEvRKT_RKNS_18bound_mem_functor1IT0_T1_T2_EE
FN:1803,_ZN4sigc10visit_eachINS_8internal20limit_derived_targetIPNS_9trackableENS1_14slot_do_unbindEEEv10MainWindowEEvRKT_RKNS_18bound_mem_functor0IT0_T1_EE
FN:1867,_ZN4sigc10visit_eachINS_8internal20limit_derived_targetIPNS_9trackableENS1_14slot_do_unbindEEEv14TableEditPiece12ePieceType_tEEvRKT_RKNS_18bound_mem_functor1IT0_T1_T2_EE
FN:1867,_ZN4sigc10visit_eachINS_8internal20limit_derived_targetIPNS_9trackableENS1_14slot_do_unbindEEEv16DrawingAreaBoardRK5PieceEEvRKT_RKNS_18bound_mem_functor1IT0_T1_T2_EE
FNDA:0,_ZN4sigc12mem_functor0Iv10MainWindowEC2EMS1_FvvE
FNDA:0,_ZN4sigc12mem_functor1Iv14TableEditPiece12ePieceType_tEC2EMS1_FvS2_E
FNDA:0,_ZN4sigc12mem_functor1Iv16DrawingAreaBoardRK5PieceEC2EMS1_FvS4_E
FNDA:0,_ZN4sigc12mem_functor1Ib10MainWindowP12_GdkEventAnyEC2EMS1_FbS3_E
FNDA:0,_ZN4sigc12mem_functor3Iv10MainWindowRK10CoordinateRK5PieceRK6PlayerEC2EMS1_FvS4_S7_SA_E
FNDA:0,_ZN4sigc12mem_functor4Iv10MainWindowRK5PieceRK10CoordinateN7Game1v116eGame1v1Player_tEiEC2EMS1_FvS4_S7_S9_iE
FNDA:0,_ZN4sigc18bound_mem_functor0Iv10MainWindowEC1ERS1_MS1_FvvE
FNDA:0,_ZNK4sigc18bound_mem_functor0Iv10MainWindowEclEv
FNDA:0,_ZN4sigc10visit_eachINS_8internal20limit_derived_targetIPNS_9trackableENS1_12slot_do_bindEEEv10MainWindowEEvRKT_RKNS_18bound_mem_functor0IT0_T1_EE
FNDA:0,_ZN4sigc10visit_eachINS_8internal20limit_derived_targetIPNS_9trackableENS1_14slot_do_unbindEEEv10MainWindowEEvRKT_RKNS_18bound_mem_functor0IT0_T1_EE
FNDA:0,_ZN4sigc18bound_mem_functor1Iv14TableEditPiece12ePieceType_tEC1ERS1_MS1_FvS2_E
FNDA:0,_ZN4sigc18bound_mem_functor1Iv16DrawingAreaBoardRK5PieceEC1ERS1_MS1_FvS4_E
FNDA:0,_ZN4sigc18bound_mem_functor1Ib10MainWindowP12_GdkEventAnyEC1ERS1_MS1_FbS3_E
FNDA:0,_ZNK4sigc18bound_mem_functor1Ib10MainWindowP12_GdkEventAnyEclERKS3_
FNDA:0,_ZNK4sigc18bound_mem_functor1Iv14TableEditPiece12ePieceType_tEclERKS2_
FNDA:0,_ZNK4sigc18bound_mem_functor1Iv16DrawingAreaBoardRK5PieceEclES4_
FNDA:0,_ZN4sigc10visit_eachINS_8internal20limit_derived_targetIPNS_9trackableENS1_12slot_do_bindEEEb10MainWindowP12_GdkEventAnyEEvRKT_RKNS_18bound_mem_functor1IT0_T1_T2_EE
FNDA:0,_ZN4sigc10visit_eachINS_8internal20limit_derived_targetIPNS_9trackableENS1_12slot_do_bindEEEv14TableEditPiece12ePieceType_tEEvRKT_RKNS_18bound_mem_functor1IT0_T1_T2_EE
FNDA:0,_ZN4sigc10visit_eachINS_8internal20limit_derived_targetIPNS_9trackableENS1_12slot_do_bindEEEv16DrawingAreaBoardRK5PieceEEvRKT_RKNS_18bound_mem_functor1IT0_T1_T2_EE
FNDA:0,_ZN4sigc10visit_eachINS_8internal20limit_derived_targetIPNS_9trackableENS1_14slot_do_unbindEEEb10MainWindowP12_GdkEventAnyEEvRKT_RKNS_18bound_mem_functor1IT0_T1_T2_EE
FNDA:0,_ZN4sigc10visit_eachINS_8internal20limit_derived_targetIPNS_9trackableENS1_14slot_do_unbindEEEv14TableEditPiece12ePieceType_tEEvRKT_RKNS_18bound_mem_functor1IT0_T1_T2_EE
FNDA:0,_ZN4sigc10visit_eachINS_8internal20limit_derived_targetIPNS_9trackableENS1_14slot_do_unbindEEEv16DrawingAreaBoardRK5PieceEEvRKT_RKNS_18bound_mem_functor1IT0_T1_T2_EE
FNDA:0,_ZN4sigc18bound_mem_functor3Iv10MainWindowRK10CoordinateRK5PieceRK6PlayerEC1ERS1_MS1_FvS4_S7_SA_E
FNDA:0,_ZNK4sigc18bound_mem_functor3Iv10MainWindowRK10CoordinateRK5PieceRK6PlayerEclES4_S7_SA_
FNDA:0,_ZN4sigc10visit_eachINS_8internal20limit_derived_targetIPNS_9trackableENS1_12slot_do_bindEEEv10MainWindowRK10CoordinateRK5PieceRK6PlayerEEvRKT_RKNS_18bound_mem_functor3IT0_T1_T2_T3_T4_EE
FNDA:0,_ZN4sigc10visit_eachINS_8internal20limit_derived_targetIPNS_9trackableENS1_14slot_do_unbindEEEv10MainWindowRK10CoordinateRK5PieceRK6PlayerEEvRKT_RKNS_18bound_mem_functor3IT0_T1_T2_T3_T4_EE
FNDA:0,_ZN4sigc18bound_mem_functor4Iv10MainWindowRK5PieceRK10CoordinateN7Game1v116eGame1v1Player_tEiEC1ERS1_MS1_FvS4_S7_S9_iE
FNDA:0,_ZNK4sigc18bound_mem_functor4Iv10MainWindowRK5PieceRK10CoordinateN7Game1v116eGame1v1Player_tEiEclES4_S7_RKS9_RKi
FNDA:0,_ZN4sigc10visit_eachINS_8internal20limit_derived_targetIPNS_9trackableENS1_12slot_do_bindEEEv10MainWindowRK5PieceRK10CoordinateN7Game1v116eGame1v1Player_tEiEEvRKT_RKNS_18bound_mem_functor4IT0_T1_T2_T3_T4_T5_EE
FNDA:0,_ZN4sigc10visit_eachINS_8internal20limit_derived_targetIPNS_9trackableENS1_14slot_do_unbindEEEv10MainWindowRK5PieceRK10CoordinateN7Game1v116eGame1v1Player_tEiEEvRKT_RKNS_18bound_mem_functor4IT0_T1_T2_T3_T4_T5_EE
FNDA:0,_ZN4sigc7mem_funIv10MainWindowS1_EENS_18bound_mem_functor0IT_T0_EERS4_MT1_FS3_vE
FNDA:0,_ZN4sigc7mem_funI12ePieceType_tv14TableEditPieceS2_EENS_18bound_mem_functor1IT0_T1_T_EERS5_MT2_FS4_S6_E
FNDA:0,_ZN4sigc7mem_funIRK5Piecev16DrawingAreaBoardS4_EENS_18bound_mem_functor1IT0_T1_T_EERS7_MT2_FS6_S8_E
FNDA:0,_ZN4sigc7mem_funIP12_GdkEventAnyb10MainWindowS3_EENS_18bound_mem_functor1IT0_T1_T_EERS6_MT2_FS5_S7_E
FNDA:0,_ZN4sigc7mem_funIRK10CoordinateRK5PieceRK6Playerv10MainWindowSA_EENS_18bound_mem_functor3IT2_T3_T_T0_T1_EERSD_MT4_FSC_SE_SF_SG_E
FNDA:0,_ZN4sigc7mem_funIRK5PieceRK10CoordinateN7Game1v116eGame1v1Player_tEiv10MainWindowS9_EENS_18bound_mem_functor4IT3_T4_T_T0_T1_T2_EERSC_MT5_FSB_SD_SE_SF_SG_E
FNF:36
FNH:0
DA:89,0
DA:132,0
DA:227,0
DA:279,0
DA:1778,0
DA:1780,0
DA:1781,0
DA:1786,0
DA:1787,0
DA:1803,0
DA:1806,0
DA:1807,0
DA:1841,0
DA:1843,0
DA:1844,0
DA:1850,0
DA:1851,0
DA:1867,0
DA:1870,0
DA:1871,0
DA:1973,0
DA:1975,0
DA:1976,0
DA:1984,0
DA:1985,0
DA:2001,0
DA:2004,0
DA:2005,0
DA:2042,0
DA:2044,0
DA:2045,0
DA:2054,0
DA:2055,0
DA:2071,0
DA:2074,0
DA:2075,0
DA:5452,0
DA:5453,0
DA:5476,0
DA:5477,0
DA:5524,0
DA:5525,0
DA:5548,0
DA:5549,0
BA:1787,0
BA:1787,0
BA:1851,0
BA:1851,0
BA:1851,0
BA:1851,0
BA:1851,0
BA:1851,0
BA:1985,0
BA:1985,0
BA:2055,0
BA:2055,0
LF:44
LH:0
end_of_record
SF:/usr/include/sigc++-2.0/sigc++/functors/slot.h
FN:109,_ZN4sigc8internal10slot_call0INS_18bound_mem_functor0Iv10MainWindowEEvE7addressEv
FN:257,_ZN4sigc8internal10slot_call4INS_18bound_mem_functor4Iv10MainWindowRK5PieceRK10CoordinateN7Game1v116eGame1v1Player_tEiEEvS6_S9_SB_iE7addressEv
FN:143,_ZN4sigc8internal10slot_call1INS_18bound_mem_functor1Iv14TableEditPiece12ePieceType_tEEvS4_E7addressEv
FN:143,_ZN4sigc8internal10slot_call1INS_18bound_mem_functor1Iv16DrawingAreaBoardRK5PieceEEvS6_E7addressEv
FN:217,_ZN4sigc8internal10slot_call3INS_18bound_mem_functor3Iv10MainWindowRK10CoordinateRK5PieceRK6PlayerEEvS6_S9_SC_E7addressEv
FN:143,_ZN4sigc8internal10slot_call1INS_18bound_mem_functor1Ib10MainWindowP12_GdkEventAnyEEbS5_E7addressEv
FN:246,_ZN4sigc8internal10slot_call4INS_18bound_mem_functor4Iv10MainWindowRK5PieceRK10CoordinateN7Game1v116eGame1v1Player_tEiEEvS6_S9_SB_iE7call_itEPNS0_8slot_repES6_S9_RKSB_RKi
FN:206,_ZN4sigc8internal10slot_call3INS_18bound_mem_functor3Iv10MainWindowRK10CoordinateRK5PieceRK6PlayerEEvS6_S9_SC_E7call_itEPNS0_8slot_repES6_S9_SC_
FN:132,_ZN4sigc8internal10slot_call1INS_18bound_mem_functor1Ib10MainWindowP12_GdkEventAnyEEbS5_E7call_itEPNS0_8slot_repERKS5_
FN:99,_ZN4sigc8internal10slot_call0INS_18bound_mem_functor0Iv10MainWindowEEvE7call_itEPNS0_8slot_repE
FN:132,_ZN4sigc8internal10slot_call1INS_18bound_mem_functor1Iv14TableEditPiece12ePieceType_tEEvS4_E7call_itEPNS0_8slot_repERKS4_
FN:132,_ZN4sigc8internal10slot_call1INS_18bound_mem_functor1Iv16DrawingAreaBoardRK5PieceEEvS6_E7call_itEPNS0_8slot_repES6_
FN:732,_ZN4sigc5slot4IvRK5PieceRK10CoordinateN7Game1v116eGame1v1Player_tEiED2Ev
FN:1091,_ZN4sigc4slotIvRK5PieceRK10CoordinateN7Game1v116eGame1v1Player_tEiNS_3nilES9_S9_ED1Ev
FN:495,_ZN4sigc5slot1Iv12ePieceType_tED2Ev
FN:1091,_ZN4sigc4slotIv12ePieceType_tNS_3nilES2_S2_S2_S2_S2_ED1Ev
FN:495,_ZN4sigc5slot1IvRK5PieceED2Ev
FN:1091,_ZN4sigc4slotIvRK5PieceNS_3nilES4_S4_S4_S4_S4_ED1Ev
FN:650,_ZN4sigc5slot3IvRK10CoordinateRK5PieceRK6PlayerED2Ev
FN:1091,_ZN4sigc4slotIvRK10CoordinateRK5PieceRK6PlayerNS_3nilESA_SA_SA_ED1Ev
FN:495,_ZN4sigc5slot1IbP12_GdkEventAnyED2Ev
FN:1091,_ZN4sigc4slotIbP12_GdkEventAnyNS_3nilES3_S3_S3_S3_S3_ED1Ev
FN:422,_ZN4sigc5slot0IvED2Ev
FN:1091,_ZN4sigc4slotIvNS_3nilES1_S1_S1_S1_S1_S1_ED1Ev
FN:37,_ZN4sigc8internal14typed_slot_repINS_18bound_mem_functor4Iv10MainWindowRK5PieceRK10CoordinateN7Game1v116eGame1v1Player_tEiEEEC1ERKSC_
FN:768,_ZN4sigc5slot4IvRK5PieceRK10CoordinateN7Game1v116eGame1v1Player_tEiEC2INS_18bound_mem_functor4Iv10MainWindowS3_S6_S8_iEEEERKT_
FN:1237,_ZN4sigc4slotIvRK5PieceRK10CoordinateN7Game1v116eGame1v1Player_tEiNS_3nilES9_S9_EC1INS_18bound_mem_functor4Iv10MainWindowS3_S6_S8_iEEEERKT_
FN:41,_ZN4sigc8internal14typed_slot_repINS_18bound_mem_functor4Iv10MainWindowRK5PieceRK10CoordinateN7Game1v116eGame1v1Player_tEiEEEC1ERKSD_
FN:74,_ZN4sigc8internal14typed_slot_repINS_18bound_mem_functor4Iv10MainWindowRK5PieceRK10CoordinateN7Game1v116eGame1v1Player_tEiEEE3dupEPv
FN:37,_ZN4sigc8internal14typed_slot_repINS_18bound_mem_functor3Iv10MainWindowRK10CoordinateRK5PieceRK6PlayerEEEC1ERKSD_
FN:684,_ZN4sigc5slot3IvRK10CoordinateRK5PieceRK6PlayerEC2INS_18bound_mem_functor3Iv10MainWindowS3_S6_S9_EEEERKT_
FN:1210,_ZN4sigc4slotIvRK10CoordinateRK5PieceRK6PlayerNS_3nilESA_SA_SA_EC1INS_18bound_mem_functor3Iv10MainWindowS3_S6_S9_EEEERKT_
FN:41,_ZN4sigc8internal14typed_slot_repINS_18bound_mem_functor3Iv10MainWindowRK10CoordinateRK5PieceRK6PlayerEEEC1ERKSE_
FN:74,_ZN4sigc8internal14typed_slot_repINS_18bound_mem_functor3Iv10MainWindowRK10CoordinateRK5PieceRK6PlayerEEE3dupEPv
FN:37,_ZN4sigc8internal14typed_slot_repINS_18bound_mem_functor1Ib10MainWindowP12_GdkEventAnyEEEC1ERKS6_
FN:525,_ZN4sigc5slot1IbP12_GdkEventAnyEC2INS_18bound_mem_functor1Ib10MainWindowS2_EEEERKT_
FN:1156,_ZN4sigc4slotIbP12_GdkEventAnyNS_3nilES3_S3_S3_S3_S3_EC1INS_18bound_mem_functor1Ib10MainWindowS2_EEEERKT_
FN:41,_ZN4sigc8internal14typed_slot_repINS_18bound_mem_functor1Ib10MainWindowP12_GdkEventAnyEEEC1ERKS7_
FN:74,_ZN4sigc8internal14typed_slot_repINS_18bound_mem_functor1Ib10MainWindowP12_GdkEventAnyEEE3dupEPv
FN:37,_ZN4sigc8internal14typed_slot_repINS_18bound_mem_functor0Iv10MainWindowEEEC1ERKS4_
FN:450,_ZN4sigc5slot0IvEC2INS_18bound_mem_functor0Iv10MainWindowEEEERKT_
FN:1129,_ZN4sigc4slotIvNS_3nilES1_S1_S1_S1_S1_S1_EC1INS_18bound_mem_functor0Iv10MainWindowEEEERKT_
FN:41,_ZN4sigc8internal14typed_slot_repINS_18bound_mem_functor0Iv10MainWindowEEEC1ERKS5_
FN:74,_ZN4sigc8internal14typed_slot_repINS_18bound_mem_functor0Iv10MainWindowEEE3dupEPv
FN:37,_ZN4sigc8internal14typed_slot_repINS_18bound_mem_functor1Iv14TableEditPiece12ePieceType_tEEEC1ERKS5_
FN:525,_ZN4sigc5slot1Iv12ePieceType_tEC2INS_18bound_mem_functor1Iv14TableEditPieceS1_EEEERKT_
FN:1156,_ZN4sigc4slotIv12ePieceType_tNS_3nilES2_S2_S2_S2_S2_EC1INS_18bound_mem_functor1Iv14TableEditPieceS1_EEEERKT_
FN:41,_ZN4sigc8internal14typed_slot_repINS_18bound_mem_functor1Iv14TableEditPiece12ePieceType_tEEEC1ERKS6_
FN:74,_ZN4sigc8internal14typed_slot_repINS_18bound_mem_functor1Iv14TableEditPiece12ePieceType_tEEE3dupEPv
FN:37,_ZN4sigc8internal14typed_slot_repINS_18bound_mem_functor1Iv16DrawingAreaBoardRK5PieceEEEC1ERKS7_
FN:525,_ZN4sigc5slot1IvRK5PieceEC2INS_18bound_mem_functor1Iv16DrawingAreaBoardS3_EEEERKT_
FN:1156,_ZN4sigc4slotIvRK5PieceNS_3nilES4_S4_S4_S4_S4_EC1INS_18bound_mem_functor1Iv16DrawingAreaBoardS3_EEEERKT_
FN:41,_ZN4sigc8internal14typed_slot_repINS_18bound_mem_functor1Iv16DrawingAreaBoardRK5PieceEEEC1ERKS8_
FN:74,_ZN4sigc8internal14typed_slot_repINS_18bound_mem_functor1Iv16DrawingAreaBoardRK5PieceEEE3dupEPv
FN:55,_ZN4sigc8internal14typed_slot_repINS_18bound_mem_functor4Iv10MainWindowRK5PieceRK10CoordinateN7Game1v116eGame1v1Player_tEiEEE7destroyEPv
FN:55,_ZN4sigc8internal14typed_slot_repINS_18bound_mem_functor3Iv10MainWindowRK10CoordinateRK5PieceRK6PlayerEEE7destroyEPv
FN:55,_ZN4sigc8internal14typed_slot_repINS_18bound_mem_functor1Ib10MainWindowP12_GdkEventAnyEEE7destroyEPv
FN:55,_ZN4sigc8internal14typed_slot_repINS_18bound_mem_functor0Iv10MainWindowEEE7destroyEPv
FN:55,_ZN4sigc8internal14typed_slot_repINS_18bound_mem_functor1Iv14TableEditPiece12ePieceType_tEEE7destroyEPv
FN:55,_ZN4sigc8internal14typed_slot_repINS_18bound_mem_functor1Iv16DrawingAreaBoardRK5PieceEEE7destroyEPv
FNDA:0,_ZN4sigc8internal14typed_slot_repINS_18bound_mem_functor4Iv10MainWindowRK5PieceRK10CoordinateN7Game1v116eGame1v1Player_tEiEEEC1ERKSC_
FNDA:0,_ZN4sigc8internal14typed_slot_repINS_18bound_mem_functor3Iv10MainWindowRK10CoordinateRK5PieceRK6PlayerEEEC1ERKSD_
FNDA:0,_ZN4sigc8internal14typed_slot_repINS_18bound_mem_functor1Ib10MainWindowP12_GdkEventAnyEEEC1ERKS6_
FNDA:0,_ZN4sigc8internal14typed_slot_repINS_18bound_mem_functor0Iv10MainWindowEEEC1ERKS4_
FNDA:0,_ZN4sigc8internal14typed_slot_repINS_18bound_mem_functor1Iv14TableEditPiece12ePieceType_tEEEC1ERKS5_
FNDA:0,_ZN4sigc8internal14typed_slot_repINS_18bound_mem_functor1Iv16DrawingAreaBoardRK5PieceEEEC1ERKS7_
FNDA:0,_ZN4sigc8internal14typed_slot_repINS_18bound_mem_functor4Iv10MainWindowRK5PieceRK10CoordinateN7Game1v116eGame1v1Player_tEiEEEC1ERKSD_
FNDA:0,_ZN4sigc8internal14typed_slot_repINS_18bound_mem_functor3Iv10MainWindowRK10CoordinateRK5PieceRK6PlayerEEEC1ERKSE_
FNDA:0,_ZN4sigc8internal14typed_slot_repINS_18bound_mem_functor1Ib10MainWindowP12_GdkEventAnyEEEC1ERKS7_
FNDA:0,_ZN4sigc8internal14typed_slot_repINS_18bound_mem_functor0Iv10MainWindowEEEC1ERKS5_
FNDA:0,_ZN4sigc8internal14typed_slot_repINS_18bound_mem_functor1Iv14TableEditPiece12ePieceType_tEEEC1ERKS6_
FNDA:0,_ZN4sigc8internal14typed_slot_repINS_18bound_mem_functor1Iv16DrawingAreaBoardRK5PieceEEEC1ERKS8_
FNDA:0,_ZN4sigc8internal14typed_slot_repINS_18bound_mem_functor4Iv10MainWindowRK5PieceRK10CoordinateN7Game1v116eGame1v1Player_tEiEEE7destroyEPv
FNDA:0,_ZN4sigc8internal14typed_slot_repINS_18bound_mem_functor3Iv10MainWindowRK10CoordinateRK5PieceRK6PlayerEEE7destroyEPv
FNDA:0,_ZN4sigc8internal14typed_slot_repINS_18bound_mem_functor1Ib10MainWindowP12_GdkEventAnyEEE7destroyEPv
FNDA:0,_ZN4sigc8internal14typed_slot_repINS_18bound_mem_functor0Iv10MainWindowEEE7destroyEPv
FNDA:0,_ZN4sigc8internal14typed_slot_repINS_18bound_mem_functor1Iv14TableEditPiece12ePieceType_tEEE7destroyEPv
FNDA:0,_ZN4sigc8internal14typed_slot_repINS_18bound_mem_functor1Iv16DrawingAreaBoardRK5PieceEEE7destroyEPv
FNDA:0,_ZN4sigc8internal14typed_slot_repINS_18bound_mem_functor4Iv10MainWindowRK5PieceRK10CoordinateN7Game1v116eGame1v1Player_tEiEEE3dupEPv
FNDA:0,_ZN4sigc8internal14typed_slot_repINS_18bound_mem_functor3Iv10MainWindowRK10CoordinateRK5PieceRK6PlayerEEE3dupEPv
FNDA:0,_ZN4sigc8internal14typed_slot_repINS_18bound_mem_functor1Ib10MainWindowP12_GdkEventAnyEEE3dupEPv
FNDA:0,_ZN4sigc8internal14typed_slot_repINS_18bound_mem_functor0Iv10MainWindowEEE3dupEPv
FNDA:0,_ZN4sigc8internal14typed_slot_repINS_18bound_mem_functor1Iv14TableEditPiece12ePieceType_tEEE3dupEPv
FNDA:0,_ZN4sigc8internal14typed_slot_repINS_18bound_mem_functor1Iv16DrawingAreaBoardRK5PieceEEE3dupEPv
FNDA:0,_ZN4sigc8internal10slot_call0INS_18bound_mem_functor0Iv10MainWindowEEvE7call_itEPNS0_8slot_repE
FNDA:0,_ZN4sigc8internal10slot_call0INS_18bound_mem_functor0Iv10MainWindowEEvE7addressEv
FNDA:0,_ZN4sigc8internal10slot_call1INS_18bound_mem_functor1Ib10MainWindowP12_GdkEventAnyEEbS5_E7call_itEPNS0_8slot_repERKS5_
FNDA:0,_ZN4sigc8internal10slot_call1INS_18bound_mem_functor1Iv14TableEditPiece12ePieceType_tEEvS4_E7call_itEPNS0_8slot_repERKS4_
FNDA:0,_ZN4sigc8internal10slot_call1INS_18bound_mem_functor1Iv16DrawingAreaBoardRK5PieceEEvS6_E7call_itEPNS0_8slot_repES6_
FNDA:0,_ZN4sigc8internal10slot_call1INS_18bound_mem_functor1Iv14TableEditPiece12ePieceType_tEEvS4_E7addressEv
FNDA:0,_ZN4sigc8internal10slot_call1INS_18bound_mem_functor1Iv16DrawingAreaBoardRK5PieceEEvS6_E7addressEv
FNDA:0,_ZN4sigc8internal10slot_call1INS_18bound_mem_functor1Ib10MainWindowP12_GdkEventAnyEEbS5_E7addressEv
FNDA:0,_ZN4sigc8internal10slot_call3INS_18bound_mem_functor3Iv10MainWindowRK10CoordinateRK5PieceRK6PlayerEEvS6_S9_SC_E7call_itEPNS0_8slot_repES6_S9_SC_
FNDA:0,_ZN4sigc8internal10slot_call3INS_18bound_mem_functor3Iv10MainWindowRK10CoordinateRK5PieceRK6PlayerEEvS6_S9_SC_E7addressEv
FNDA:0,_ZN4sigc8internal10slot_call4INS_18bound_mem_functor4Iv10MainWindowRK5PieceRK10CoordinateN7Game1v116eGame1v1Player_tEiEEvS6_S9_SB_iE7call_itEPNS0_8slot_repES6_S9_RKSB_RKi
FNDA:0,_ZN4sigc8internal10slot_call4INS_18bound_mem_functor4Iv10MainWindowRK5PieceRK10CoordinateN7Game1v116eGame1v1Player_tEiEEvS6_S9_SB_iE7addressEv
FNDA:0,_ZN4sigc5slot0IvED2Ev
FNDA:0,_ZN4sigc5slot0IvEC2INS_18bound_mem_functor0Iv10MainWindowEEEERKT_
FNDA:0,_ZN4sigc5slot1Iv12ePieceType_tED2Ev
FNDA:0,_ZN4sigc5slot1IvRK5PieceED2Ev
FNDA:0,_ZN4sigc5slot1IbP12_GdkEventAnyED2Ev
FNDA:0,_ZN4sigc5slot1IbP12_GdkEventAnyEC2INS_18bound_mem_functor1Ib10MainWindowS2_EEEERKT_
FNDA:0,_ZN4sigc5slot1Iv12ePieceType_tEC2INS_18bound_mem_functor1Iv14TableEditPieceS1_EEEERKT_
FNDA:0,_ZN4sigc5slot1IvRK5PieceEC2INS_18bound_mem_functor1Iv16DrawingAreaBoardS3_EEEERKT_
FNDA:0,_ZN4sigc5slot3IvRK10CoordinateRK5PieceRK6PlayerED2Ev
FNDA:0,_ZN4sigc5slot3IvRK10CoordinateRK5PieceRK6PlayerEC2INS_18bound_mem_functor3Iv10MainWindowS3_S6_S9_EEEERKT_
FNDA:0,_ZN4sigc5slot4IvRK5PieceRK10CoordinateN7Game1v116eGame1v1Player_tEiED2Ev
FNDA:0,_ZN4sigc5slot4IvRK5PieceRK10CoordinateN7Game1v116eGame1v1Player_tEiEC2INS_18bound_mem_functor4Iv10MainWindowS3_S6_S8_iEEEERKT_
FNDA:0,_ZN4sigc4slotIvRK5PieceRK10CoordinateN7Game1v116eGame1v1Player_tEiNS_3nilES9_S9_ED1Ev
FNDA:0,_ZN4sigc4slotIv12ePieceType_tNS_3nilES2_S2_S2_S2_S2_ED1Ev
FNDA:0,_ZN4sigc4slotIvRK5PieceNS_3nilES4_S4_S4_S4_S4_ED1Ev
FNDA:0,_ZN4sigc4slotIvRK10CoordinateRK5PieceRK6PlayerNS_3nilESA_SA_SA_ED1Ev
FNDA:0,_ZN4sigc4slotIbP12_GdkEventAnyNS_3nilES3_S3_S3_S3_S3_ED1Ev
FNDA:0,_ZN4sigc4slotIvNS_3nilES1_S1_S1_S1_S1_S1_ED1Ev
FNDA:0,_ZN4sigc4slotIvNS_3nilES1_S1_S1_S1_S1_S1_EC1INS_18bound_mem_functor0Iv10MainWindowEEEERKT_
FNDA:0,_ZN4sigc4slotIbP12_GdkEventAnyNS_3nilES3_S3_S3_S3_S3_EC1INS_18bound_mem_functor1Ib10MainWindowS2_EEEERKT_
FNDA:0,_ZN4sigc4slotIv12ePieceType_tNS_3nilES2_S2_S2_S2_S2_EC1INS_18bound_mem_functor1Iv14TableEditPieceS1_EEEERKT_
FNDA:0,_ZN4sigc4slotIvRK5PieceNS_3nilES4_S4_S4_S4_S4_EC1INS_18bound_mem_functor1Iv16DrawingAreaBoardS3_EEEERKT_
FNDA:0,_ZN4sigc4slotIvRK10CoordinateRK5PieceRK6PlayerNS_3nilESA_SA_SA_EC1INS_18bound_mem_functor3Iv10MainWindowS3_S6_S9_EEEERKT_
FNDA:0,_ZN4sigc4slotIvRK5PieceRK10CoordinateN7Game1v116eGame1v1Player_tEiNS_3nilES9_S9_EC1INS_18bound_mem_functor4Iv10MainWindowS3_S6_S8_iEEEERKT_
FNF:60
FNH:0
DA:37,0
DA:38,0
DA:39,0
DA:41,0
DA:42,0
DA:43,0
DA:55,0
DA:57,0
DA:58,0
DA:59,0
DA:60,0
DA:61,0
DA:66,0
DA:74,0
DA:76,0
DA:77,0
DA:99,0
DA:102,0
DA:103,0
DA:109,0
DA:110,0
DA:132,0
DA:135,0
DA:137,0
DA:143,0
DA:144,0
DA:206,0
DA:209,0
DA:211,0
DA:217,0
DA:218,0
DA:246,0
DA:249,0
DA:251,0
DA:257,0
DA:258,0
DA:422,0
DA:450,0
DA:451,0
DA:454,0
DA:455,0
DA:495,0
DA:525,0
DA:526,0
DA:529,0
DA:530,0
DA:650,0
DA:684,0
DA:685,0
DA:688,0
DA:689,0
DA:732,0
DA:768,0
DA:769,0
DA:772,0
DA:773,0
DA:1091,0
DA:1129,0
DA:1130,0
DA:1156,0
DA:1157,0
DA:1210,0
DA:1211,0
DA:1237,0
DA:1238,0
LF:65
LH:0
end_of_record
SF:/usr/include/sigc++-2.0/sigc++/functors/slot_base.h
FN:97,_ZN4sigc8internal8slot_rep7destroyEv
FN:142,_ZN4sigc8internal12slot_do_bindC1EPNS0_8slot_repE
FN:160,_ZN4sigc8internal14slot_do_unbindC1EPNS0_8slot_repE
FN:86,_ZN4sigc8internal8slot_repD2Ev
FN:83,_ZN4sigc8internal8slot_repC2EPFPvS2_ES4_S4_
FN:147,_ZNK4sigc8internal12slot_do_bindclEPKNS_9trackableE
FN:165,_ZNK4sigc8internal14slot_do_unbindclEPKNS_9trackableE
FNDA:0,_ZN4sigc8internal8slot_repC2EPFPvS2_ES4_S4_
FNDA:0,_ZN4sigc8internal8slot_repD2Ev
FNDA:0,_ZN4sigc8internal8slot_rep7destroyEv
FNDA:0,_ZN4sigc8internal12slot_do_bindC1EPNS0_8slot_repE
FNDA:0,_ZNK4sigc8internal12slot_do_bindclEPKNS_9trackableE
FNDA:0,_ZN4sigc8internal14slot_do_unbindC1EPNS0_8slot_repE
FNDA:0,_ZNK4sigc8internal14slot_do_unbindclEPKNS_9trackableE
FNF:7
FNH:0
DA:83,0
DA:84,0
DA:86,0
DA:87,0
DA:97,0
DA:98,0
DA:142,0
DA:147,0
DA:148,0
DA:160,0
DA:165,0
DA:166,0
BA:98,0
BA:98,0
LF:12
LH:0
end_of_record
SF:/usr/include/sigc++-2.0/sigc++/limit_reference.h
FN:79,_ZN4sigc15limit_referenceI10MainWindowLb1EEC1ERS1_
FN:79,_ZN4sigc15limit_referenceI14TableEditPieceLb1EEC1ERS1_
FN:79,_ZN4sigc15limit_referenceI16DrawingAreaBoardLb1EEC1ERS1_
FN:95,_ZNK4sigc15limit_referenceI10MainWindowLb1EE6invokeEv
FN:95,_ZNK4sigc15limit_referenceI14TableEditPieceLb1EE6invokeEv
FN:95,_ZNK4sigc15limit_referenceI16DrawingAreaBoardLb1EE6invokeEv
FN:88,_ZNK4sigc15limit_referenceI10MainWindowLb1EE5visitEv
FN:88,_ZNK4sigc15limit_referenceI14TableEditPieceLb1EE5visitEv
FN:88,_ZNK4sigc15limit_referenceI16DrawingAreaBoardLb1EE5visitEv
FN:118,_ZN4sigc10visit_eachINS_8internal20limit_derived_targetIPNS_9trackableENS1_12slot_do_bindEEE10MainWindowLb1EEEvRKT_RKNS_15limit_referenceIT0_XT1_EEE
FN:118,_ZN4sigc10visit_eachINS_8internal20limit_derived_targetIPNS_9trackableENS1_12slot_do_bindEEE14TableEditPieceLb1EEEvRKT_RKNS_15limit_referenceIT0_XT1_EEE
FN:118,_ZN4sigc10visit_eachINS_8internal20limit_derived_targetIPNS_9trackableENS1_12slot_do_bindEEE16DrawingAreaBoardLb1EEEvRKT_RKNS_15limit_referenceIT0_XT1_EEE
FN:118,_ZN4sigc10visit_eachINS_8internal20limit_derived_targetIPNS_9trackableENS1_14slot_do_unbindEEE10MainWindowLb1EEEvRKT_RKNS_15limit_referenceIT0_XT1_EEE
FN:118,_ZN4sigc10visit_eachINS_8internal20limit_derived_targetIPNS_9trackableENS1_14slot_do_unbindEEE14TableEditPieceLb1EEEvRKT_RKNS_15limit_referenceIT0_XT1_EEE
FN:118,_ZN4sigc10visit_eachINS_8internal20limit_derived_targetIPNS_9trackableENS1_14slot_do_unbindEEE16DrawingAreaBoardLb1EEEvRKT_RKNS_15limit_referenceIT0_XT1_EEE
FNDA:0,_ZN4sigc15limit_referenceI10MainWindowLb1EEC1ERS1_
FNDA:0,_ZN4sigc15limit_referenceI14TableEditPieceLb1EEC1ERS1_
FNDA:0,_ZN4sigc15limit_referenceI16DrawingAreaBoardLb1EEC1ERS1_
FNDA:0,_ZNK4sigc15limit_referenceI10MainWindowLb1EE5visitEv
FNDA:0,_ZNK4sigc15limit_referenceI14TableEditPieceLb1EE5visitEv
FNDA:0,_ZNK4sigc15limit_referenceI16DrawingAreaBoardLb1EE5visitEv
FNDA:0,_ZNK4sigc15limit_referenceI10MainWindowLb1EE6invokeEv
FNDA:0,_ZNK4sigc15limit_referenceI14TableEditPieceLb1EE6invokeEv
FNDA:0,_ZNK4sigc15limit_referenceI16DrawingAreaBoardLb1EE6invokeEv
FNDA:0,_ZN4sigc10visit_eachINS_8internal20limit_derived_targetIPNS_9trackableENS1_12slot_do_bindEEE10MainWindowLb1EEEvRKT_RKNS_15limit_referenceIT0_XT1_EEE
FNDA:0,_ZN4sigc10visit_eachINS_8internal20limit_derived_targetIPNS_9trackableENS1_12slot_do_bindEEE14TableEditPieceLb1EEEvRKT_RKNS_15limit_referenceIT0_XT1_EEE
FNDA:0,_ZN4sigc10visit_eachINS_8internal20limit_derived_targetIPNS_9trackableENS1_12slot_do_bindEEE16DrawingAreaBoardLb1EEEvRKT_RKNS_15limit_referenceIT0_XT1_EEE
FNDA:0,_ZN4sigc10visit_eachINS_8internal20limit_derived_targetIPNS_9trackableENS1_14slot_do_unbindEEE10MainWindowLb1EEEvRKT_RKNS_15limit_referenceIT0_XT1_EEE
FNDA:0,_ZN4sigc10visit_eachINS_8internal20limit_derived_targetIPNS_9trackableENS1_14slot_do_unbindEEE14TableEditPieceLb1EEEvRKT_RKNS_15limit_referenceIT0_XT1_EEE
FNDA:0,_ZN4sigc10visit_eachINS_8internal20limit_derived_targetIPNS_9trackableENS1_14slot_do_unbindEEE16DrawingAreaBoardLb1EEEvRKT_RKNS_15limit_referenceIT0_XT1_EEE
FNF:15
FNH:0
DA:79,0
DA:81,0
DA:82,0
DA:88,0
DA:89,0
DA:95,0
DA:96,0
DA:118,0
DA:121,0
DA:122,0
LF:10
LH:0
end_of_record
SF:/usr/include/sigc++-2.0/sigc++/signal.h
FN:52,_ZN4sigc13slot_iteratorINS_4slotIvRK5PieceRK10CoordinateN7Game1v116eGame1v1Player_tEiNS_3nilESA_SA_EEEC1ERKSt14_List_iteratorINS_9slot_baseEE
FN:52,_ZN4sigc13slot_iteratorINS_4slotIv12ePieceType_tNS_3nilES3_S3_S3_S3_S3_EEEC1ERKSt14_List_iteratorINS_9slot_baseEE
FN:52,_ZN4sigc13slot_iteratorINS_4slotIvRK5PieceNS_3nilES5_S5_S5_S5_S5_EEEC1ERKSt14_List_iteratorINS_9slot_baseEE
FN:52,_ZN4sigc13slot_iteratorINS_4slotIvRK10CoordinateRK5PieceRK6PlayerNS_3nilESB_SB_SB_EEEC1ERKSt14_List_iteratorINS_9slot_baseEE
FN:2141,_ZN4sigc7signal4IvRK5PieceRK10CoordinateN7Game1v116eGame1v1Player_tEiNS_3nilEE7connectERKNS_4slotIvS3_S6_S8_iS9_S9_S9_EE
FN:1802,_ZN4sigc7signal1Iv12ePieceType_tNS_3nilEE7connectERKNS_4slotIvS1_S2_S2_S2_S2_S2_S2_EE
FN:1802,_ZN4sigc7signal1IvRK5PieceNS_3nilEE7connectERKNS_4slotIvS3_S4_S4_S4_S4_S4_S4_EE
FN:2026,_ZN4sigc7signal3IvRK10CoordinateRK5PieceRK6PlayerNS_3nilEE7connectERKNS_4slotIvS3_S6_S9_SA_SA_SA_SA_EE
FNDA:0,_ZN4sigc13slot_iteratorINS_4slotIvRK5PieceRK10CoordinateN7Game1v116eGame1v1Player_tEiNS_3nilESA_SA_EEEC1ERKSt14_List_iteratorINS_9slot_baseEE
FNDA:0,_ZN4sigc13slot_iteratorINS_4slotIv12ePieceType_tNS_3nilES3_S3_S3_S3_S3_EEEC1ERKSt14_List_iteratorINS_9slot_baseEE
FNDA:0,_ZN4sigc13slot_iteratorINS_4slotIvRK5PieceNS_3nilES5_S5_S5_S5_S5_EEEC1ERKSt14_List_iteratorINS_9slot_baseEE
FNDA:0,_ZN4sigc13slot_iteratorINS_4slotIvRK10CoordinateRK5PieceRK6PlayerNS_3nilESB_SB_SB_EEEC1ERKSt14_List_iteratorINS_9slot_baseEE
FNDA:0,_ZN4sigc7signal1Iv12ePieceType_tNS_3nilEE7connectERKNS_4slotIvS1_S2_S2_S2_S2_S2_S2_EE
FNDA:0,_ZN4sigc7signal1IvRK5PieceNS_3nilEE7connectERKNS_4slotIvS3_S4_S4_S4_S4_S4_S4_EE
FNDA:0,_ZN4sigc7signal3IvRK10CoordinateRK5PieceRK6PlayerNS_3nilEE7connectERKNS_4slotIvS3_S6_S9_SA_SA_SA_SA_EE
FNDA:0,_ZN4sigc7signal4IvRK5PieceRK10CoordinateN7Game1v116eGame1v1Player_tEiNS_3nilEE7connectERKNS_4slotIvS3_S6_S8_iS9_S9_S9_EE
FNF:8
FNH:0
DA:52,0
DA:53,0
DA:1802,0
DA:1803,0
DA:2026,0
DA:2027,0
DA:2141,0
DA:2142,0
LF:8
LH:0
end_of_record
SF:/usr/include/sigc++-2.0/sigc++/visit_each.h
FN:103,_ZN4sigc8internal20limit_derived_targetIPNS_9trackableENS0_12slot_do_bindEEC1ERKS4_
FN:103,_ZN4sigc8internal20limit_derived_targetIPNS_9trackableENS0_14slot_do_unbindEEC1ERKS4_
FN:87,_ZN4sigc8internal17with_type_pointerILb1ENS_9trackableENS0_20limit_derived_targetIPS2_NS0_12slot_do_bindEEEE8execute_ERKS2_RKS6_
FN:98,_ZNK4sigc8internal20limit_derived_targetIPNS_9trackableENS0_12slot_do_bindEEclIS2_EEvRKT_
FN:143,_ZN4sigc10visit_eachINS_8internal20limit_derived_targetIPNS_9trackableENS1_12slot_do_bindEEES3_EEvRKT_RKT0_
FN:152,_ZN4sigc15visit_each_typeIPNS_9trackableENS_8internal12slot_do_bindENS_15adaptor_functorINS_18bound_mem_functor4Iv10MainWindowRK5PieceRK10CoordinateN7Game1v116eGame1v1Player_tEiEEEEEEvRKT0_RKT1_
FN:152,_ZN4sigc15visit_each_typeIPNS_9trackableENS_8internal12slot_do_bindENS_15adaptor_functorINS_18bound_mem_functor3Iv10MainWindowRK10CoordinateRK5PieceRK6PlayerEEEEEEvRKT0_RKT1_
FN:152,_ZN4sigc15visit_each_typeIPNS_9trackableENS_8internal12slot_do_bindENS_15adaptor_functorINS_18bound_mem_functor1Ib10MainWindowP12_GdkEventAnyEEEEEEvRKT0_RKT1_
FN:152,_ZN4sigc15visit_each_typeIPNS_9trackableENS_8internal12slot_do_bindENS_15adaptor_functorINS_18bound_mem_functor0Iv10MainWindowEEEEEEvRKT0_RKT1_
FN:152,_ZN4sigc15visit_each_typeIPNS_9trackableENS_8internal12slot_do_bindENS_15adaptor_functorINS_18bound_mem_functor1Iv14TableEditPiece12ePieceType_tEEEEEEvRKT0_RKT1_
FN:152,_ZN4sigc15visit_each_typeIPNS_9trackableENS_8internal12slot_do_bindENS_15adaptor_functorINS_18bound_mem_functor1Iv16DrawingAreaBoardRK5PieceEEEEEEvRKT0_RKT1_
FN:87,_ZN4sigc8internal17with_type_pointerILb1ENS_9trackableENS0_20limit_derived_targetIPS2_NS0_14slot_do_unbindEEEE8execute_ERKS2_RKS6_
FN:98,_ZNK4sigc8internal20limit_derived_targetIPNS_9trackableENS0_14slot_do_unbindEEclIS2_EEvRKT_
FN:143,_ZN4sigc10visit_eachINS_8internal20limit_derived_targetIPNS_9trackableENS1_14slot_do_unbindEEES3_EEvRKT_RKT0_
FN:152,_ZN4sigc15visit_each_typeIPNS_9trackableENS_8internal14slot_do_unbindENS_15adaptor_functorINS_18bound_mem_functor4Iv10MainWindowRK5PieceRK10CoordinateN7Game1v116eGame1v1Player_tEiEEEEEEvRKT0_RKT1_
FN:152,_ZN4sigc15visit_each_typeIPNS_9trackableENS_8internal14slot_do_unbindENS_15adaptor_functorINS_18bound_mem_functor3Iv10MainWindowRK10CoordinateRK5PieceRK6PlayerEEEEEEvRKT0_RKT1_
FN:152,_ZN4sigc15visit_each_typeIPNS_9trackableENS_8internal14slot_do_unbindENS_15adaptor_functorINS_18bound_mem_functor1Ib10MainWindowP12_GdkEventAnyEEEEEEvRKT0_RKT1_
FN:152,_ZN4sigc15visit_each_typeIPNS_9trackableENS_8internal14slot_do_unbindENS_15adaptor_functorINS_18bound_mem_functor0Iv10MainWindowEEEEEEvRKT0_RKT1_
FN:152,_ZN4sigc15visit_each_typeIPNS_9trackableENS_8internal14slot_do_unbindENS_15adaptor_functorINS_18bound_mem_functor1Iv14TableEditPiece12ePieceType_tEEEEEEvRKT0_RKT1_
FN:152,_ZN4sigc15visit_each_typeIPNS_9trackableENS_8internal14slot_do_unbindENS_15adaptor_functorINS_18bound_mem_functor1Iv16DrawingAreaBoardRK5PieceEEEEEEvRKT0_RKT1_
FNDA:0,_ZN4sigc8internal17with_type_pointerILb1ENS_9trackableENS0_20limit_derived_targetIPS2_NS0_12slot_do_bindEEEE8execute_ERKS2_RKS6_
FNDA:0,_ZN4sigc8internal17with_type_pointerILb1ENS_9trackableENS0_20limit_derived_targetIPS2_NS0_14slot_do_unbindEEEE8execute_ERKS2_RKS6_
FNDA:0,_ZNK4sigc8internal20limit_derived_targetIPNS_9trackableENS0_12slot_do_bindEEclIS2_EEvRKT_
FNDA:0,_ZNK4sigc8internal20limit_derived_targetIPNS_9trackableENS0_14slot_do_unbindEEclIS2_EEvRKT_
FNDA:0,_ZN4sigc8internal20limit_derived_targetIPNS_9trackableENS0_12slot_do_bindEEC1ERKS4_
FNDA:0,_ZN4sigc8internal20limit_derived_targetIPNS_9trackableENS0_14slot_do_unbindEEC1ERKS4_
FNDA:0,_ZN4sigc10visit_eachINS_8internal20limit_derived_targetIPNS_9trackableENS1_12slot_do_bindEEES3_EEvRKT_RKT0_
FNDA:0,_ZN4sigc10visit_eachINS_8internal20limit_derived_targetIPNS_9trackableENS1_14slot_do_unbindEEES3_EEvRKT_RKT0_
FNDA:0,_ZN4sigc15visit_each_typeIPNS_9trackableENS_8internal12slot_do_bindENS_15adaptor_functorINS_18bound_mem_functor4Iv10MainWindowRK5PieceRK10CoordinateN7Game1v116eGame1v1Player_tEiEEEEEEvRKT0_RKT1_
FNDA:0,_ZN4sigc15visit_each_typeIPNS_9trackableENS_8internal12slot_do_bindENS_15adaptor_functorINS_18bound_mem_functor3Iv10MainWindowRK10CoordinateRK5PieceRK6PlayerEEEEEEvRKT0_RKT1_
FNDA:0,_ZN4sigc15visit_each_typeIPNS_9trackableENS_8internal12slot_do_bindENS_15adaptor_functorINS_18bound_mem_functor1Ib10MainWindowP12_GdkEventAnyEEEEEEvRKT0_RKT1_
FNDA:0,_ZN4sigc15visit_each_typeIPNS_9trackableENS_8internal12slot_do_bindENS_15adaptor_functorINS_18bound_mem_functor0Iv10MainWindowEEEEEEvRKT0_RKT1_
FNDA:0,_ZN4sigc15visit_each_typeIPNS_9trackableENS_8internal12slot_do_bindENS_15adaptor_functorINS_18bound_mem_functor1Iv14TableEditPiece12ePieceType_tEEEEEEvRKT0_RKT1_
FNDA:0,_ZN4sigc15visit_each_typeIPNS_9trackableENS_8internal12slot_do_bindENS_15adaptor_functorINS_18bound_mem_functor1Iv16DrawingAreaBoardRK5PieceEEEEEEvRKT0_RKT1_
FNDA:0,_ZN4sigc15visit_each_typeIPNS_9trackableENS_8internal14slot_do_unbindENS_15adaptor_functorINS_18bound_mem_functor4Iv10MainWindowRK5PieceRK10CoordinateN7Game1v116eGame1v1Player_tEiEEEEEEvRKT0_RKT1_
FNDA:0,_ZN4sigc15visit_each_typeIPNS_9trackableENS_8internal14slot_do_unbindENS_15adaptor_functorINS_18bound_mem_functor3Iv10MainWindowRK10CoordinateRK5PieceRK6PlayerEEEEEEvRKT0_RKT1_
FNDA:0,_ZN4sigc15visit_each_typeIPNS_9trackableENS_8internal14slot_do_unbindENS_15adaptor_functorINS_18bound_mem_functor1Ib10MainWindowP12_GdkEventAnyEEEEEEvRKT0_RKT1_
FNDA:0,_ZN4sigc15visit_each_typeIPNS_9trackableENS_8internal14slot_do_unbindENS_15adaptor_functorINS_18bound_mem_functor0Iv10MainWindowEEEEEEvRKT0_RKT1_
FNDA:0,_ZN4sigc15visit_each_typeIPNS_9trackableENS_8internal14slot_do_unbindENS_15adaptor_functorINS_18bound_mem_functor1Iv14TableEditPiece12ePieceType_tEEEEEEvRKT0_RKT1_
FNDA:0,_ZN4sigc15visit_each_typeIPNS_9trackableENS_8internal14slot_do_unbindENS_15adaptor_functorINS_18bound_mem_functor1Iv16DrawingAreaBoardRK5PieceEEEEEEvRKT0_RKT1_
FNF:20
FNH:0
DA:87,0
DA:88,0
DA:98,0
DA:100,0
DA:101,0
DA:103,0
DA:104,0
DA:105,0
DA:143,0
DA:144,0
DA:152,0
DA:156,0
DA:170,0
DA:171,0
LF:14
LH:0
end_of_record
SF:/home/frechilla/workspace/headless/blockem_sourceforge/src/coordinate.h
FN:49,_ZN10CoordinateC1Ev
FN:53,_ZN10CoordinateC1Eii
FN:47,_ZN10CoordinateaSERKS_
FN:47,_ZN10CoordinateC1ERKS_
FN:57,_ZN10CoordinateD0Ev
FN:57,_ZN10CoordinateD1Ev
FNDA:0,_ZN10CoordinateaSERKS_
FNDA:0,_ZN10CoordinateC1ERKS_
FNDA:0,_ZN10CoordinateC1Ev
FNDA:0,_ZN10CoordinateC1Eii
FNDA:0,_ZN10CoordinateD0Ev
FNDA:0,_ZN10CoordinateD1Ev
FNF:6
FNH:0
DA:47,0
DA:49,0
DA:51,0
DA:52,0
DA:53,0
DA:55,0
DA:56,0
DA:57,0
DA:58,0
BA:58,0
BA:58,0
BA:58,0
BA:58,0
LF:9
LH:0
end_of_record
SF:/home/frechilla/workspace/headless/blockem_sourceforge/src/g_blocking_queue_impl.h
FN:69,_ZN13BlockingQueueIN10MainWindow16CalculatedMove_tEE7IsEmptyEv
FN:62,_ZN13BlockingQueueIN10MainWindow16CalculatedMove_tEED1Ev
FN:41,_ZN13BlockingQueueIN10MainWindow16CalculatedMove_tEEC1Ej
FN:155,_ZN13BlockingQueueIN10MainWindow16CalculatedMove_tEE6TryPopERS1_
FN:131,_ZN13BlockingQueueIN10MainWindow16CalculatedMove_tEE3PopERS1_
FN:81,_ZN13BlockingQueueIN10MainWindow16CalculatedMove_tEE4PushERKS1_
FNDA:0,_ZN13BlockingQueueIN10MainWindow16CalculatedMove_tEEC1Ej
FNDA:0,_ZN13BlockingQueueIN10MainWindow16CalculatedMove_tEED1Ev
FNDA:0,_ZN13BlockingQueueIN10MainWindow16CalculatedMove_tEE7IsEmptyEv
FNDA:0,_ZN13BlockingQueueIN10MainWindow16CalculatedMove_tEE4PushERKS1_
FNDA:0,_ZN13BlockingQueueIN10MainWindow16CalculatedMove_tEE3PopERS1_
FNDA:0,_ZN13BlockingQueueIN10MainWindow16CalculatedMove_tEE6TryPopERS1_
FNF:6
FNH:0
DA:41,0
DA:42,0
DA:44,0
DA:46,0
DA:48,0
DA:52,0
DA:54,0
DA:56,0
DA:59,0
DA:62,0
DA:64,0
DA:65,0
DA:66,0
DA:69,0
DA:73,0
DA:74,0
DA:75,0
DA:77,0
DA:81,0
DA:83,0
DA:85,0
DA:87,0
DA:90,0
DA:92,0
DA:94,0
DA:97,0
DA:100,0
DA:102,0
DA:131,0
DA:133,0
DA:135,0
DA:137,0
DA:140,0
DA:142,0
DA:143,0
DA:145,0
DA:148,0
DA:151,0
DA:152,0
DA:155,0
DA:157,0
DA:159,0
DA:160,0
DA:162,0
DA:164,0
DA:165,0
DA:167,0
DA:170,0
DA:173,0
DA:176,0
DA:178,0
BA:46,0
BA:46,0
BA:54,0
BA:54,0
BA:64,0
BA:64,0
BA:65,0
BA:65,0
BA:73,0
BA:73,0
BA:75,0
BA:75,0
BA:83,0
BA:83,0
BA:85,0
BA:85,0
BA:87,0
BA:87,0
BA:94,0
BA:94,0
BA:97,0
BA:97,0
BA:100,0
BA:100,0
BA:133,0
BA:133,0
BA:135,0
BA:135,0
BA:137,0
BA:137,0
BA:145,0
BA:145,0
BA:148,0
BA:148,0
BA:151,0
BA:151,0
BA:157,0
BA:157,0
BA:160,0
BA:160,0
BA:167,0
BA:167,0
BA:170,0
BA:170,0
BA:176,0
BA:176,0
LF:51
LH:0
end_of_record
SF:/home/frechilla/workspace/headless/blockem_sourceforge/src/game1v1.h
FN:91,_ZNK7Game1v18GetBoardEv
FNDA:0,_ZNK7Game1v18GetBoardEv
FNF:1
FNH:0
DA:53,17
DA:56,17
DA:91,0
DA:93,0
LF:4
LH:2
end_of_record
SF:/home/frechilla/workspace/headless/blockem_sourceforge/src/gui_drawing_area_board.h
FN:96,_ZN16DrawingAreaBoard18signal_boardPickedEv
FNDA:0,_ZN16DrawingAreaBoard18signal_boardPickedEv
FNF:1
FNH:0
DA:96,0
DA:98,0
LF:2
LH:0
end_of_record
SF:/home/frechilla/workspace/headless/blockem_sourceforge/src/gui_drawing_area_show_pieces.h
FN:68,_ZN21DrawingAreaShowPieces18signal_piecePickedEv
FNDA:0,_ZN21DrawingAreaShowPieces18signal_piecePickedEv
FNF:1
FNH:0
DA:68,0
DA:70,0
LF:2
LH:0
end_of_record
SF:/home/frechilla/workspace/headless/blockem_sourceforge/src/gui_exception.h
FN:47,_ZNK12GUIException4whatEv
FN:39,_ZN12GUIExceptionC1ERKSs
FN:44,_ZN12GUIExceptionD0Ev
FN:44,_ZN12GUIExceptionD1Ev
FNDA:0,_ZN12GUIExceptionC1ERKSs
FNDA:0,_ZN12GUIExceptionD0Ev
FNDA:0,_ZN12GUIExceptionD1Ev
FNDA:0,_ZNK12GUIException4whatEv
FNF:4
FNH:0
DA:39,0
DA:41,0
DA:42,0
DA:44,0
DA:45,0
DA:47,0
DA:48,0
DA:49,0
BA:45,0
BA:45,0
BA:45,0
BA:45,0
LF:8
LH:0
end_of_record
SF:/home/frechilla/workspace/headless/blockem_sourceforge/src/gui_glade_defs.h
DA:97,17
DA:98,34
DA:99,34
DA:100,34
LF:4
LH:4
end_of_record
SF:/home/frechilla/workspace/headless/blockem_sourceforge/src/gui_main_window.cpp
FN:1307,_Z41__static_initialization_and_destruction_0ii
FN:1307,_GLOBAL__I__ZN10MainWindow14ProgressUpdateEf
FN:1299,_ZN10MainWindow11ResetCursorEv
FN:1290,_ZN10MainWindow13SetWaitCursorEv
FN:1250,_ZN10MainWindow17UpdateScoreStatusEv
FN:1233,_ZN10MainWindow20NotifyProgressUpdateEv
FN:1137,_ZN10MainWindow12GameFinishedEv
FN:855,_ZN10MainWindow30WorkerThread_computingFinishedERK5PieceRK10CoordinateN7Game1v116eGame1v1Player_tEi
FN:66,_ZN10MainWindow14ProgressUpdateEf
FN:375,_ZN10MainWindow22MainWindow_DeleteEventEP12_GdkEventAny
FN:744,_ZN10MainWindow30RequestThreadToComputeNextMoveEN7Game1v116eGame1v1Player_tEbRK10CoordinateRK5Piece
FN:964,_ZN10MainWindow18NotifyMoveComputedEv
FN:897,_ZN10MainWindow29BoardDrawingArea_BoardClickedERK10CoordinateRK5PieceRK6Player
FN:653,_ZN10MainWindow26MenuItemHelpAbout_ActivateEv
FN:401,_ZN10MainWindow25MenuItemGameQuit_ActivateEv
FN:659,_ZN10MainWindow13LaunchNewGameEv
FN:426,_ZN10MainWindow24MenuItemGameNew_ActivateEv
FN:486,_ZN10MainWindow36MenuItemSettingsPreferences_ActivateEv
FN:474,_ZN10MainWindow41MenuItemSettingsShowForbiddenArea_ToggledEv
FN:462,_ZN10MainWindow36MenuItemSettingsViewNKPoints_ToggledEv
FN:354,_ZN10MainWindowD0Ev
FN:354,_ZN10MainWindowD1Ev
FN:354,_ZN10MainWindowD2Ev
FN:82,_ZN10MainWindowC1EP10_GtkWindowRKN4Glib6RefPtrIN3Gtk7BuilderEEE
FN:82,_ZN10MainWindowC2EP10_GtkWindowRKN4Glib6RefPtrIN3Gtk7BuilderEEE
FNDA:0,_ZN10MainWindow14ProgressUpdateEf
FNDA:0,_ZN10MainWindowC1EP10_GtkWindowRKN4Glib6RefPtrIN3Gtk7BuilderEEE
FNDA:0,_ZN10MainWindowC2EP10_GtkWindowRKN4Glib6RefPtrIN3Gtk7BuilderEEE
FNDA:0,_ZN10MainWindowD0Ev
FNDA:0,_ZN10MainWindowD1Ev
FNDA:0,_ZN10MainWindowD2Ev
FNDA:0,_ZN10MainWindow22MainWindow_DeleteEventEP12_GdkEventAny
FNDA:0,_ZN10MainWindow25MenuItemGameQuit_ActivateEv
FNDA:0,_ZN10MainWindow24MenuItemGameNew_ActivateEv
FNDA:0,_ZN10MainWindow36MenuItemSettingsViewNKPoints_ToggledEv
FNDA:0,_ZN10MainWindow41MenuItemSettingsShowForbiddenArea_ToggledEv
FNDA:0,_ZN10MainWindow36MenuItemSettingsPreferences_ActivateEv
FNDA:0,_ZN10MainWindow26MenuItemHelpAbout_ActivateEv
FNDA:0,_ZN10MainWindow13LaunchNewGameEv
FNDA:0,_ZN10MainWindow30RequestThreadToComputeNextMoveEN7Game1v116eGame1v1Player_tEbRK10CoordinateRK5Piece
FNDA:0,_ZN10MainWindow30WorkerThread_computingFinishedERK5PieceRK10CoordinateN7Game1v116eGame1v1Player_tEi
FNDA:0,_ZN10MainWindow29BoardDrawingArea_BoardClickedERK10CoordinateRK5PieceRK6Player
FNDA:0,_ZN10MainWindow18NotifyMoveComputedEv
FNDA:0,_ZN10MainWindow12GameFinishedEv
FNDA:0,_ZN10MainWindow20NotifyProgressUpdateEv
FNDA:0,_ZN10MainWindow17UpdateScoreStatusEv
FNDA:0,_ZN10MainWindow13SetWaitCursorEv
FNDA:0,_ZN10MainWindow11ResetCursorEv
FNDA:17,_Z41__static_initialization_and_destruction_0ii
FNDA:17,_GLOBAL__I__ZN10MainWindow14ProgressUpdateEf
FNF:25
FNH:2
DA:66,0
DA:72,0
DA:73,0
DA:74,0
DA:76,0
DA:78,0
DA:80,0
DA:82,0
DA:106,0
DA:112,0
DA:114,0
DA:118,0
DA:119,0
DA:122,0
DA:124,0
DA:128,0
DA:129,0
DA:131,0
DA:136,0
DA:140,0
DA:142,0
DA:148,0
DA:149,0
DA:151,0
DA:156,0
DA:157,0
DA:159,0
DA:164,0
DA:165,0
DA:167,0
DA:172,0
DA:173,0
DA:175,0
DA:179,0
DA:180,0
DA:182,0
DA:186,0
DA:187,0
DA:189,0
DA:193,0
DA:194,0
DA:196,0
DA:200,0
DA:201,0
DA:203,0
DA:207,0
DA:208,0
DA:210,0
DA:214,0
DA:215,0
DA:217,0
DA:220,0
DA:221,0
DA:223,0
DA:226,0
DA:227,0
DA:229,0
DA:232,0
DA:233,0
DA:235,0
DA:238,0
DA:239,0
DA:241,0
DA:244,0
DA:245,0
DA:247,0
DA:251,0
DA:256,0
DA:257,0
DA:258,0
DA:261,0
DA:262,0
DA:267,0
DA:271,0
DA:272,0
DA:275,0
DA:278,0
DA:279,0
DA:280,0
DA:281,0
DA:282,0
DA:283,0
DA:284,0
DA:285,0
DA:286,0
DA:287,0
DA:288,0
DA:291,0
DA:296,0
DA:300,0
DA:304,0
DA:309,0
DA:314,0
DA:319,0
DA:325,0
DA:327,0
DA:329,0
DA:331,0
DA:333,0
DA:335,0
DA:337,0
DA:341,0
DA:342,0
DA:343,0
DA:344,0
DA:347,0
DA:348,0
DA:351,0
DA:352,0
DA:354,0
DA:358,0
DA:361,0
DA:364,0
DA:370,0
DA:371,0
DA:373,0
DA:375,0
DA:377,0
DA:385,0
DA:387,0
DA:390,0
DA:391,0
DA:395,0
DA:398,0
DA:401,0
DA:403,0
DA:411,0
DA:413,0
DA:417,0
DA:420,0
DA:423,0
DA:426,0
DA:428,0
DA:430,0
DA:432,0
DA:433,0
DA:436,0
DA:439,0
DA:442,0
DA:454,0
DA:459,0
DA:460,0
DA:462,0
DA:464,0
DA:466,0
DA:470,0
DA:472,0
DA:474,0
DA:476,0
DA:478,0
DA:482,0
DA:484,0
DA:486,0
DA:488,0
DA:491,0
DA:494,0
DA:496,0
DA:497,0
DA:505,0
DA:518,0
DA:523,0
DA:526,0
DA:528,0
DA:535,0
DA:545,0
DA:548,0
DA:551,0
DA:553,0
DA:554,0
DA:558,0
DA:561,0
DA:562,0
DA:563,0
DA:564,0
DA:567,0
DA:571,0
DA:573,0
DA:595,0
DA:598,0
DA:601,0
DA:603,0
DA:604,0
DA:608,0
DA:609,0
DA:610,0
DA:611,0
DA:614,0
DA:617,0
DA:623,0
DA:631,0
DA:635,0
DA:637,0
DA:647,0
DA:649,0
DA:651,0
DA:653,0
DA:655,0
DA:656,0
DA:657,0
DA:659,0
DA:661,0
DA:666,0
DA:670,0
DA:672,0
DA:673,0
DA:679,0
DA:682,0
DA:683,0
DA:685,0
DA:687,0
DA:690,0
DA:691,0
DA:692,0
DA:693,0
DA:697,0
DA:699,0
DA:702,0
DA:705,0
DA:706,0
DA:709,0
DA:710,0
DA:711,0
DA:712,0
DA:715,0
DA:719,0
DA:722,0
DA:724,0
DA:726,0
DA:730,0
DA:732,0
DA:737,0
DA:740,0
DA:742,0
DA:744,0
DA:752,0
DA:755,0
DA:756,0
DA:757,0
DA:760,0
DA:761,0
DA:762,0
DA:764,0
DA:765,0
DA:766,0
DA:769,0
DA:773,0
DA:774,0
DA:775,0
DA:779,0
DA:781,0
DA:784,0
DA:789,0
DA:794,0
DA:804,0
DA:817,0
DA:820,0
DA:827,0
DA:829,0
DA:832,0
DA:840,0
DA:842,0
DA:848,0
DA:851,0
DA:853,0
DA:855,0
DA:864,0
DA:865,0
DA:866,0
DA:867,0
DA:871,0
DA:875,0
DA:877,0
DA:879,0
DA:881,0
DA:885,0
DA:894,0
DA:895,0
DA:897,0
DA:900,0
DA:903,0
DA:908,0
DA:910,0
DA:913,0
DA:927,0
DA:929,0
DA:934,0
DA:935,0
DA:936,0
DA:937,0
DA:941,0
DA:944,0
DA:946,0
DA:950,0
DA:959,0
DA:961,0
DA:964,0
DA:968,0
DA:969,0
DA:970,0
DA:972,0
DA:973,0
DA:974,0
DA:976,0
DA:978,0
DA:981,0
DA:982,0
DA:983,0
DA:985,0
DA:990,0
DA:994,0
DA:1001,0
DA:1002,0
DA:1007,0
DA:1009,0
DA:1010,0
DA:1014,0
DA:1015,0
DA:1016,0
DA:1017,0
DA:1021,0
DA:1022,0
DA:1023,0
DA:1024,0
DA:1029,0
DA:1039,0
DA:1041,0
DA:1045,0
DA:1048,0
DA:1051,0
DA:1053,0
DA:1055,0
DA:1056,0
DA:1057,0
DA:1058,0
DA:1061,0
DA:1062,0
DA:1063,0
DA:1064,0
DA:1068,0
DA:1072,0
DA:1076,0
DA:1077,0
DA:1080,0
DA:1083,0
DA:1090,0
DA:1093,0
DA:1096,0
DA:1101,0
DA:1108,0
DA:1112,0
DA:1119,0
DA:1122,0
DA:1124,0
DA:1129,0
DA:1134,0
DA:1137,0
DA:1140,0
DA:1142,0
DA:1144,0
DA:1147,0
DA:1150,0
DA:1151,0
DA:1154,0
DA:1157,0
DA:1160,0
DA:1161,0
DA:1162,0
DA:1163,0
DA:1165,0
DA:1166,0
DA:1167,0
DA:1168,0
DA:1169,0
DA:1171,0
DA:1173,0
DA:1176,0
DA:1178,0
DA:1182,0
DA:1183,0
DA:1193,0
DA:1209,0
DA:1225,0
DA:1227,0
DA:1230,0
DA:1233,0
DA:1237,0
DA:1240,0
DA:1243,0
DA:1244,0
DA:1245,0
DA:1247,0
DA:1250,0
DA:1253,0
DA:1254,0
DA:1255,0
DA:1256,0
DA:1257,0
DA:1259,0
DA:1261,0
DA:1264,0
DA:1266,0
DA:1271,0
DA:1276,0
DA:1278,0
DA:1280,0
DA:1285,0
DA:1287,0
DA:1288,0
DA:1290,0
DA:1292,0
DA:1293,0
DA:1294,0
DA:1296,0
DA:1297,0
DA:1298,0
DA:1299,0
DA:1301,0
DA:1302,0
DA:1303,0
DA:1305,0
DA:1306,0
DA:1307,51
BA:72,0
BA:72,0
BA:72,0
BA:72,0
BA:72,0
BA:72,0
BA:74,0
BA:74,0
BA:74,0
BA:74,0
BA:74,0
BA:74,0
BA:76,0
BA:76,0
BA:106,0
BA:106,0
BA:106,0
BA:106,0
BA:106,0
BA:106,0
BA:106,0
BA:106,0
BA:106,0
BA:106,0
BA:106,0
BA:106,0
BA:112,0
BA:112,0
BA:112,0
BA:112,0
BA:124,0
BA:124,0
BA:124,0
BA:124,0
BA:140,0
BA:140,0
BA:140,0
BA:140,0
BA:149,0
BA:149,0
BA:149,0
BA:149,0
BA:157,0
BA:157,0
BA:157,0
BA:157,0
BA:165,0
BA:165,0
BA:165,0
BA:165,0
BA:173,0
BA:173,0
BA:173,0
BA:173,0
BA:180,0
BA:180,0
BA:180,0
BA:180,0
BA:187,0
BA:187,0
BA:187,0
BA:187,0
BA:194,0
BA:194,0
BA:194,0
BA:194,0
BA:201,0
BA:201,0
BA:201,0
BA:201,0
BA:208,0
BA:208,0
BA:208,0
BA:208,0
BA:215,0
BA:215,0
BA:215,0
BA:215,0
BA:221,0
BA:221,0
BA:221,0
BA:221,0
BA:227,0
BA:227,0
BA:227,0
BA:227,0
BA:233,0
BA:233,0
BA:233,0
BA:233,0
BA:239,0
BA:239,0
BA:239,0
BA:239,0
BA:245,0
BA:245,0
BA:245,0
BA:245,0
BA:352,0
BA:352,0
BA:352,0
BA:352,0
BA:352,0
BA:352,0
BA:352,0
BA:352,0
BA:370,0
BA:370,0
BA:370,0
BA:370,0
BA:370,0
BA:370,0
BA:371,0
BA:371,0
BA:371,0
BA:371,0
BA:371,0
BA:371,0
BA:373,0
BA:373,0
BA:373,0
BA:373,0
BA:373,0
BA:373,0
BA:373,0
BA:373,0
BA:373,0
BA:373,0
BA:373,0
BA:373,0
BA:373,0
BA:373,0
BA:373,0
BA:373,0
BA:373,0
BA:373,0
BA:373,0
BA:373,0
BA:373,0
BA:373,0
BA:373,0
BA:373,0
BA:373,0
BA:373,0
BA:373,0
BA:373,0
BA:373,0
BA:373,0
BA:373,0
BA:373,0
BA:373,0
BA:373,0
BA:373,0
BA:373,0
BA:373,0
BA:373,0
BA:373,0
BA:373,0
BA:373,0
BA:373,0
BA:373,0
BA:373,0
BA:373,0
BA:373,0
BA:373,0
BA:373,0
BA:373,0
BA:373,0
BA:373,0
BA:373,0
BA:373,0
BA:373,0
BA:377,0
BA:377,0
BA:387,0
BA:387,0
BA:391,0
BA:391,0
BA:403,0
BA:403,0
BA:413,0
BA:413,0
BA:417,0
BA:417,0
BA:433,0
BA:433,0
BA:442,0
BA:442,0
BA:442,0
BA:442,0
BA:464,0
BA:464,0
BA:476,0
BA:476,0
BA:497,0
BA:497,0
BA:505,0
BA:505,0
BA:505,0
BA:505,0
BA:505,0
BA:505,0
BA:505,0
BA:505,0
BA:505,0
BA:505,0
BA:505,0
BA:505,0
BA:505,0
BA:505,0
BA:528,0
BA:528,0
BA:528,0
BA:528,0
BA:528,0
BA:528,0
BA:528,0
BA:528,0
BA:528,0
BA:528,0
BA:535,0
BA:535,0
BA:535,0
BA:535,0
BA:535,0
BA:535,0
BA:535,0
BA:535,0
BA:535,0
BA:535,0
BA:551,0
BA:551,0
BA:561,0
BA:561,0
BA:561,0
BA:561,0
BA:561,0
BA:561,0
BA:563,0
BA:563,0
BA:563,0
BA:563,0
BA:563,0
BA:563,0
BA:573,0
BA:573,0
BA:573,0
BA:573,0
BA:573,0
BA:573,0
BA:573,0
BA:573,0
BA:573,0
BA:573,0
BA:573,0
BA:573,0
BA:573,0
BA:573,0
BA:601,0
BA:601,0
BA:608,0
BA:608,0
BA:608,0
BA:608,0
BA:608,0
BA:608,0
BA:610,0
BA:610,0
BA:610,0
BA:610,0
BA:610,0
BA:610,0
BA:637,0
BA:637,0
BA:661,0
BA:661,0
BA:670,0
BA:670,0
BA:709,0
BA:709,0
BA:709,0
BA:709,0
BA:709,0
BA:709,0
BA:711,0
BA:711,0
BA:711,0
BA:711,0
BA:711,0
BA:711,0
BA:726,0
BA:726,0
BA:757,0
BA:757,0
BA:757,0
BA:779,0
BA:779,0
BA:784,0
BA:784,0
BA:784,0
BA:784,0
BA:784,0
BA:784,0
BA:794,0
BA:794,0
BA:794,0
BA:794,0
BA:794,0
BA:794,0
BA:820,0
BA:820,0
BA:875,0
BA:875,0
BA:879,0
BA:879,0
BA:885,0
BA:885,0
BA:903,0
BA:903,0
BA:913,0
BA:913,0
BA:913,0
BA:913,0
BA:913,0
BA:913,0
BA:913,0
BA:913,0
BA:913,0
BA:913,0
BA:944,0
BA:944,0
BA:950,0
BA:950,0
BA:974,0
BA:974,0
BA:976,0
BA:976,0
BA:985,0
BA:985,0
BA:994,0
BA:994,0
BA:1010,0
BA:1010,0
BA:1010,0
BA:1045,0
BA:1045,0
BA:1055,0
BA:1055,0
BA:1055,0
BA:1055,0
BA:1055,0
BA:1055,0
BA:1057,0
BA:1057,0
BA:1057,0
BA:1057,0
BA:1057,0
BA:1057,0
BA:1083,0
BA:1083,0
BA:1083,0
BA:1083,0
BA:1083,0
BA:1083,0
BA:1083,0
BA:1083,0
BA:1083,0
BA:1083,0
BA:1093,0
BA:1093,0
BA:1124,0
BA:1124,0
BA:1134,0
BA:1134,0
BA:1134,0
BA:1134,0
BA:1134,0
BA:1134,0
BA:1140,0
BA:1140,0
BA:1160,0
BA:1160,0
BA:1160,0
BA:1160,0
BA:1160,0
BA:1160,0
BA:1162,0
BA:1162,0
BA:1162,0
BA:1162,0
BA:1162,0
BA:1162,0
BA:1169,0
BA:1169,0
BA:1171,0
BA:1171,0
BA:1176,0
BA:1176,0
BA:1183,0
BA:1183,0
BA:1209,0
BA:1209,0
BA:1237,0
BA:1237,0
BA:1243,0
BA:1243,0
BA:1243,0
BA:1243,0
BA:1243,0
BA:1243,0
BA:1245,0
BA:1245,0
BA:1245,0
BA:1245,0
BA:1245,0
BA:1245,0
BA:1257,0
BA:1257,0
BA:1259,0
BA:1259,0
BA:1264,0
BA:1264,0
BA:1294,0
BA:1294,0
BA:1303,0
BA:1303,0
BA:1307,2
BA:1307,1
BA:1307,2
BA:1307,1
LF:422
LH:1
end_of_record
SF:/home/frechilla/workspace/headless/blockem_sourceforge/src/gui_main_window.h
FN:111,_ZN10MainWindow16CalculatedMove_tC1Ev
FN:111,_ZN10MainWindow16CalculatedMove_tD1Ev
FN:111,_ZN10MainWindow16CalculatedMove_tC1ERKS0_
FN:111,_ZN10MainWindow16CalculatedMove_taSERKS0_
FNDA:0,_ZN10MainWindow16CalculatedMove_tC1Ev
FNDA:0,_ZN10MainWindow16CalculatedMove_tD1Ev
FNDA:0,_ZN10MainWindow16CalculatedMove_tC1ERKS0_
FNDA:0,_ZN10MainWindow16CalculatedMove_taSERKS0_
FNF:4
FNH:0
DA:111,0
LF:1
LH:0
end_of_record
SF:/home/frechilla/workspace/headless/blockem_sourceforge/src/gui_main_window_worker_thread.h
FN:85,_ZN22MainWindowWorkerThread24signal_computingFinishedEv
FNDA:0,_ZN22MainWindowWorkerThread24signal_computingFinishedEv
FNF:1
FNH:0
DA:85,0
DA:87,0
LF:2
LH:0
end_of_record
SF:/home/frechilla/workspace/headless/blockem_sourceforge/src/gui_table_edit_piece.h
FN:74,_ZN14TableEditPiece19signal_pieceChangedEv
FNDA:0,_ZN14TableEditPiece19signal_pieceChangedEv
FNF:1
FNH:0
DA:74,0
DA:76,0
LF:2
LH:0
end_of_record
SF:/home/frechilla/workspace/headless/blockem_sourceforge/src/piece.h
FN:152,_ZNK5Piece7GetTypeEv
FN:195,_ZNK5Piece23GetCurrentConfigurationEv
FN:158,_ZNK5Piece11GetNSquaresEv
FN:92,_ZN5PieceC1ERKS_
FN:92,_ZN5PieceaSERKS_
FNDA:0,_ZN5PieceC1ERKS_
FNDA:0,_ZN5PieceaSERKS_
FNDA:0,_ZNK5Piece7GetTypeEv
FNDA:0,_ZNK5Piece11GetNSquaresEv
FNDA:0,_ZNK5Piece23GetCurrentConfigurationEv
FNF:5
FNH:0
DA:92,0
DA:152,0
DA:154,0
DA:158,0
DA:160,0
DA:195,0
DA:197,0
LF:7
LH:0
end_of_record
SF:/home/frechilla/workspace/headless/blockem_sourceforge/src/player.h
FN:86,_ZNK6Player7GetNameEv
FN:98,_ZNK6Player21GetStartingCoordinateEv
FN:109,_ZNK6Player23NumberOfPiecesAvailableEv
FN:142,_ZNK6Player16IsPieceAvailableE12ePieceType_t
FNDA:0,_ZNK6Player7GetNameEv
FNDA:0,_ZNK6Player21GetStartingCoordinateEv
FNDA:0,_ZNK6Player23NumberOfPiecesAvailableEv
FNDA:0,_ZNK6Player16IsPieceAvailableE12ePieceType_t
FNF:4
FNH:0
DA:86,0
DA:88,0
DA:98,0
DA:100,0
DA:109,0
DA:111,0
DA:142,0
DA:145,0
DA:147,0
BA:145,0
BA:145,0
BA:145,0
BA:145,0
LF:9
LH:0
end_of_record
SF:/home/frechilla/workspace/headless/blockem_sourceforge/src/singleton.h
FN:39,_ZN9SingletonI13Game1v1ConfigE8InstanceEv
FNDA:0,_ZN9SingletonI13Game1v1ConfigE8InstanceEv
FNF:1
FNH:0
DA:39,0
DA:41,0
DA:43,0
DA:44,0
DA:47,0
BA:41,0
BA:41,0
BA:43,0
BA:43,0
BA:43,0
BA:43,0
BA:43,0
BA:43,0
LF:5
LH:0
end_of_record
TN:
SF:/usr/include/c++/4.4/bits/allocator.h
FN:101,_ZNSaIcEC1Ev
FN:109,_ZNSaIcED1Ev
FN:103,_ZNSaIcEC1ERKS_
FN:109,_ZNSaIcED2Ev
FNDA:0,_ZNSaIcEC1Ev
FNDA:0,_ZNSaIcEC1ERKS_
FNDA:0,_ZNSaIcED1Ev
FNDA:0,_ZNSaIcED2Ev
FNF:4
FNH:0
DA:101,0
DA:103,0
DA:104,0
DA:109,0
LF:4
LH:0
end_of_record
SF:/usr/include/c++/4.4/bits/basic_string.h
FN:272,_ZNKSs7_M_dataEv
FN:280,_ZNKSs6_M_repEv
FN:173,_ZNSs4_Rep12_S_empty_repEv
FN:1632,_ZNKSs13get_allocatorEv
FN:253,_ZNSs12_Alloc_hiderD1Ev
FN:224,_ZNSs4_Rep10_M_disposeERKSaIcE
FN:497,_ZNSsD1Ev
FNDA:0,_ZNSs4_Rep12_S_empty_repEv
FNDA:0,_ZNSs4_Rep10_M_disposeERKSaIcE
FNDA:0,_ZNSs12_Alloc_hiderD1Ev
FNDA:0,_ZNKSs7_M_dataEv
FNDA:0,_ZNKSs6_M_repEv
FNDA:0,_ZNSsD1Ev
FNDA:0,_ZNKSs13get_allocatorEv
FNF:7
FNH:0
DA:173,0
DA:178,0
DA:179,0
DA:224,0
DA:227,0
DA:229,0
DA:231,0
DA:232,0
DA:253,0
DA:272,0
DA:273,0
DA:280,0
DA:281,0
DA:497,0
DA:498,0
DA:1632,0
DA:1633,0
BA:227,0
BA:227,0
BA:229,0
BA:229,0
LF:17
LH:0
end_of_record
SF:/usr/include/c++/4.4/bits/stl_algobase.h
FN:209,_ZSt3maxIiERKT_S2_S2_
FNDA:34967040,_ZSt3maxIiERKT_S2_S2_
FNF:1
FNH:1
DA:209,34967040
DA:214,34967040
DA:215,22317105
DA:216,12649935
BA:214,2
BA:214,2
LF:4
LH:4
end_of_record
SF:/usr/include/c++/4.4/bits/stl_list.h
FN:255,_ZNKSt20_List_const_iteratorIyEneERKS0_
FN:213,_ZNKSt20_List_const_iteratorIyEdeEv
FN:228,_ZNSt20_List_const_iteratorIyEppEi
FN:200,_ZNSt20_List_const_iteratorISt6vectorI10CoordinateSaIS1_EEEC1Ev
FN:255,_ZNKSt20_List_const_iteratorISt6vectorI10CoordinateSaIS1_EEEneERKS4_
FN:228,_ZNSt20_List_const_iteratorISt6vectorI10CoordinateSaIS1_EEEppEi
FN:213,_ZNKSt20_List_const_iteratorISt6vectorI10CoordinateSaIS1_EEEdeEv
FN:204,_ZNSt20_List_const_iteratorIyEC1EPKSt15_List_node_base
FN:698,_ZNKSt4listIySaIyEE5beginEv
FN:716,_ZNKSt4listIySaIyEE3endEv
FN:204,_ZNSt20_List_const_iteratorISt6vectorI10CoordinateSaIS1_EEEC1EPKSt15_List_node_base
FN:698,_ZNKSt4listISt6vectorI10CoordinateSaIS1_EESaIS3_EE5beginEv
FN:716,_ZNKSt4listISt6vectorI10CoordinateSaIS1_EESaIS3_EE3endEv
FNDA:0,_ZNSt20_List_const_iteratorISt6vectorI10CoordinateSaIS1_EEEC1Ev
FNDA:0,_ZNSt20_List_const_iteratorIyEC1EPKSt15_List_node_base
FNDA:0,_ZNSt20_List_const_iteratorISt6vectorI10CoordinateSaIS1_EEEC1EPKSt15_List_node_base
FNDA:0,_ZNKSt20_List_const_iteratorIyEdeEv
FNDA:0,_ZNKSt20_List_const_iteratorISt6vectorI10CoordinateSaIS1_EEEdeEv
FNDA:0,_ZNSt20_List_const_iteratorIyEppEi
FNDA:0,_ZNSt20_List_const_iteratorISt6vectorI10CoordinateSaIS1_EEEppEi
FNDA:0,_ZNKSt20_List_const_iteratorIyEneERKS0_
FNDA:0,_ZNKSt20_List_const_iteratorISt6vectorI10CoordinateSaIS1_EEEneERKS4_
FNDA:0,_ZNKSt4listIySaIyEE5beginEv
FNDA:0,_ZNKSt4listISt6vectorI10CoordinateSaIS1_EESaIS3_EE5beginEv
FNDA:0,_ZNKSt4listIySaIyEE3endEv
FNDA:0,_ZNKSt4listISt6vectorI10CoordinateSaIS1_EESaIS3_EE3endEv
FNF:13
FNH:0
DA:200,0
DA:201,0
DA:204,0
DA:205,0
DA:213,0
DA:214,0
DA:228,0
DA:230,0
DA:231,0
DA:255,0
DA:256,0
DA:698,0
DA:699,0
DA:716,0
DA:717,0
LF:15
LH:0
end_of_record
SF:/usr/include/c++/4.4/bits/stl_vector.h
FN:532,_ZNKSt6vectorI10CoordinateSaIS0_EE4sizeEv
FNDA:0,_ZNKSt6vectorI10CoordinateSaIS0_EE4sizeEv
FNF:1
FNH:0
DA:532,0
DA:533,0
LF:2
LH:0
end_of_record
SF:/usr/include/c++/4.4/ext/atomicity.h
FN:62,_ZN9__gnu_cxxL25__exchange_and_add_singleEPii
FN:45,_ZN9__gnu_cxxL18__exchange_and_addEPVii
FN:75,_ZN9__gnu_cxxL27__exchange_and_add_dispatchEPii
FNDA:0,_ZN9__gnu_cxxL18__exchange_and_addEPVii
FNDA:0,_ZN9__gnu_cxxL25__exchange_and_add_singleEPii
FNDA:0,_ZN9__gnu_cxxL27__exchange_and_add_dispatchEPii
FNF:3
FNH:0
DA:45,0
DA:46,0
DA:62,0
DA:64,0
DA:65,0
DA:66,0
DA:75,0
DA:78,0
DA:79,0
DA:81,0
BA:78,0
BA:78,0
LF:10
LH:0
end_of_record
SF:/usr/include/c++/4.4/ext/new_allocator.h
FN:66,_ZN9__gnu_cxx13new_allocatorIcEC2Ev
FN:73,_ZN9__gnu_cxx13new_allocatorIcED2Ev
FN:68,_ZN9__gnu_cxx13new_allocatorIcEC2ERKS1_
FNDA:0,_ZN9__gnu_cxx13new_allocatorIcEC2Ev
FNDA:0,_ZN9__gnu_cxx13new_allocatorIcEC2ERKS1_
FNDA:0,_ZN9__gnu_cxx13new_allocatorIcED2Ev
FNF:3
FNH:0
DA:66,0
DA:68,0
DA:73,0
LF:3
LH:0
end_of_record
SF:/usr/include/c++/4.4/i486-linux-gnu/bits/gthr-default.h
FN:238,_ZL18__gthread_active_pv
FNDA:0,_ZL18__gthread_active_pv
FNF:1
FNH:0
DA:238,0
DA:242,0
LF:2
LH:0
end_of_record
SF:/home/frechilla/workspace/headless/blockem_sourceforge/src/bitwise.h
FN:136,_ZN7bitwise17IsPieceDeployableEyyy
FNDA:0,_ZN7bitwise17IsPieceDeployableEyyy
FNF:1
FNH:0
DA:136,0
DA:139,0
DA:145,0
DA:151,0
DA:156,0
DA:161,0
BA:139,0
BA:139,0
BA:145,0
BA:145,0
BA:145,0
BA:145,0
BA:145,0
BA:145,0
BA:145,0
BA:145,0
BA:151,0
BA:151,0
BA:151,0
BA:151,0
BA:151,0
BA:151,0
BA:151,0
BA:151,0
LF:6
LH:0
end_of_record
SF:/home/frechilla/workspace/headless/blockem_sourceforge/src/board.h
FN:103,_ZNK5Board8GetNRowsEv
FN:109,_ZNK5Board11GetNColumnsEv
FN:55,_ZNK5Board12IsCoordEmptyERK10Coordinate
FN:79,_ZNK5Board15IsPlayerInCoordERK10CoordinateRK6Player
FNDA:0,_ZNK5Board12IsCoordEmptyERK10Coordinate
FNDA:0,_ZNK5Board15IsPlayerInCoordERK10CoordinateRK6Player
FNDA:0,_ZNK5Board8GetNRowsEv
FNDA:0,_ZNK5Board11GetNColumnsEv
FNF:4
FNH:0
DA:55,0
DA:58,0
DA:59,0
DA:60,0
DA:61,0
DA:63,0
DA:79,0
DA:82,0
DA:83,0
DA:84,0
DA:85,0
DA:87,0
DA:103,0
DA:105,0
DA:109,0
DA:111,0
BA:58,0
BA:58,0
BA:59,0
BA:59,0
BA:60,0
BA:60,0
BA:61,0
BA:61,0
BA:82,0
BA:82,0
BA:83,0
BA:83,0
BA:84,0
BA:84,0
BA:85,0
BA:85,0
LF:16
LH:0
end_of_record
SF:/home/frechilla/workspace/headless/blockem_sourceforge/src/coordinate.h
FN:49,_ZN10CoordinateC1Ev
FN:53,_ZN10CoordinateC1Eii
FN:57,_ZN10CoordinateD0Ev
FN:57,_ZN10CoordinateD1Ev
FNDA:0,_ZN10CoordinateC1Ev
FNDA:0,_ZN10CoordinateC1Eii
FNDA:0,_ZN10CoordinateD0Ev
FNDA:0,_ZN10CoordinateD1Ev
FNF:4
FNH:0
DA:49,0
DA:51,0
DA:52,0
DA:53,0
DA:55,0
DA:56,0
DA:57,0
DA:58,0
BA:58,0
BA:58,0
BA:58,0
BA:58,0
LF:8
LH:0
end_of_record
SF:/home/frechilla/workspace/headless/blockem_sourceforge/src/heuristic.cpp
FN:562,_ZN9Heuristic23CalculateCircularWeightERK5BoardRK10Coordinate
FN:675,_Z41__static_initialization_and_destruction_0ii
FN:675,_GLOBAL__I__ZN9Heuristic15m_heuristicDataE
FN:42,__tcf_0
FN:639,_ZN9Heuristic35BiggestPieceDeployableInNKPointSizeERK5BoardRK6PlayerRK10Coordinate
FN:607,_ZN9Heuristic32CountSquaresCanBeDeployedBitwiseERK5BoardRK6Playeryy
FN:76,_ZN9Heuristic15CalculateSimpleERK5BoardRK6PlayerS5_
FN:507,_ZN9Heuristic25NKBasedHeuristicThisCoordERK5BoardRK6PlayerS5_RK10Coordinate
FN:127,_ZN9Heuristic22CalculateCentreFocusedERK5BoardRK6PlayerS5_
FN:274,_ZN9Heuristic21CalculateNKWeightedv3ERK5BoardRK6PlayerS5_
FN:198,_ZN9Heuristic21CalculateNKWeightedv1ERK5BoardRK6PlayerS5_
FN:358,_ZN9Heuristic16CalculateNPiecesERK5BoardRK6PlayerS5_
FN:109,_ZN9Heuristic15CalculateRandomERK5BoardRK6PlayerS5_
FNDA:18,__tcf_0
FNDA:0,_ZN9Heuristic15CalculateSimpleERK5BoardRK6PlayerS5_
FNDA:0,_ZN9Heuristic15CalculateRandomERK5BoardRK6PlayerS5_
FNDA:438457,_ZN9Heuristic22CalculateCentreFocusedERK5BoardRK6PlayerS5_
FNDA:1878639,_ZN9Heuristic21CalculateNKWeightedv1ERK5BoardRK6PlayerS5_
FNDA:0,_ZN9Heuristic21CalculateNKWeightedv3ERK5BoardRK6PlayerS5_
FNDA:0,_ZN9Heuristic16CalculateNPiecesERK5BoardRK6PlayerS5_
FNDA:0,_ZN9Heuristic25NKBasedHeuristicThisCoordERK5BoardRK6PlayerS5_RK10Coordinate
FNDA:9152013,_ZN9Heuristic23CalculateCircularWeightERK5BoardRK10Coordinate
FNDA:0,_ZN9Heuristic32CountSquaresCanBeDeployedBitwiseERK5BoardRK6Playeryy
FNDA:0,_ZN9Heuristic35BiggestPieceDeployableInNKPointSizeERK5BoardRK6PlayerRK10Coordinate
FNDA:18,_Z41__static_initialization_and_destruction_0ii
FNDA:18,_GLOBAL__I__ZN9Heuristic15m_heuristicDataE
FNF:13
FNH:6
DA:42,36
DA:74,18
DA:76,0
DA:81,0
DA:82,0
DA:83,0
DA:85,0
DA:86,0
DA:88,0
DA:90,0
DA:92,0
DA:94,0
DA:96,0
DA:101,0
DA:102,0
DA:103,0
DA:104,0
DA:106,0
DA:109,0
DA:116,0
DA:118,0
DA:121,0
DA:124,0
DA:127,438457
DA:132,438457
DA:133,438457
DA:134,438457
DA:135,438457
DA:136,438457
DA:138,438457
DA:139,6576855
DA:141,92075970
DA:143,85937572
DA:145,73822929
DA:146,73822929
DA:148,73822929
DA:150,4398709
DA:151,4398709
DA:153,4398709
DA:156,73822929
DA:158,5027907
DA:160,4753304
DA:161,4753304
DA:165,986086
DA:173,274603
DA:176,5027907
DA:179,12114643
DA:181,6903691
DA:185,5210952
DA:190,438457
DA:191,438457
DA:192,438457
DA:193,438457
DA:195,438457
DA:198,1878639
DA:203,1878639
DA:206,438457
DA:209,1440182
DA:211,1440182
DA:212,1440182
DA:213,1440182
DA:214,1440182
DA:216,1440182
DA:217,21602730
DA:219,302438220
DA:221,282275672
DA:223,202609926
DA:225,202609926
DA:227,17840825
DA:228,17840825
DA:231,202609926
DA:233,23194155
DA:235,22113765
DA:237,22113765
DA:241,7147750
DA:255,79665746
DA:257,40886531
DA:261,38779215
DA:266,1440182
DA:267,1440182
DA:268,1440182
DA:269,1440182
DA:271,1440182
DA:274,0
DA:281,0
DA:284,0
DA:287,0
DA:288,0
DA:289,0
DA:290,0
DA:291,0
DA:293,0
DA:294,0
DA:296,0
DA:298,0
DA:300,0
DA:302,0
DA:304,0
DA:305,0
DA:307,0
DA:311,0
DA:315,0
DA:317,0
DA:319,0
DA:321,0
DA:325,0
DA:332,0
DA:336,0
DA:338,0
DA:342,0
DA:348,0
DA:349,0
DA:352,0
DA:353,0
DA:355,0
DA:358,0
DA:363,0
DA:365,0
DA:369,0
DA:372,0
DA:378,0
DA:380,0
DA:384,0
DA:390,0
DA:397,0
DA:399,0
DA:402,0
DA:408,0
DA:415,0
DA:418,0
DA:420,0
DA:424,0
DA:425,0
DA:428,0
DA:432,0
DA:438,0
DA:445,0
DA:447,0
DA:450,0
DA:456,0
DA:463,0
DA:466,0
DA:468,0
DA:472,0
DA:473,0
DA:476,0
DA:478,0
DA:480,0
DA:482,0
DA:494,0
DA:495,0
DA:496,0
DA:501,0
DA:504,0
DA:507,0
DA:513,0
DA:514,0
DA:515,0
DA:516,0
DA:518,0
DA:520,0
DA:522,0
DA:525,0
DA:527,0
DA:529,0
DA:530,0
DA:534,0
DA:542,0
DA:546,0
DA:548,0
DA:552,0
DA:555,0
DA:556,0
DA:557,0
DA:559,0
DA:562,9152013
DA:600,9152013
DA:602,9152013
DA:604,9152013
DA:607,0
DA:613,0
DA:615,0
DA:617,0
DA:619,0
DA:620,0
DA:621,0
DA:623,0
DA:625,0
DA:627,0
DA:628,0
DA:631,0
DA:636,0
DA:639,0
DA:646,0
DA:648,0
DA:650,0
DA:653,0
DA:654,0
DA:656,0
DA:660,0
DA:665,0
DA:667,0
DA:674,0
DA:675,54
BA:42,2
BA:42,2
BA:74,0
BA:74,0
BA:74,0
BA:74,0
BA:86,0
BA:86,0
BA:88,0
BA:88,0
BA:90,0
BA:90,0
BA:94,0
BA:94,0
BA:116,0
BA:116,0
BA:139,2
BA:139,2
BA:141,2
BA:141,2
BA:143,2
BA:143,2
BA:148,2
BA:148,2
BA:156,2
BA:156,2
BA:158,2
BA:158,2
BA:161,2
BA:161,2
BA:179,2
BA:179,2
BA:203,2
BA:203,2
BA:217,2
BA:217,2
BA:219,2
BA:219,2
BA:221,2
BA:221,2
BA:225,2
BA:225,2
BA:231,2
BA:231,2
BA:233,2
BA:233,2
BA:237,2
BA:237,2
BA:255,2
BA:255,2
BA:281,0
BA:281,0
BA:294,0
BA:294,0
BA:296,0
BA:296,0
BA:298,0
BA:298,0
BA:302,0
BA:302,0
BA:307,0
BA:307,0
BA:315,0
BA:315,0
BA:319,0
BA:319,0
BA:321,0
BA:321,0
BA:336,0
BA:336,0
BA:380,0
BA:380,0
BA:384,0
BA:384,0
BA:402,0
BA:402,0
BA:418,0
BA:418,0
BA:428,0
BA:428,0
BA:432,0
BA:432,0
BA:450,0
BA:450,0
BA:466,0
BA:466,0
BA:478,0
BA:478,0
BA:480,0
BA:480,0
BA:496,0
BA:496,0
BA:518,0
BA:518,0
BA:520,0
BA:520,0
BA:525,0
BA:525,0
BA:527,0
BA:527,0
BA:530,0
BA:530,0
BA:546,0
BA:546,0
BA:615,0
BA:615,0
BA:617,0
BA:617,0
BA:621,0
BA:621,0
BA:625,0
BA:625,0
BA:646,0
BA:646,0
BA:646,0
BA:646,0
BA:646,0
BA:646,0
BA:648,0
BA:648,0
BA:650,0
BA:650,0
BA:656,0
BA:656,0
BA:660,0
BA:660,0
BA:675,2
BA:675,1
BA:675,2
BA:675,1
LF:204
LH:67
end_of_record
SF:/home/frechilla/workspace/headless/blockem_sourceforge/src/heuristic.h
FN:77,_ZN9Heuristic16sHeuristicData_tD1Ev
FNDA:108,_ZN9Heuristic16sHeuristicData_tD1Ev
FNF:1
FNH:1
DA:77,108
LF:1
LH:1
end_of_record
SF:/home/frechilla/workspace/headless/blockem_sourceforge/src/piece.h
FN:167,_ZNK5Piece9GetRadiusEv
FN:173,_ZNK5Piece21GetPrecalculatedConfsEv
FN:181,_ZNK5Piece14GetBitwiseListEv
FN:158,_ZNK5Piece11GetNSquaresEv
FNDA:0,_ZNK5Piece11GetNSquaresEv
FNDA:0,_ZNK5Piece9GetRadiusEv
FNDA:0,_ZNK5Piece21GetPrecalculatedConfsEv
FNDA:0,_ZNK5Piece14GetBitwiseListEv
FNF:4
FNH:0
DA:158,0
DA:160,0
DA:167,0
DA:169,0
DA:173,0
DA:175,0
DA:181,0
DA:183,0
LF:8
LH:0
end_of_record
SF:/home/frechilla/workspace/headless/blockem_sourceforge/src/player.h
FN:80,_ZNK6Player16PresentationCharEv
FN:109,_ZNK6Player23NumberOfPiecesAvailableEv
FN:114,_ZNK6Player24NumberOfNucleationPointsEv
FN:142,_ZNK6Player16IsPieceAvailableE12ePieceType_t
FN:151,_ZNK6Player17IsNucleationPointERK10Coordinate
FNDA:0,_ZNK6Player16PresentationCharEv
FNDA:0,_ZNK6Player23NumberOfPiecesAvailableEv
FNDA:0,_ZNK6Player24NumberOfNucleationPointsEv
FNDA:0,_ZNK6Player16IsPieceAvailableE12ePieceType_t
FNDA:0,_ZNK6Player17IsNucleationPointERK10Coordinate
FNF:5
FNH:0
DA:80,0
DA:82,0
DA:109,0
DA:111,0
DA:114,0
DA:116,0
DA:142,0
DA:145,0
DA:147,0
DA:151,0
DA:154,0
DA:155,0
DA:157,0
BA:145,0
BA:145,0
BA:145,0
BA:145,0
BA:154,0
BA:154,0
BA:154,0
BA:154,0
BA:155,0
BA:155,0
BA:155,0
BA:155,0
LF:13
LH:0
end_of_record
TN:
SF:/usr/include/c++/4.4/bits/allocator.h
FN:107,_ZNSaIN4sigc9slot_baseEEC1ISt10_List_nodeIS0_EEERKSaIT_E
FN:109,_ZNSaIN4sigc9slot_baseEED1Ev
FN:109,_ZNSaISt10_List_nodeIN4sigc9slot_baseEEED2Ev
FNDA:0,_ZNSaIN4sigc9slot_baseEEC1ISt10_List_nodeIS0_EEERKSaIT_E
FNDA:0,_ZNSaIN4sigc9slot_baseEED1Ev
FNDA:0,_ZNSaISt10_List_nodeIN4sigc9slot_baseEEED2Ev
FNF:3
FNH:0
DA:107,0
DA:109,0
LF:2
LH:0
end_of_record
SF:/usr/include/c++/4.4/bits/list.tcc
FN:97,_ZNSt4listIN4sigc9slot_baseESaIS1_EE6insertESt14_List_iteratorIS1_ERKS1_
FN:64,_ZNSt10_List_baseIN4sigc9slot_baseESaIS1_EE8_M_clearEv
FN:107,_ZNSt4listIN4sigc9slot_baseESaIS1_EE5eraseESt14_List_iteratorIS1_E
FNDA:0,_ZNSt10_List_baseIN4sigc9slot_baseESaIS1_EE8_M_clearEv
FNDA:0,_ZNSt4listIN4sigc9slot_baseESaIS1_EE6insertESt14_List_iteratorIS1_ERKS1_
FNDA:0,_ZNSt4listIN4sigc9slot_baseESaIS1_EE5eraseESt14_List_iteratorIS1_E
FNF:3
FNH:0
DA:64,0
DA:68,0
DA:69,0
DA:71,0
DA:72,0
DA:76,0
DA:78,0
DA:80,0
DA:97,0
DA:100,0
DA:101,0
DA:102,0
DA:107,0
DA:110,0
DA:111,0
BA:69,0
BA:69,0
LF:15
LH:0
end_of_record
SF:/usr/include/c++/4.4/bits/stl_algobase.h
FN:186,_ZSt3minIiERKT_S2_S2_
FNDA:0,_ZSt3minIiERKT_S2_S2_
FNF:1
FNH:0
DA:186,0
DA:191,0
DA:192,0
DA:193,0
BA:191,0
BA:191,0
LF:4
LH:0
end_of_record
SF:/usr/include/c++/4.4/bits/stl_list.h
FN:799,_ZNKSt4listIN4sigc9slot_baseESaIS1_EE5emptyEv
FN:124,_ZNSt14_List_iteratorIN4sigc9slot_baseEEC1Ev
FN:207,_ZNSt20_List_const_iteratorIN4sigc9slot_baseEEC1ERKSt14_List_iteratorIS1_E
FN:255,_ZNKSt20_List_const_iteratorIN4sigc9slot_baseEEneERKS2_
FN:221,_ZNSt20_List_const_iteratorIN4sigc9slot_baseEEppEv
FN:217,_ZNKSt20_List_const_iteratorIN4sigc9slot_baseEEptEv
FN:128,_ZNSt14_List_iteratorIN4sigc9slot_baseEEC1EPSt15_List_node_base
FN:707,_ZNSt4listIN4sigc9slot_baseESaIS1_EE3endEv
FN:689,_ZNSt4listIN4sigc9slot_baseESaIS1_EE5beginEv
FN:330,_ZNKSt10_List_baseIN4sigc9slot_baseESaIS1_EE21_M_get_Node_allocatorEv
FN:315,_ZNSt10_List_baseIN4sigc9slot_baseESaIS1_EE11_M_get_nodeEv
FN:334,_ZNKSt10_List_baseIN4sigc9slot_baseESaIS1_EE19_M_get_Tp_allocatorEv
FN:300,_ZNSt10_List_baseIN4sigc9slot_baseESaIS1_EE10_List_implD1Ev
FN:319,_ZNSt10_List_baseIN4sigc9slot_baseESaIS1_EE11_M_put_nodeEPSt10_List_nodeIS1_E
FN:459,_ZNSt4listIN4sigc9slot_baseESaIS1_EE14_M_create_nodeERKS1_
FN:359,_ZNSt10_List_baseIN4sigc9slot_baseESaIS1_EED2Ev
FN:418,_ZNSt4listIN4sigc9slot_baseESaIS1_EED1Ev
FN:1422,_ZNSt4listIN4sigc9slot_baseESaIS1_EE8_M_eraseESt14_List_iteratorIS1_E
FNDA:0,_ZNSt14_List_iteratorIN4sigc9slot_baseEEC1Ev
FNDA:0,_ZNSt14_List_iteratorIN4sigc9slot_baseEEC1EPSt15_List_node_base
FNDA:0,_ZNSt20_List_const_iteratorIN4sigc9slot_baseEEC1ERKSt14_List_iteratorIS1_E
FNDA:0,_ZNKSt20_List_const_iteratorIN4sigc9slot_baseEEptEv
FNDA:0,_ZNSt20_List_const_iteratorIN4sigc9slot_baseEEppEv
FNDA:0,_ZNKSt20_List_const_iteratorIN4sigc9slot_baseEEneERKS2_
FNDA:0,_ZNSt10_List_baseIN4sigc9slot_baseESaIS1_EE10_List_implD1Ev
FNDA:0,_ZNSt10_List_baseIN4sigc9slot_baseESaIS1_EE11_M_get_nodeEv
FNDA:0,_ZNSt10_List_baseIN4sigc9slot_baseESaIS1_EE11_M_put_nodeEPSt10_List_nodeIS1_E
FNDA:0,_ZNKSt10_List_baseIN4sigc9slot_baseESaIS1_EE21_M_get_Node_allocatorEv
FNDA:0,_ZNKSt10_List_baseIN4sigc9slot_baseESaIS1_EE19_M_get_Tp_allocatorEv
FNDA:0,_ZNSt10_List_baseIN4sigc9slot_baseESaIS1_EED2Ev
FNDA:0,_ZNSt4listIN4sigc9slot_baseESaIS1_EED1Ev
FNDA:0,_ZNSt4listIN4sigc9slot_baseESaIS1_EE14_M_create_nodeERKS1_
FNDA:0,_ZNSt4listIN4sigc9slot_baseESaIS1_EE5beginEv
FNDA:0,_ZNSt4listIN4sigc9slot_baseESaIS1_EE3endEv
FNDA:0,_ZNKSt4listIN4sigc9slot_baseESaIS1_EE5emptyEv
FNDA:0,_ZNSt4listIN4sigc9slot_baseESaIS1_EE8_M_eraseESt14_List_iteratorIS1_E
FNF:18
FNH:0
DA:124,0
DA:125,0
DA:128,0
DA:129,0
DA:207,0
DA:208,0
DA:217,0
DA:218,0
DA:221,0
DA:223,0
DA:224,0
DA:255,0
DA:256,0
DA:300,0
DA:315,0
DA:316,0
DA:319,0
DA:320,0
DA:330,0
DA:331,0
DA:334,0
DA:335,0
DA:359,0
DA:360,0
DA:418,0
DA:459,0
DA:461,0
DA:464,0
DA:466,0
DA:468,0
DA:469,0
DA:471,0
DA:689,0
DA:690,0
DA:707,0
DA:708,0
DA:799,0
DA:800,0
DA:1422,0
DA:1424,0
DA:1425,0
DA:1429,0
DA:1431,0
DA:1432,0
LF:44
LH:0
end_of_record
SF:/usr/include/c++/4.4/ext/new_allocator.h
FN:73,_ZN9__gnu_cxx13new_allocatorISt10_List_nodeIN4sigc9slot_baseEEED2Ev
FN:73,_ZN9__gnu_cxx13new_allocatorIN4sigc9slot_baseEED2Ev
FN:66,_ZN9__gnu_cxx13new_allocatorIN4sigc9slot_baseEEC2Ev
FN:98,_ZNK9__gnu_cxx13new_allocatorISt10_List_nodeIN4sigc9slot_baseEEE8max_sizeEv
FN:115,_ZN9__gnu_cxx13new_allocatorIN4sigc9slot_baseEE7destroyEPS2_
FN:84,_ZN9__gnu_cxx13new_allocatorISt10_List_nodeIN4sigc9slot_baseEEE8allocateEjPKv
FN:104,_ZN9__gnu_cxx13new_allocatorIN4sigc9slot_baseEE9constructEPS2_RKS2_
FN:94,_ZN9__gnu_cxx13new_allocatorISt10_List_nodeIN4sigc9slot_baseEEE10deallocateEPS4_j
FNDA:0,_ZN9__gnu_cxx13new_allocatorIN4sigc9slot_baseEEC2Ev
FNDA:0,_ZN9__gnu_cxx13new_allocatorISt10_List_nodeIN4sigc9slot_baseEEED2Ev
FNDA:0,_ZN9__gnu_cxx13new_allocatorIN4sigc9slot_baseEED2Ev
FNDA:0,_ZN9__gnu_cxx13new_allocatorISt10_List_nodeIN4sigc9slot_baseEEE8allocateEjPKv
FNDA:0,_ZN9__gnu_cxx13new_allocatorISt10_List_nodeIN4sigc9slot_baseEEE10deallocateEPS4_j
FNDA:0,_ZNK9__gnu_cxx13new_allocatorISt10_List_nodeIN4sigc9slot_baseEEE8max_sizeEv
FNDA:0,_ZN9__gnu_cxx13new_allocatorIN4sigc9slot_baseEE9constructEPS2_RKS2_
FNDA:0,_ZN9__gnu_cxx13new_allocatorIN4sigc9slot_baseEE7destroyEPS2_
FNF:8
FNH:0
DA:66,0
DA:73,0
DA:84,0
DA:86,0
DA:87,0
DA:89,0
DA:94,0
DA:95,0
DA:98,0
DA:99,0
DA:104,0
DA:105,0
DA:115,0
BA:86,0
BA:86,0
BA:105,0
BA:105,0
LF:13
LH:0
end_of_record
SF:/usr/include/c++/4.4/new
FN:101,_ZnwjPv
FN:105,_ZdlPvS_
FNDA:0,_ZnwjPv
FNDA:0,_ZdlPvS_
FNF:2
FNH:0
DA:101,0
DA:105,0
LF:2
LH:0
end_of_record
SF:/usr/include/cairomm-1.0/cairomm/refptr.h
FN:180,_ZNK5Cairo6RefPtrINS_7ContextEEptEv
FN:199,_ZN5Cairo6RefPtrINS_7ContextEE5unrefEv
FN:193,_ZN5Cairo6RefPtrINS_7ContextEED1Ev
FNDA:0,_ZNK5Cairo6RefPtrINS_7ContextEEptEv
FNDA:0,_ZN5Cairo6RefPtrINS_7ContextEED1Ev
FNDA:0,_ZN5Cairo6RefPtrINS_7ContextEE5unrefEv
FNF:3
FNH:0
DA:180,0
DA:182,0
DA:193,0
DA:195,0
DA:196,0
DA:199,0
DA:201,0
DA:203,0
DA:205,0
DA:207,0
DA:209,0
DA:210,0
DA:213,0
DA:214,0
DA:217,0
BA:201,0
BA:201,0
BA:205,0
BA:205,0
BA:207,0
BA:207,0
BA:209,0
BA:209,0
LF:15
LH:0
end_of_record
SF:/usr/include/glibmm-2.4/glibmm/refptr.h
FN:181,_ZN4Glib6RefPtrIN3Gdk6WindowEED1Ev
FN:282,_ZNK4Glib6RefPtrIN3Gdk6WindowEEcvbEv
FN:169,_ZNK4Glib6RefPtrIN3Gdk6WindowEEptEv
FNDA:0,_ZNK4Glib6RefPtrIN3Gdk6WindowEEptEv
FNDA:0,_ZN4Glib6RefPtrIN3Gdk6WindowEED1Ev
FNDA:0,_ZNK4Glib6RefPtrIN3Gdk6WindowEEcvbEv
FNF:3
FNH:0
DA:169,0
DA:171,0
DA:181,0
DA:183,0
DA:184,0
DA:185,0
DA:282,0
DA:284,0
BA:183,0
BA:183,0
LF:8
LH:0
end_of_record
SF:/usr/include/gtkmm-2.4/gtkmm/papersize.h
DA:37,17
DA:38,17
DA:39,17
DA:40,17
DA:41,17
DA:42,17
DA:43,17
LF:7
LH:7
end_of_record
SF:/usr/include/sigc++-2.0/sigc++/functors/slot_base.h
FN:272,_ZNK4sigc9slot_base5emptyEv
FN:278,_ZNK4sigc9slot_base7blockedEv
FNDA:0,_ZNK4sigc9slot_base5emptyEv
FNDA:0,_ZNK4sigc9slot_base7blockedEv
FNF:2
FNH:0
DA:272,0
DA:273,0
DA:278,0
DA:279,0
BA:273,0
BA:273,0
BA:273,0
BA:273,0
LF:4
LH:0
end_of_record
SF:/usr/include/sigc++-2.0/sigc++/signal.h
FN:680,_ZN4sigc8internal12signal_emit1Iv12ePieceType_tNS_3nilEE4emitEPNS0_11signal_implERKS2_
FN:1815,_ZNK4sigc7signal1Iv12ePieceType_tNS_3nilEE4emitERKS1_
FN:1772,_ZN4sigc7signal1Iv12ePieceType_tNS_3nilEED2Ev
FN:2600,_ZN4sigc6signalIv12ePieceType_tNS_3nilES2_S2_S2_S2_S2_ED1Ev
FN:1846,_ZN4sigc7signal1Iv12ePieceType_tNS_3nilEEC2Ev
FN:2722,_ZN4sigc6signalIv12ePieceType_tNS_3nilES2_S2_S2_S2_S2_EC1Ev
FNDA:0,_ZN4sigc8internal12signal_emit1Iv12ePieceType_tNS_3nilEE4emitEPNS0_11signal_implERKS2_
FNDA:0,_ZN4sigc7signal1Iv12ePieceType_tNS_3nilEED2Ev
FNDA:0,_ZNK4sigc7signal1Iv12ePieceType_tNS_3nilEE4emitERKS1_
FNDA:0,_ZN4sigc7signal1Iv12ePieceType_tNS_3nilEEC2Ev
FNDA:0,_ZN4sigc6signalIv12ePieceType_tNS_3nilES2_S2_S2_S2_S2_ED1Ev
FNDA:0,_ZN4sigc6signalIv12ePieceType_tNS_3nilES2_S2_S2_S2_S2_EC1Ev
FNF:6
FNH:0
DA:680,0
DA:682,0
DA:683,0
DA:684,0
DA:686,0
DA:688,0
DA:689,0
DA:690,0
DA:1772,0
DA:1815,0
DA:1816,0
DA:1846,0
DA:2600,0
DA:2722,0
BA:682,0
BA:682,0
BA:682,0
BA:682,0
BA:682,0
BA:682,0
BA:686,0
BA:686,0
BA:688,0
BA:688,0
BA:688,0
BA:688,0
BA:688,0
BA:688,0
LF:14
LH:0
end_of_record
SF:/usr/include/sigc++-2.0/sigc++/signal_base.h
FN:64,_ZN4sigc8internal11signal_impl14reference_execEv
FN:155,_ZN4sigc8internal11signal_execC1EPKNS0_11signal_implE
FN:189,_ZN4sigc8internal14temp_slot_list3endEv
FN:188,_ZN4sigc8internal14temp_slot_list5beginEv
FN:178,_ZN4sigc8internal14temp_slot_listC1ERSt4listINS_9slot_baseESaIS3_EE
FN:45,_ZN4sigc8internal11signal_implD1Ev
FN:183,_ZN4sigc8internal14temp_slot_listD1Ev
FN:77,_ZN4sigc8internal11signal_impl16unreference_execEv
FN:160,_ZN4sigc8internal11signal_execD1Ev
FNDA:0,_ZN4sigc8internal11signal_implD1Ev
FNDA:0,_ZN4sigc8internal11signal_impl14reference_execEv
FNDA:0,_ZN4sigc8internal11signal_impl16unreference_execEv
FNDA:0,_ZN4sigc8internal11signal_execC1EPKNS0_11signal_implE
FNDA:0,_ZN4sigc8internal11signal_execD1Ev
FNDA:0,_ZN4sigc8internal14temp_slot_listC1ERSt4listINS_9slot_baseESaIS3_EE
FNDA:0,_ZN4sigc8internal14temp_slot_listD1Ev
FNDA:0,_ZN4sigc8internal14temp_slot_list5beginEv
FNDA:0,_ZN4sigc8internal14temp_slot_list3endEv
FNF:9
FNH:0
DA:45,0
DA:64,0
DA:65,0
DA:77,0
DA:79,0
DA:80,0
DA:81,0
DA:155,0
DA:156,0
DA:157,0
DA:160,0
DA:161,0
DA:178,0
DA:180,0
DA:181,0
DA:183,0
DA:185,0
DA:186,0
DA:188,0
DA:189,0
BA:79,0
BA:79,0
BA:79,0
BA:79,0
BA:80,0
BA:80,0
BA:80,0
BA:80,0
BA:80,0
BA:80,0
LF:20
LH:0
end_of_record
SF:/home/frechilla/workspace/headless/blockem_sourceforge/src/gui_drawing_area_show_pieces.cpp
FN:485,_Z41__static_initialization_and_destruction_0ii
FN:485,_GLOBAL__I__ZN21DrawingAreaShowPiecesC2ERK6PlayerNS_14eOrientation_tE
FN:468,_ZN21DrawingAreaShowPieces10InvalidateEv
FN:462,_ZN21DrawingAreaShowPieces10InvalidateERK6Player
FN:324,_ZN21DrawingAreaShowPieces21on_button_press_eventEP15_GdkEventButton
FN:123,_ZN21DrawingAreaShowPieces15on_expose_eventEP15_GdkEventExpose
FN:119,_ZN21DrawingAreaShowPiecesD0Ev
FN:119,_ZN21DrawingAreaShowPiecesD1Ev
FN:119,_ZN21DrawingAreaShowPiecesD2Ev
FN:96,_ZN21DrawingAreaShowPiecesC1ERK6PlayerNS_14eOrientation_tE
FN:96,_ZN21DrawingAreaShowPiecesC2ERK6PlayerNS_14eOrientation_tE
FNDA:0,_ZN21DrawingAreaShowPiecesC1ERK6PlayerNS_14eOrientation_tE
FNDA:0,_ZN21DrawingAreaShowPiecesC2ERK6PlayerNS_14eOrientation_tE
FNDA:0,_ZN21DrawingAreaShowPiecesD0Ev
FNDA:0,_ZN21DrawingAreaShowPiecesD1Ev
FNDA:0,_ZN21DrawingAreaShowPiecesD2Ev
FNDA:0,_ZN21DrawingAreaShowPieces15on_expose_eventEP15_GdkEventExpose
FNDA:0,_ZN21DrawingAreaShowPieces21on_button_press_eventEP15_GdkEventButton
FNDA:0,_ZN21DrawingAreaShowPieces10InvalidateERK6Player
FNDA:0,_ZN21DrawingAreaShowPieces10InvalidateEv
FNDA:17,_Z41__static_initialization_and_destruction_0ii
FNDA:17,_GLOBAL__I__ZN21DrawingAreaShowPiecesC2ERK6PlayerNS_14eOrientation_tE
FNF:11
FNH:2
DA:96,0
DA:99,0
DA:102,0
DA:105,0
DA:109,0
DA:110,0
DA:114,0
DA:117,0
DA:119,0
DA:121,0
DA:123,0
DA:125,0
DA:126,0
DA:128,0
DA:131,0
DA:133,0
DA:134,0
DA:137,0
DA:141,0
DA:142,0
DA:144,0
DA:152,0
DA:154,0
DA:155,0
DA:156,0
DA:166,0
DA:168,0
DA:169,0
DA:176,0
DA:177,0
DA:180,0
DA:185,0
DA:186,0
DA:189,0
DA:190,0
DA:191,0
DA:192,0
DA:196,0
DA:198,0
DA:199,0
DA:202,0
DA:206,0
DA:208,0
DA:210,0
DA:211,0
DA:218,0
DA:220,0
DA:223,0
DA:226,0
DA:227,0
DA:230,0
DA:234,0
DA:236,0
DA:238,0
DA:239,0
DA:246,0
DA:248,0
DA:251,0
DA:254,0
DA:255,0
DA:258,0
DA:262,0
DA:264,0
DA:266,0
DA:267,0
DA:274,0
DA:276,0
DA:279,0
DA:282,0
DA:283,0
DA:286,0
DA:290,0
DA:292,0
DA:294,0
DA:295,0
DA:302,0
DA:304,0
DA:307,0
DA:310,0
DA:311,0
DA:319,0
DA:321,0
DA:324,0
DA:326,0
DA:327,0
DA:329,0
DA:332,0
DA:334,0
DA:335,0
DA:338,0
DA:341,0
DA:342,0
DA:344,0
DA:352,0
DA:354,0
DA:355,0
DA:357,0
DA:367,0
DA:369,0
DA:370,0
DA:377,0
DA:378,0
DA:380,0
DA:385,0
DA:388,0
DA:390,0
DA:392,0
DA:396,0
DA:398,0
DA:400,0
DA:404,0
DA:408,0
DA:413,0
DA:415,0
DA:417,0
DA:421,0
DA:423,0
DA:425,0
DA:429,0
DA:433,0
DA:439,0
DA:443,0
DA:444,0
DA:449,0
DA:451,0
DA:457,0
DA:459,0
DA:462,0
DA:464,0
DA:465,0
DA:468,0
DA:471,0
DA:472,0
DA:478,0
DA:480,0
DA:481,0
DA:484,0
DA:485,51
BA:105,0
BA:105,0
BA:105,0
BA:105,0
BA:121,0
BA:121,0
BA:121,0
BA:121,0
BA:121,0
BA:121,0
BA:121,0
BA:121,0
BA:121,0
BA:121,0
BA:121,0
BA:121,0
BA:121,0
BA:121,0
BA:121,0
BA:121,0
BA:121,0
BA:121,0
BA:121,0
BA:121,0
BA:121,0
BA:121,0
BA:121,0
BA:121,0
BA:121,0
BA:121,0
BA:121,0
BA:121,0
BA:121,0
BA:121,0
BA:126,0
BA:126,0
BA:144,0
BA:144,0
BA:202,0
BA:202,0
BA:202,0
BA:202,0
BA:206,0
BA:206,0
BA:208,0
BA:208,0
BA:211,0
BA:211,0
BA:211,0
BA:211,0
BA:211,0
BA:211,0
BA:234,0
BA:234,0
BA:236,0
BA:236,0
BA:239,0
BA:239,0
BA:239,0
BA:239,0
BA:239,0
BA:239,0
BA:262,0
BA:262,0
BA:264,0
BA:264,0
BA:267,0
BA:267,0
BA:267,0
BA:267,0
BA:267,0
BA:267,0
BA:290,0
BA:290,0
BA:292,0
BA:292,0
BA:295,0
BA:295,0
BA:295,0
BA:295,0
BA:295,0
BA:295,0
BA:327,0
BA:327,0
BA:344,0
BA:344,0
BA:380,0
BA:380,0
BA:380,0
BA:380,0
BA:380,0
BA:380,0
BA:380,0
BA:380,0
BA:385,0
BA:385,0
BA:385,0
BA:385,0
BA:388,0
BA:388,0
BA:390,0
BA:390,0
BA:396,0
BA:396,0
BA:398,0
BA:398,0
BA:404,0
BA:404,0
BA:413,0
BA:413,0
BA:415,0
BA:415,0
BA:421,0
BA:421,0
BA:423,0
BA:423,0
BA:429,0
BA:429,0
BA:444,0
BA:444,0
BA:444,0
BA:444,0
BA:444,0
BA:444,0
BA:472,0
BA:472,0
BA:485,2
BA:485,1
BA:485,2
BA:485,1
LF:138
LH:1
end_of_record
SF:/home/frechilla/workspace/headless/blockem_sourceforge/src/player.h
FN:142,_ZNK6Player16IsPieceAvailableE12ePieceType_t
FNDA:0,_ZNK6Player16IsPieceAvailableE12ePieceType_t
FNF:1
FNH:0
DA:142,0
DA:145,0
DA:147,0
BA:145,0
BA:145,0
BA:145,0
BA:145,0
LF:3
LH:0
end_of_record
TN:
SF:/usr/include/c++/4.4/bits/allocator.h
FN:101,_ZNSaIcEC1Ev
FN:109,_ZNSaIcED1Ev
FN:103,_ZNSaIcEC1ERKS_
FN:109,_ZNSaIcED2Ev
FN:107,_ZNSaISt6vectorI10CoordinateSaIS0_EEEC1ISt10_List_nodeIS2_EEERKSaIT_E
FN:103,_ZNSaI10CoordinateEC2ERKS0_
FN:109,_ZNSaI10CoordinateED2Ev
FN:109,_ZNSaISt6vectorI10CoordinateSaIS0_EEED1Ev
FN:107,_ZNSaIyEC1ISt10_List_nodeIyEEERKSaIT_E
FN:109,_ZNSaIyED1Ev
FN:109,_ZNSaISt10_List_nodeIyEED2Ev
FN:109,_ZNSaISt10_List_nodeISt6vectorI10CoordinateSaIS1_EEEED2Ev
FN:101,_ZNSaI10CoordinateEC1Ev
FN:109,_ZNSaI10CoordinateED1Ev
FN:101,_ZNSaISt10_List_nodeISt6vectorI10CoordinateSaIS1_EEEEC2Ev
FN:101,_ZNSaISt10_List_nodeIyEEC2Ev
FNDA:0,_ZNSaIcEC1Ev
FNDA:0,_ZNSaI10CoordinateEC1Ev
FNDA:1550,_ZNSaISt10_List_nodeISt6vectorI10CoordinateSaIS1_EEEEC2Ev
FNDA:1550,_ZNSaISt10_List_nodeIyEEC2Ev
FNDA:0,_ZNSaIcEC1ERKS_
FNDA:0,_ZNSaI10CoordinateEC2ERKS0_
FNDA:0,_ZNSaISt6vectorI10CoordinateSaIS0_EEEC1ISt10_List_nodeIS2_EEERKSaIT_E
FNDA:0,_ZNSaIyEC1ISt10_List_nodeIyEEERKSaIT_E
FNDA:0,_ZNSaIcED1Ev
FNDA:0,_ZNSaIcED2Ev
FNDA:0,_ZNSaI10CoordinateED2Ev
FNDA:0,_ZNSaISt6vectorI10CoordinateSaIS0_EEED1Ev
FNDA:0,_ZNSaIyED1Ev
FNDA:0,_ZNSaISt10_List_nodeIyEED2Ev
FNDA:0,_ZNSaISt10_List_nodeISt6vectorI10CoordinateSaIS1_EEEED2Ev
FNDA:0,_ZNSaI10CoordinateED1Ev
FNF:16
FNH:2
DA:101,3100
DA:103,0
DA:104,0
DA:107,0
DA:109,0
LF:5
LH:1
end_of_record
SF:/usr/include/c++/4.4/bits/basic_string.h
FN:272,_ZNKSs7_M_dataEv
FN:280,_ZNKSs6_M_repEv
FN:173,_ZNSs4_Rep12_S_empty_repEv
FN:1632,_ZNKSs13get_allocatorEv
FN:253,_ZNSs12_Alloc_hiderD1Ev
FN:224,_ZNSs4_Rep10_M_disposeERKSaIcE
FN:497,_ZNSsD1Ev
FNDA:0,_ZNSs4_Rep12_S_empty_repEv
FNDA:0,_ZNSs4_Rep10_M_disposeERKSaIcE
FNDA:0,_ZNSs12_Alloc_hiderD1Ev
FNDA:0,_ZNKSs7_M_dataEv
FNDA:0,_ZNKSs6_M_repEv
FNDA:0,_ZNSsD1Ev
FNDA:0,_ZNKSs13get_allocatorEv
FNF:7
FNH:0
DA:173,0
DA:178,0
DA:179,0
DA:224,0
DA:227,0
DA:229,0
DA:231,0
DA:232,0
DA:253,0
DA:272,0
DA:273,0
DA:280,0
DA:281,0
DA:497,0
DA:498,0
DA:1632,0
DA:1633,0
BA:227,0
BA:227,0
BA:229,0
BA:229,0
LF:17
LH:0
end_of_record
SF:/usr/include/c++/4.4/bits/list.tcc
FN:64,_ZNSt10_List_baseISt6vectorI10CoordinateSaIS1_EESaIS3_EE8_M_clearEv
FN:64,_ZNSt10_List_baseIySaIyEE8_M_clearEv
FNDA:0,_ZNSt10_List_baseISt6vectorI10CoordinateSaIS1_EESaIS3_EE8_M_clearEv
FNDA:0,_ZNSt10_List_baseIySaIyEE8_M_clearEv
FNF:2
FNH:0
DA:64,0
DA:68,0
DA:69,0
DA:71,0
DA:72,0
DA:76,0
DA:78,0
DA:80,0
BA:69,0
BA:69,0
BA:69,0
BA:69,0
LF:8
LH:0
end_of_record
SF:/usr/include/c++/4.4/bits/stl_algobase.h
FN:287,_ZNSt12__miter_baseIP10CoordinateLb0EE3__bES1_
FN:269,_ZNSt12__niter_baseIP10CoordinateLb0EE3__bES1_
FN:687,_ZSt8__fill_aIP10CoordinateS0_EN9__gnu_cxx11__enable_ifIXntsrSt11__is_scalarIT0_E7__valueEvE6__typeET_S9_RKS5_
FN:730,_ZSt4fillIP10CoordinateS0_EvT_S2_RKT0_
FN:209,_ZSt3maxIjERKT_S2_S2_
FN:542,_ZNSt20__copy_move_backwardILb0ELb0ESt26random_access_iterator_tagE13__copy_move_bIP10CoordinateS4_EET0_T_S6_S5_
FN:582,_ZSt22__copy_move_backward_aILb0EP10CoordinateS1_ET1_T0_S3_S2_
FN:600,_ZSt23__copy_move_backward_a2ILb0EP10CoordinateS1_ET1_T0_S3_S2_
FN:628,_ZSt13copy_backwardIP10CoordinateS1_ET0_T_S3_S2_
FNDA:0,_ZSt3maxIjERKT_S2_S2_
FNDA:0,_ZNSt12__niter_baseIP10CoordinateLb0EE3__bES1_
FNDA:0,_ZNSt12__miter_baseIP10CoordinateLb0EE3__bES1_
FNDA:0,_ZNSt20__copy_move_backwardILb0ELb0ESt26random_access_iterator_tagE13__copy_move_bIP10CoordinateS4_EET0_T_S6_S5_
FNDA:0,_ZSt22__copy_move_backward_aILb0EP10CoordinateS1_ET1_T0_S3_S2_
FNDA:0,_ZSt23__copy_move_backward_a2ILb0EP10CoordinateS1_ET1_T0_S3_S2_
FNDA:0,_ZSt13copy_backwardIP10CoordinateS1_ET0_T_S3_S2_
FNDA:0,_ZSt8__fill_aIP10CoordinateS0_EN9__gnu_cxx11__enable_ifIXntsrSt11__is_scalarIT0_E7__valueEvE6__typeET_S9_RKS5_
FNDA:0,_ZSt4fillIP10CoordinateS0_EvT_S2_RKT0_
FNF:9
FNH:0
DA:209,0
DA:214,0
DA:215,0
DA:216,0
DA:269,0
DA:270,0
DA:287,0
DA:288,0
DA:542,0
DA:545,0
DA:546,0
DA:547,0
DA:582,0
DA:590,0
DA:595,0
DA:600,0
DA:605,0
DA:628,0
DA:640,0
DA:687,0
DA:690,0
DA:691,0
DA:692,0
DA:730,0
DA:737,0
DA:739,0
BA:214,0
BA:214,0
BA:545,0
BA:545,0
BA:690,0
BA:690,0
LF:26
LH:0
end_of_record
SF:/usr/include/c++/4.4/bits/stl_construct.h
FN:82,_ZSt8_DestroyI10CoordinateEvPT_
FN:90,_ZNSt12_Destroy_auxILb0EE9__destroyIP10CoordinateEEvT_S4_
FN:112,_ZSt8_DestroyIP10CoordinateEvT_S2_
FN:139,_ZSt8_DestroyIP10CoordinateS0_EvT_S2_RSaIT0_E
FN:70,_ZSt10_ConstructI10CoordinateS0_EvPT_RKT0_
FNDA:0,_ZSt10_ConstructI10CoordinateS0_EvPT_RKT0_
FNDA:0,_ZSt8_DestroyI10CoordinateEvPT_
FNDA:0,_ZNSt12_Destroy_auxILb0EE9__destroyIP10CoordinateEEvT_S4_
FNDA:0,_ZSt8_DestroyIP10CoordinateEvT_S2_
FNDA:0,_ZSt8_DestroyIP10CoordinateS0_EvT_S2_RSaIT0_E
FNF:5
FNH:0
DA:70,0
DA:74,0
DA:75,0
DA:82,0
DA:83,0
DA:90,0
DA:92,0
DA:93,0
DA:94,0
DA:112,0
DA:116,0
DA:118,0
DA:139,0
DA:142,0
DA:143,0
BA:74,0
BA:74,0
BA:92,0
BA:92,0
LF:15
LH:0
end_of_record
SF:/usr/include/c++/4.4/bits/stl_iterator.h
FN:702,_ZNK9__gnu_cxx17__normal_iteratorIP10CoordinateSt6vectorIS1_SaIS1_EEEptEv
FN:702,_ZNK9__gnu_cxx17__normal_iteratorIPK10CoordinateSt6vectorIS1_SaIS1_EEEptEv
FN:686,_ZN9__gnu_cxx17__normal_iteratorIP10CoordinateSt6vectorIS1_SaIS1_EEEC1ERKS2_
FN:713,_ZN9__gnu_cxx17__normal_iteratorIP10CoordinateSt6vectorIS1_SaIS1_EEEppEi
FN:750,_ZNK9__gnu_cxx17__normal_iteratorIP10CoordinateSt6vectorIS1_SaIS1_EEE4baseEv
FN:690,_ZN9__gnu_cxx17__normal_iteratorIPK10CoordinateSt6vectorIS1_SaIS1_EEEC1IPS1_EERKNS0_IT_NS_11__enable_ifIXsrSt10__are_sameISA_S9_E7__valueES6_E6__typeEEE
FN:783,_ZN9__gnu_cxxneIP10CoordinateSt6vectorIS1_SaIS1_EEEEbRKNS_17__normal_iteratorIT_T0_EESB_
FN:750,_ZNK9__gnu_cxx17__normal_iteratorIPK10CoordinateSt6vectorIS1_SaIS1_EEE4baseEv
FN:777,_ZN9__gnu_cxxneIPK10CoordinatePS1_St6vectorIS1_SaIS1_EEEEbRKNS_17__normal_iteratorIT_T1_EERKNS8_IT0_SA_EE
FN:686,_ZN9__gnu_cxx17__normal_iteratorIPK10CoordinateSt6vectorIS1_SaIS1_EEEC1ERKS3_
FN:713,_ZN9__gnu_cxx17__normal_iteratorIPK10CoordinateSt6vectorIS1_SaIS1_EEEppEi
FN:856,_ZN9__gnu_cxxmiIP10CoordinateSt6vectorIS1_SaIS1_EEEENS_17__normal_iteratorIT_T0_E15difference_typeERKS9_SC_
FN:783,_ZN9__gnu_cxxneIPK10CoordinateSt6vectorIS1_SaIS1_EEEEbRKNS_17__normal_iteratorIT_T0_EESC_
FN:706,_ZN9__gnu_cxx17__normal_iteratorIPK10CoordinateSt6vectorIS1_SaIS1_EEEppEv
FN:698,_ZNK9__gnu_cxx17__normal_iteratorIPK10CoordinateSt6vectorIS1_SaIS1_EEEdeEv
FNDA:0,_ZN9__gnu_cxx17__normal_iteratorIP10CoordinateSt6vectorIS1_SaIS1_EEEC1ERKS2_
FNDA:0,_ZN9__gnu_cxx17__normal_iteratorIPK10CoordinateSt6vectorIS1_SaIS1_EEEC1ERKS3_
FNDA:3186,_ZN9__gnu_cxx17__normal_iteratorIPK10CoordinateSt6vectorIS1_SaIS1_EEEC1IPS1_EERKNS0_IT_NS_11__enable_ifIXsrSt10__are_sameISA_S9_E7__valueES6_E6__typeEEE
FNDA:0,_ZNK9__gnu_cxx17__normal_iteratorIPK10CoordinateSt6vectorIS1_SaIS1_EEEdeEv
FNDA:112290,_ZNK9__gnu_cxx17__normal_iteratorIP10CoordinateSt6vectorIS1_SaIS1_EEEptEv
FNDA:0,_ZNK9__gnu_cxx17__normal_iteratorIPK10CoordinateSt6vectorIS1_SaIS1_EEEptEv
FNDA:0,_ZN9__gnu_cxx17__normal_iteratorIPK10CoordinateSt6vectorIS1_SaIS1_EEEppEv
FNDA:19663,_ZN9__gnu_cxx17__normal_iteratorIP10CoordinateSt6vectorIS1_SaIS1_EEEppEi
FNDA:0,_ZN9__gnu_cxx17__normal_iteratorIPK10CoordinateSt6vectorIS1_SaIS1_EEEppEi
FNDA:0,_ZNK9__gnu_cxx17__normal_iteratorIP10CoordinateSt6vectorIS1_SaIS1_EEE4baseEv
FNDA:0,_ZNK9__gnu_cxx17__normal_iteratorIPK10CoordinateSt6vectorIS1_SaIS1_EEE4baseEv
FNDA:17681,_ZN9__gnu_cxxneIPK10CoordinatePS1_St6vectorIS1_SaIS1_EEEEbRKNS_17__normal_iteratorIT_T1_EERKNS8_IT0_SA_EE
FNDA:0,_ZN9__gnu_cxxneIP10CoordinateSt6vectorIS1_SaIS1_EEEEbRKNS_17__normal_iteratorIT_T0_EESB_
FNDA:0,_ZN9__gnu_cxxneIPK10CoordinateSt6vectorIS1_SaIS1_EEEEbRKNS_17__normal_iteratorIT_T0_EESC_
FNDA:0,_ZN9__gnu_cxxmiIP10CoordinateSt6vectorIS1_SaIS1_EEEENS_17__normal_iteratorIT_T0_E15difference_typeERKS9_SC_
FNF:15
FNH:4
DA:686,0
DA:690,3186
DA:694,3186
DA:698,0
DA:699,0
DA:702,112290
DA:703,112290
DA:706,0
DA:708,0
DA:709,0
DA:713,19663
DA:714,19663
DA:750,0
DA:751,0
DA:777,17681
DA:779,17681
DA:783,0
DA:785,0
DA:856,0
DA:858,0
LF:20
LH:8
end_of_record
SF:/usr/include/c++/4.4/bits/stl_list.h
FN:366,_ZNSt10_List_baseISt6vectorI10CoordinateSaIS1_EESaIS3_EE7_M_initEv
FN:366,_ZNSt10_List_baseIySaIyEE7_M_initEv
FN:128,_ZNSt14_List_iteratorISt6vectorI10CoordinateSaIS1_EEEC1EPSt15_List_node_base
FN:707,_ZNSt4listISt6vectorI10CoordinateSaIS1_EESaIS3_EE3endEv
FN:128,_ZNSt14_List_iteratorIyEC1EPSt15_List_node_base
FN:707,_ZNSt4listIySaIyEE3endEv
FN:330,_ZNKSt10_List_baseISt6vectorI10CoordinateSaIS1_EESaIS3_EE21_M_get_Node_allocatorEv
FN:330,_ZNKSt10_List_baseIySaIyEE21_M_get_Node_allocatorEv
FN:334,_ZNKSt10_List_baseISt6vectorI10CoordinateSaIS1_EESaIS3_EE19_M_get_Tp_allocatorEv
FN:334,_ZNKSt10_List_baseIySaIyEE19_M_get_Tp_allocatorEv
FN:300,_ZNSt10_List_baseIySaIyEE10_List_implD1Ev
FN:300,_ZNSt10_List_baseISt6vectorI10CoordinateSaIS1_EESaIS3_EE10_List_implD1Ev
FN:303,_ZNSt10_List_baseISt6vectorI10CoordinateSaIS1_EESaIS3_EE10_List_implC1Ev
FN:341,_ZNSt10_List_baseISt6vectorI10CoordinateSaIS1_EESaIS3_EEC2Ev
FN:499,_ZNSt4listISt6vectorI10CoordinateSaIS1_EESaIS3_EEC1Ev
FN:303,_ZNSt10_List_baseIySaIyEE10_List_implC1Ev
FN:341,_ZNSt10_List_baseIySaIyEEC2Ev
FN:499,_ZNSt4listIySaIyEEC1Ev
FN:315,_ZNSt10_List_baseISt6vectorI10CoordinateSaIS1_EESaIS3_EE11_M_get_nodeEv
FN:315,_ZNSt10_List_baseIySaIyEE11_M_get_nodeEv
FN:319,_ZNSt10_List_baseISt6vectorI10CoordinateSaIS1_EESaIS3_EE11_M_put_nodeEPSt10_List_nodeIS3_E
FN:459,_ZNSt4listISt6vectorI10CoordinateSaIS1_EESaIS3_EE14_M_create_nodeERKS3_
FN:1405,_ZNSt4listISt6vectorI10CoordinateSaIS1_EESaIS3_EE9_M_insertESt14_List_iteratorIS3_ERKS3_
FN:919,_ZNSt4listISt6vectorI10CoordinateSaIS1_EESaIS3_EE9push_backERKS3_
FN:359,_ZNSt10_List_baseISt6vectorI10CoordinateSaIS1_EESaIS3_EED2Ev
FN:418,_ZNSt4listISt6vectorI10CoordinateSaIS1_EESaIS3_EED1Ev
FN:319,_ZNSt10_List_baseIySaIyEE11_M_put_nodeEPSt10_List_nodeIyE
FN:459,_ZNSt4listIySaIyEE14_M_create_nodeERKy
FN:1405,_ZNSt4listIySaIyEE9_M_insertESt14_List_iteratorIyERKy
FN:919,_ZNSt4listIySaIyEE9push_backERKy
FN:359,_ZNSt10_List_baseIySaIyEED2Ev
FN:418,_ZNSt4listIySaIyEED1Ev
FNDA:0,_ZNSt14_List_iteratorISt6vectorI10CoordinateSaIS1_EEEC1EPSt15_List_node_base
FNDA:0,_ZNSt14_List_iteratorIyEC1EPSt15_List_node_base
FNDA:0,_ZNSt10_List_baseIySaIyEE10_List_implD1Ev
FNDA:0,_ZNSt10_List_baseISt6vectorI10CoordinateSaIS1_EESaIS3_EE10_List_implD1Ev
FNDA:1550,_ZNSt10_List_baseISt6vectorI10CoordinateSaIS1_EESaIS3_EE10_List_implC1Ev
FNDA:1550,_ZNSt10_List_baseIySaIyEE10_List_implC1Ev
FNDA:0,_ZNSt10_List_baseISt6vectorI10CoordinateSaIS1_EESaIS3_EE11_M_get_nodeEv
FNDA:0,_ZNSt10_List_baseIySaIyEE11_M_get_nodeEv
FNDA:0,_ZNSt10_List_baseISt6vectorI10CoordinateSaIS1_EESaIS3_EE11_M_put_nodeEPSt10_List_nodeIS3_E
FNDA:0,_ZNSt10_List_baseIySaIyEE11_M_put_nodeEPSt10_List_nodeIyE
FNDA:0,_ZNKSt10_List_baseISt6vectorI10CoordinateSaIS1_EESaIS3_EE21_M_get_Node_allocatorEv
FNDA:0,_ZNKSt10_List_baseIySaIyEE21_M_get_Node_allocatorEv
FNDA:0,_ZNKSt10_List_baseISt6vectorI10CoordinateSaIS1_EESaIS3_EE19_M_get_Tp_allocatorEv
FNDA:0,_ZNKSt10_List_baseIySaIyEE19_M_get_Tp_allocatorEv
FNDA:1550,_ZNSt10_List_baseISt6vectorI10CoordinateSaIS1_EESaIS3_EEC2Ev
FNDA:1550,_ZNSt10_List_baseIySaIyEEC2Ev
FNDA:0,_ZNSt10_List_baseISt6vectorI10CoordinateSaIS1_EESaIS3_EED2Ev
FNDA:0,_ZNSt10_List_baseIySaIyEED2Ev
FNDA:0,_ZNSt10_List_baseISt6vectorI10CoordinateSaIS1_EESaIS3_EE7_M_initEv
FNDA:0,_ZNSt10_List_baseIySaIyEE7_M_initEv
FNDA:0,_ZNSt4listISt6vectorI10CoordinateSaIS1_EESaIS3_EED1Ev
FNDA:0,_ZNSt4listIySaIyEED1Ev
FNDA:0,_ZNSt4listISt6vectorI10CoordinateSaIS1_EESaIS3_EE14_M_create_nodeERKS3_
FNDA:0,_ZNSt4listIySaIyEE14_M_create_nodeERKy
FNDA:1550,_ZNSt4listISt6vectorI10CoordinateSaIS1_EESaIS3_EEC1Ev
FNDA:1550,_ZNSt4listIySaIyEEC1Ev
FNDA:0,_ZNSt4listISt6vectorI10CoordinateSaIS1_EESaIS3_EE3endEv
FNDA:0,_ZNSt4listIySaIyEE3endEv
FNDA:0,_ZNSt4listISt6vectorI10CoordinateSaIS1_EESaIS3_EE9push_backERKS3_
FNDA:0,_ZNSt4listIySaIyEE9push_backERKy
FNDA:0,_ZNSt4listISt6vectorI10CoordinateSaIS1_EESaIS3_EE9_M_insertESt14_List_iteratorIS3_ERKS3_
FNDA:0,_ZNSt4listIySaIyEE9_M_insertESt14_List_iteratorIyERKy
FNF:32
FNH:6
DA:128,0
DA:129,0
DA:300,0
DA:303,3100
DA:304,3100
DA:305,3100
DA:315,0
DA:316,0
DA:319,0
DA:320,0
DA:330,0
DA:331,0
DA:334,0
DA:335,0
DA:341,3100
DA:342,3100
DA:343,3100
DA:359,0
DA:360,0
DA:366,0
DA:368,0
DA:369,0
DA:370,0
DA:418,0
DA:459,0
DA:461,0
DA:464,0
DA:466,0
DA:468,0
DA:469,0
DA:471,0
DA:499,3100
DA:500,3100
DA:707,0
DA:708,0
DA:919,0
DA:920,0
DA:1405,0
DA:1407,0
DA:1408,0
DA:1409,0
LF:41
LH:8
end_of_record
SF:/usr/include/c++/4.4/bits/stl_uninitialized.h
FN:67,_ZNSt20__uninitialized_copyILb0EE18uninitialized_copyIN9__gnu_cxx17__normal_iteratorIPK10CoordinateSt6vectorIS4_SaIS4_EEEEPS4_EET0_T_SD_SC_
FN:107,_ZSt18uninitialized_copyIN9__gnu_cxx17__normal_iteratorIPK10CoordinateSt6vectorIS2_SaIS2_EEEEPS2_ET0_T_SB_SA_
FN:255,_ZSt22__uninitialized_copy_aIN9__gnu_cxx17__normal_iteratorIPK10CoordinateSt6vectorIS2_SaIS2_EEEEPS2_S2_ET0_T_SB_SA_RSaIT1_E
FN:180,_ZNSt22__uninitialized_fill_nILb0EE20uninitialized_fill_nIP10CoordinatejS2_EEvT_T0_RKT1_
FN:218,_ZSt20uninitialized_fill_nIP10CoordinatejS0_EvT_T0_RKT1_
FN:316,_ZSt24__uninitialized_fill_n_aIP10CoordinatejS0_S0_EvT_T0_RKT1_RSaIT2_E
FN:67,_ZNSt20__uninitialized_copyILb0EE18uninitialized_copyIP10CoordinateS3_EET0_T_S5_S4_
FN:107,_ZSt18uninitialized_copyIP10CoordinateS1_ET0_T_S3_S2_
FN:255,_ZSt22__uninitialized_copy_aIP10CoordinateS1_S0_ET0_T_S3_S2_RSaIT1_E
FN:262,_ZSt22__uninitialized_move_aIP10CoordinateS1_SaIS0_EET0_T_S4_S3_RT1_
FNDA:0,_ZNSt20__uninitialized_copyILb0EE18uninitialized_copyIN9__gnu_cxx17__normal_iteratorIPK10CoordinateSt6vectorIS4_SaIS4_EEEEPS4_EET0_T_SD_SC_
FNDA:0,_ZNSt20__uninitialized_copyILb0EE18uninitialized_copyIP10CoordinateS3_EET0_T_S5_S4_
FNDA:0,_ZSt18uninitialized_copyIN9__gnu_cxx17__normal_iteratorIPK10CoordinateSt6vectorIS2_SaIS2_EEEEPS2_ET0_T_SB_SA_
FNDA:0,_ZSt18uninitialized_copyIP10CoordinateS1_ET0_T_S3_S2_
FNDA:0,_ZNSt22__uninitialized_fill_nILb0EE20uninitialized_fill_nIP10CoordinatejS2_EEvT_T0_RKT1_
FNDA:0,_ZSt20uninitialized_fill_nIP10CoordinatejS0_EvT_T0_RKT1_
FNDA:0,_ZSt22__uninitialized_copy_aIN9__gnu_cxx17__normal_iteratorIPK10CoordinateSt6vectorIS2_SaIS2_EEEEPS2_S2_ET0_T_SB_SA_RSaIT1_E
FNDA:0,_ZSt22__uninitialized_copy_aIP10CoordinateS1_S0_ET0_T_S3_S2_RSaIT1_E
FNDA:0,_ZSt22__uninitialized_move_aIP10CoordinateS1_SaIS0_EET0_T_S4_S3_RT1_
FNDA:0,_ZSt24__uninitialized_fill_n_aIP10CoordinatejS0_S0_EvT_T0_RKT1_RSaIT2_E
FNF:10
FNH:0
DA:67,0
DA:70,0
DA:73,0
DA:74,0
DA:76,0
DA:78,0
DA:80,0
DA:81,0
DA:107,0
DA:117,0
DA:180,0
DA:183,0
DA:186,0
DA:187,0
DA:189,0
DA:191,0
DA:192,0
DA:194,0
DA:218,0
DA:223,0
DA:225,0
DA:255,0
DA:257,0
DA:262,0
DA:267,0
DA:316,0
DA:318,0
BA:73,0
BA:73,0
BA:73,0
BA:73,0
BA:74,0
BA:74,0
BA:74,0
BA:74,0
BA:186,0
BA:186,0
LF:27
LH:0
end_of_record
SF:/usr/include/c++/4.4/bits/stl_vector.h
FN:532,_ZNKSt6vectorI10CoordinateSaIS0_EE4sizeEv
FN:610,_ZNSt6vectorI10CoordinateSaIS0_EEixEj
FN:93,_ZNSt12_Vector_baseI10CoordinateSaIS0_EE19_M_get_Tp_allocatorEv
FN:425,_ZNSt6vectorI10CoordinateSaIS0_EE5beginEv
FN:443,_ZNSt6vectorI10CoordinateSaIS0_EE3endEv
FN:1148,_ZNSt6vectorI10CoordinateSaIS0_EE15_M_erase_at_endEPS0_
FN:97,_ZNKSt12_Vector_baseI10CoordinateSaIS0_EE19_M_get_Tp_allocatorEv
FN:537,_ZNKSt6vectorI10CoordinateSaIS0_EE8max_sizeEv
FN:434,_ZNKSt6vectorI10CoordinateSaIS0_EE5beginEv
FN:452,_ZNKSt6vectorI10CoordinateSaIS0_EE3endEv
FN:84,_ZNSt12_Vector_baseI10CoordinateSaIS0_EE12_Vector_implC1ERKS1_
FN:75,_ZNSt12_Vector_baseI10CoordinateSaIS0_EE12_Vector_implD1Ev
FN:1033,_ZNSt6vectorI10CoordinateSaIS0_EE18_M_fill_initializeEjRKS0_
FN:139,_ZNSt12_Vector_baseI10CoordinateSaIS0_EE11_M_allocateEj
FN:110,_ZNSt12_Vector_baseI10CoordinateSaIS0_EEC2EjRKS1_
FN:143,_ZNSt12_Vector_baseI10CoordinateSaIS0_EE13_M_deallocateEPS0_j
FN:131,_ZNSt12_Vector_baseI10CoordinateSaIS0_EED2Ev
FN:241,_ZNSt6vectorI10CoordinateSaIS0_EEC1ERKS2_
FN:312,_ZNSt6vectorI10CoordinateSaIS0_EED1Ev
FN:227,_ZNSt6vectorI10CoordinateSaIS0_EEC1EjRKS0_RKS1_
FN:1134,_ZNKSt6vectorI10CoordinateSaIS0_EE12_M_check_lenEjPKc
FN:850,_ZNSt6vectorI10CoordinateSaIS0_EE6insertEN9__gnu_cxx17__normal_iteratorIPS0_S2_EEjRKS0_
FN:552,_ZNSt6vectorI10CoordinateSaIS0_EE6resizeEjS0_
FNDA:0,_ZNSt12_Vector_baseI10CoordinateSaIS0_EE12_Vector_implD1Ev
FNDA:0,_ZNSt12_Vector_baseI10CoordinateSaIS0_EE12_Vector_implC1ERKS1_
FNDA:0,_ZNSt12_Vector_baseI10CoordinateSaIS0_EE19_M_get_Tp_allocatorEv
FNDA:0,_ZNKSt12_Vector_baseI10CoordinateSaIS0_EE19_M_get_Tp_allocatorEv
FNDA:0,_ZNSt12_Vector_baseI10CoordinateSaIS0_EEC2EjRKS1_
FNDA:0,_ZNSt12_Vector_baseI10CoordinateSaIS0_EED2Ev
FNDA:0,_ZNSt12_Vector_baseI10CoordinateSaIS0_EE11_M_allocateEj
FNDA:0,_ZNSt12_Vector_baseI10CoordinateSaIS0_EE13_M_deallocateEPS0_j
FNDA:0,_ZNSt6vectorI10CoordinateSaIS0_EEC1EjRKS0_RKS1_
FNDA:0,_ZNSt6vectorI10CoordinateSaIS0_EEC1ERKS2_
FNDA:0,_ZNSt6vectorI10CoordinateSaIS0_EED1Ev
FNDA:0,_ZNSt6vectorI10CoordinateSaIS0_EE5beginEv
FNDA:0,_ZNKSt6vectorI10CoordinateSaIS0_EE5beginEv
FNDA:0,_ZNSt6vectorI10CoordinateSaIS0_EE3endEv
FNDA:0,_ZNKSt6vectorI10CoordinateSaIS0_EE3endEv
FNDA:0,_ZNKSt6vectorI10CoordinateSaIS0_EE4sizeEv
FNDA:0,_ZNKSt6vectorI10CoordinateSaIS0_EE8max_sizeEv
FNDA:3100,_ZNSt6vectorI10CoordinateSaIS0_EE6resizeEjS0_
FNDA:0,_ZNSt6vectorI10CoordinateSaIS0_EEixEj
FNDA:842,_ZNSt6vectorI10CoordinateSaIS0_EE6insertEN9__gnu_cxx17__normal_iteratorIPS0_S2_EEjRKS0_
FNDA:0,_ZNSt6vectorI10CoordinateSaIS0_EE18_M_fill_initializeEjRKS0_
FNDA:0,_ZNKSt6vectorI10CoordinateSaIS0_EE12_M_check_lenEjPKc
FNDA:2258,_ZNSt6vectorI10CoordinateSaIS0_EE15_M_erase_at_endEPS0_
FNF:23
FNH:3
DA:75,0
DA:84,0
DA:85,0
DA:86,0
DA:93,0
DA:94,0
DA:97,0
DA:98,0
DA:110,0
DA:111,0
DA:113,0
DA:114,0
DA:115,0
DA:116,0
DA:131,0
DA:132,0
DA:133,0
DA:139,0
DA:140,0
DA:143,0
DA:145,0
DA:146,0
DA:147,0
DA:227,0
DA:229,0
DA:230,0
DA:241,0
DA:242,0
DA:243,0
DA:247,0
DA:312,0
DA:313,0
DA:314,0
DA:425,0
DA:426,0
DA:434,0
DA:435,0
DA:443,0
DA:444,0
DA:452,0
DA:453,0
DA:532,0
DA:533,0
DA:537,0
DA:538,0
DA:552,3100
DA:554,3100
DA:555,2258
DA:557,842
DA:558,3100
DA:610,0
DA:611,0
DA:850,842
DA:851,842
DA:1033,0
DA:1035,0
DA:1037,0
DA:1038,0
DA:1134,0
DA:1136,0
DA:1137,0
DA:1139,0
DA:1140,0
DA:1148,2258
DA:1150,2258
DA:1151,2258
DA:1152,2258
BA:140,0
BA:140,0
BA:145,0
BA:145,0
BA:554,2
BA:554,2
BA:1136,0
BA:1136,0
BA:1140,0
BA:1140,0
BA:1140,0
BA:1140,0
LF:67
LH:11
end_of_record
SF:/usr/include/c++/4.4/bits/vector.tcc
FN:372,_ZNSt6vectorI10CoordinateSaIS0_EE14_M_fill_insertEN9__gnu_cxx17__normal_iteratorIPS0_S2_EEjRKS0_
FNDA:842,_ZNSt6vectorI10CoordinateSaIS0_EE14_M_fill_insertEN9__gnu_cxx17__normal_iteratorIPS0_S2_EEjRKS0_
FNF:1
FNH:1
DA:372,842
DA:375,842
DA:377,0
DA:380,0
DA:381,0
DA:382,0
DA:383,0
DA:385,0
DA:389,0
DA:390,0
DA:392,0
DA:397,0
DA:401,0
DA:402,0
DA:405,0
DA:406,0
DA:412,0
DA:413,0
DA:414,0
DA:415,0
DA:419,0
DA:422,0
DA:424,0
DA:429,0
DA:431,0
DA:437,0
DA:439,0
DA:440,0
DA:444,0
DA:446,0
DA:447,0
DA:449,0
DA:451,0
DA:454,0
DA:455,0
DA:456,0
DA:459,842
BA:375,1
BA:375,2
BA:377,0
BA:377,0
BA:383,0
BA:383,0
BA:439,0
BA:439,0
LF:37
LH:3
end_of_record
SF:/usr/include/c++/4.4/ext/atomicity.h
FN:62,_ZN9__gnu_cxxL25__exchange_and_add_singleEPii
FN:45,_ZN9__gnu_cxxL18__exchange_and_addEPVii
FN:75,_ZN9__gnu_cxxL27__exchange_and_add_dispatchEPii
FNDA:0,_ZN9__gnu_cxxL18__exchange_and_addEPVii
FNDA:0,_ZN9__gnu_cxxL25__exchange_and_add_singleEPii
FNDA:0,_ZN9__gnu_cxxL27__exchange_and_add_dispatchEPii
FNF:3
FNH:0
DA:45,0
DA:46,0
DA:62,0
DA:64,0
DA:65,0
DA:66,0
DA:75,0
DA:78,0
DA:79,0
DA:81,0
BA:78,0
BA:78,0
LF:10
LH:0
end_of_record
SF:/usr/include/c++/4.4/ext/new_allocator.h
FN:66,_ZN9__gnu_cxx13new_allocatorIcEC2Ev
FN:73,_ZN9__gnu_cxx13new_allocatorIcED2Ev
FN:66,_ZN9__gnu_cxx13new_allocatorI10CoordinateEC2Ev
FN:73,_ZN9__gnu_cxx13new_allocatorI10CoordinateED2Ev
FN:73,_ZN9__gnu_cxx13new_allocatorISt10_List_nodeISt6vectorI10CoordinateSaIS3_EEEED2Ev
FN:73,_ZN9__gnu_cxx13new_allocatorISt10_List_nodeIyEED2Ev
FN:115,_ZN9__gnu_cxx13new_allocatorIyE7destroyEPy
FN:68,_ZN9__gnu_cxx13new_allocatorIcEC2ERKS1_
FN:73,_ZN9__gnu_cxx13new_allocatorISt6vectorI10CoordinateSaIS2_EEED2Ev
FN:73,_ZN9__gnu_cxx13new_allocatorIyED2Ev
FN:104,_ZN9__gnu_cxx13new_allocatorIyE9constructEPyRKy
FN:68,_ZN9__gnu_cxx13new_allocatorI10CoordinateEC2ERKS2_
FN:98,_ZNK9__gnu_cxx13new_allocatorI10CoordinateE8max_sizeEv
FN:66,_ZN9__gnu_cxx13new_allocatorISt10_List_nodeISt6vectorI10CoordinateSaIS3_EEEEC2Ev
FN:66,_ZN9__gnu_cxx13new_allocatorISt6vectorI10CoordinateSaIS2_EEEC2Ev
FN:66,_ZN9__gnu_cxx13new_allocatorISt10_List_nodeIyEEC2Ev
FN:66,_ZN9__gnu_cxx13new_allocatorIyEC2Ev
FN:98,_ZNK9__gnu_cxx13new_allocatorISt10_List_nodeISt6vectorI10CoordinateSaIS3_EEEE8max_sizeEv
FN:98,_ZNK9__gnu_cxx13new_allocatorISt10_List_nodeIyEE8max_sizeEv
FN:84,_ZN9__gnu_cxx13new_allocatorISt10_List_nodeISt6vectorI10CoordinateSaIS3_EEEE8allocateEjPKv
FN:84,_ZN9__gnu_cxx13new_allocatorI10CoordinateE8allocateEjPKv
FN:84,_ZN9__gnu_cxx13new_allocatorISt10_List_nodeIyEE8allocateEjPKv
FN:94,_ZN9__gnu_cxx13new_allocatorI10CoordinateE10deallocateEPS1_j
FN:104,_ZN9__gnu_cxx13new_allocatorISt6vectorI10CoordinateSaIS2_EEE9constructEPS4_RKS4_
FN:115,_ZN9__gnu_cxx13new_allocatorISt6vectorI10CoordinateSaIS2_EEE7destroyEPS4_
FN:94,_ZN9__gnu_cxx13new_allocatorISt10_List_nodeISt6vectorI10CoordinateSaIS3_EEEE10deallocateEPS6_j
FN:94,_ZN9__gnu_cxx13new_allocatorISt10_List_nodeIyEE10deallocateEPS2_j
FNDA:0,_ZN9__gnu_cxx13new_allocatorIcEC2Ev
FNDA:0,_ZN9__gnu_cxx13new_allocatorI10CoordinateEC2Ev
FNDA:0,_ZN9__gnu_cxx13new_allocatorISt10_List_nodeISt6vectorI10CoordinateSaIS3_EEEEC2Ev
FNDA:0,_ZN9__gnu_cxx13new_allocatorISt6vectorI10CoordinateSaIS2_EEEC2Ev
FNDA:0,_ZN9__gnu_cxx13new_allocatorISt10_List_nodeIyEEC2Ev
FNDA:0,_ZN9__gnu_cxx13new_allocatorIyEC2Ev
FNDA:0,_ZN9__gnu_cxx13new_allocatorIcEC2ERKS1_
FNDA:0,_ZN9__gnu_cxx13new_allocatorI10CoordinateEC2ERKS2_
FNDA:0,_ZN9__gnu_cxx13new_allocatorIcED2Ev
FNDA:0,_ZN9__gnu_cxx13new_allocatorI10CoordinateED2Ev
FNDA:0,_ZN9__gnu_cxx13new_allocatorISt10_List_nodeISt6vectorI10CoordinateSaIS3_EEEED2Ev
FNDA:0,_ZN9__gnu_cxx13new_allocatorISt10_List_nodeIyEED2Ev
FNDA:0,_ZN9__gnu_cxx13new_allocatorISt6vectorI10CoordinateSaIS2_EEED2Ev
FNDA:0,_ZN9__gnu_cxx13new_allocatorIyED2Ev
FNDA:0,_ZN9__gnu_cxx13new_allocatorISt10_List_nodeISt6vectorI10CoordinateSaIS3_EEEE8allocateEjPKv
FNDA:0,_ZN9__gnu_cxx13new_allocatorI10CoordinateE8allocateEjPKv
FNDA:0,_ZN9__gnu_cxx13new_allocatorISt10_List_nodeIyEE8allocateEjPKv
FNDA:0,_ZN9__gnu_cxx13new_allocatorI10CoordinateE10deallocateEPS1_j
FNDA:0,_ZN9__gnu_cxx13new_allocatorISt10_List_nodeISt6vectorI10CoordinateSaIS3_EEEE10deallocateEPS6_j
FNDA:0,_ZN9__gnu_cxx13new_allocatorISt10_List_nodeIyEE10deallocateEPS2_j
FNDA:0,_ZNK9__gnu_cxx13new_allocatorI10CoordinateE8max_sizeEv
FNDA:0,_ZNK9__gnu_cxx13new_allocatorISt10_List_nodeISt6vectorI10CoordinateSaIS3_EEEE8max_sizeEv
FNDA:0,_ZNK9__gnu_cxx13new_allocatorISt10_List_nodeIyEE8max_sizeEv
FNDA:0,_ZN9__gnu_cxx13new_allocatorIyE9constructEPyRKy
FNDA:0,_ZN9__gnu_cxx13new_allocatorISt6vectorI10CoordinateSaIS2_EEE9constructEPS4_RKS4_
FNDA:0,_ZN9__gnu_cxx13new_allocatorIyE7destroyEPy
FNDA:0,_ZN9__gnu_cxx13new_allocatorISt6vectorI10CoordinateSaIS2_EEE7destroyEPS4_
FNF:27
FNH:0
DA:66,0
DA:68,0
DA:73,0
DA:84,0
DA:86,0
DA:87,0
DA:89,0
DA:94,0
DA:95,0
DA:98,0
DA:99,0
DA:104,0
DA:105,0
DA:115,0
BA:86,0
BA:86,0
BA:86,0
BA:86,0
BA:86,0
BA:86,0
BA:105,0
BA:105,0
BA:105,0
BA:105,0
LF:14
LH:0
end_of_record
SF:/usr/include/c++/4.4/i486-linux-gnu/bits/gthr-default.h
FN:238,_ZL18__gthread_active_pv
FNDA:0,_ZL18__gthread_active_pv
FNF:1
FNH:0
DA:238,0
DA:242,0
LF:2
LH:0
end_of_record
SF:/usr/include/c++/4.4/new
FN:101,_ZnwjPv
FN:105,_ZdlPvS_
FNDA:0,_ZnwjPv
FNDA:0,_ZdlPvS_
FNF:2
FNH:0
DA:101,0
DA:105,0
LF:2
LH:0
end_of_record
SF:/home/frechilla/workspace/headless/blockem_sourceforge/src/coordinate.h
FN:49,_ZN10CoordinateC1Ev
FN:61,_ZN10Coordinate3SetEii
FN:47,_ZN10CoordinateaSERKS_
FN:47,_ZN10CoordinateC1ERKS_
FN:57,_ZN10CoordinateD0Ev
FN:57,_ZN10CoordinateD1Ev
FNDA:0,_ZN10CoordinateaSERKS_
FNDA:0,_ZN10CoordinateC1ERKS_
FNDA:0,_ZN10CoordinateC1Ev
FNDA:0,_ZN10CoordinateD0Ev
FNDA:0,_ZN10CoordinateD1Ev
FNDA:3120,_ZN10Coordinate3SetEii
FNF:6
FNH:1
DA:47,0
DA:49,0
DA:51,0
DA:52,0
DA:57,0
DA:58,0
DA:61,3120
DA:63,3120
DA:64,3120
DA:65,3120
BA:58,0
BA:58,0
BA:58,0
BA:58,0
LF:10
LH:4
end_of_record
SF:/home/frechilla/workspace/headless/blockem_sourceforge/src/piece.cpp
FN:647,_Z41__static_initialization_and_destruction_0ii
FN:647,_GLOBAL__I__ZN5Piece16PieceDescriptionE
FN:36,__tcf_0
FN:116,_ZN5PieceD0Ev
FN:116,_ZN5PieceD1Ev
FN:116,_ZN5PieceD2Ev
FN:292,_ZN5Piece11MirrorXAxisEv
FN:269,_ZN5Piece11MirrorYAxisEv
FN:219,_ZN5Piece10RotateLeftEv
FN:169,_ZN5Piece11RotateRightEv
FN:153,_ZN5Piece5ResetEv
FN:604,_ZN5Piece35BuildUpPrecalculatedRepresentationsEv
FN:120,_ZN5Piece8SetPieceEP10Coordinatehbah
FN:587,_ZN5Piece22LoadPiece_5TheUltimateERS_
FN:573,_ZN5Piece22LoadPiece_5BoringPieceERS_
FN:558,_ZN5Piece22LoadPiece_5SquareAppenERS_
FN:543,_ZN5Piece14LoadPiece_5MrTERS_
FN:527,_ZN5Piece15LoadPiece_5BigLERS_
FN:512,_ZN5Piece21LoadPiece_5HalfSquareERS_
FN:497,_ZN5Piece16LoadPiece_5CrossERS_
FN:480,_ZN5Piece19LoadPiece_5BigPenisERS_
FN:466,_ZN5Piece20LoadPiece_5CuntPieceERS_
FN:451,_ZN5Piece17LoadPiece_5WPieceERS_
FN:436,_ZN5Piece19LoadPiece_5SafPieceERS_
FN:421,_ZN5Piece15LoadPiece_5BigSERS_
FN:408,_ZN5Piece21LoadPiece_4FullSquareERS_
FN:395,_ZN5Piece18LoadPiece_4littleLERS_
FN:382,_ZN5Piece18LoadPiece_4LittleTERS_
FN:369,_ZN5Piece18LoadPiece_4LittleSERS_
FN:357,_ZN5Piece20LoadPiece_4LongPieceERS_
FN:345,_ZN5Piece19LoadPiece_3TriangleERS_
FN:334,_ZN5Piece20LoadPiece_3LongPieceERS_
FN:324,_ZN5Piece19LoadPiece_2TwoPieceERS_
FN:315,_ZN5Piece20LoadPiece_1BabyPieceERS_
FN:87,_ZN5PieceC1E12ePieceType_t
FN:87,_ZN5PieceC2E12ePieceType_t
FNDA:18,__tcf_0
FNDA:1550,_ZN5PieceC1E12ePieceType_t
FNDA:0,_ZN5PieceC2E12ePieceType_t
FNDA:0,_ZN5PieceD0Ev
FNDA:1550,_ZN5PieceD1Ev
FNDA:0,_ZN5PieceD2Ev
FNDA:1550,_ZN5Piece8SetPieceEP10Coordinatehbah
FNDA:940,_ZN5Piece5ResetEv
FNDA:3371,_ZN5Piece11RotateRightEv
FNDA:1,_ZN5Piece10RotateLeftEv
FNDA:1073,_ZN5Piece11MirrorYAxisEv
FNDA:0,_ZN5Piece11MirrorXAxisEv
FNDA:35,_ZN5Piece20LoadPiece_1BabyPieceERS_
FNDA:35,_ZN5Piece19LoadPiece_2TwoPieceERS_
FNDA:35,_ZN5Piece20LoadPiece_3LongPieceERS_
FNDA:35,_ZN5Piece19LoadPiece_3TriangleERS_
FNDA:35,_ZN5Piece20LoadPiece_4LongPieceERS_
FNDA:35,_ZN5Piece18LoadPiece_4LittleSERS_
FNDA:35,_ZN5Piece18LoadPiece_4LittleTERS_
FNDA:35,_ZN5Piece18LoadPiece_4littleLERS_
FNDA:35,_ZN5Piece21LoadPiece_4FullSquareERS_
FNDA:35,_ZN5Piece15LoadPiece_5BigSERS_
FNDA:35,_ZN5Piece19LoadPiece_5SafPieceERS_
FNDA:35,_ZN5Piece17LoadPiece_5WPieceERS_
FNDA:35,_ZN5Piece20LoadPiece_5CuntPieceERS_
FNDA:35,_ZN5Piece19LoadPiece_5BigPenisERS_
FNDA:36,_ZN5Piece16LoadPiece_5CrossERS_
FNDA:35,_ZN5Piece21LoadPiece_5HalfSquareERS_
FNDA:35,_ZN5Piece15LoadPiece_5BigLERS_
FNDA:35,_ZN5Piece14LoadPiece_5MrTERS_
FNDA:35,_ZN5Piece22LoadPiece_5SquareAppenERS_
FNDA:35,_ZN5Piece22LoadPiece_5BoringPieceERS_
FNDA:35,_ZN5Piece22LoadPiece_5TheUltimateERS_
FNDA:736,_ZN5Piece35BuildUpPrecalculatedRepresentationsEv
FNDA:18,_Z41__static_initialization_and_destruction_0ii
FNDA:18,_GLOBAL__I__ZN5Piece16PieceDescriptionE
FNF:36
FNH:32
DA:36,36
DA:59,18
DA:87,1550
DA:92,1550
DA:95,1550
DA:98,736
DA:99,736
DA:100,736
DA:103,736
DA:106,736
DA:111,814
DA:112,814
DA:114,1550
DA:116,1550
DA:118,1550
DA:120,1550
DA:128,1550
DA:129,1550
DA:132,1550
DA:133,1550
DA:134,1550
DA:136,1550
DA:138,1550
DA:139,3100
DA:142,4670
DA:144,3120
DA:145,3120
DA:149,1550
DA:151,1550
DA:153,940
DA:156,940
DA:160,4916
DA:162,3976
DA:163,3976
DA:166,940
DA:167,940
DA:169,3371
DA:172,3371
DA:175,3371
DA:178,112
DA:181,18220
DA:186,14961
DA:189,8408
DA:190,8408
DA:191,8408
DA:193,6553
DA:196,2960
DA:197,2960
DA:198,2960
DA:200,3593
DA:203,778
DA:204,778
DA:205,778
DA:210,2815
DA:211,2815
DA:212,2815
DA:216,3259
DA:219,1
DA:222,1
DA:225,1
DA:228,0
DA:231,4
DA:236,3
DA:239,2
DA:240,2
DA:241,2
DA:243,1
DA:246,1
DA:247,1
DA:248,1
DA:250,0
DA:253,0
DA:254,0
DA:255,0
DA:260,0
DA:261,0
DA:262,0
DA:266,1
DA:269,1073
DA:272,1073
DA:275,5772
DA:279,4699
DA:282,1073
DA:285,481
DA:288,592
DA:289,592
DA:292,0
DA:295,0
DA:298,0
DA:302,0
DA:305,0
DA:308,0
DA:311,0
DA:312,0
DA:315,35
DA:318,70
DA:320,35
DA:322,70
DA:323,35
DA:324,35
DA:327,105
DA:329,35
DA:330,35
DA:332,105
DA:333,35
DA:334,35
DA:337,140
DA:339,35
DA:340,35
DA:341,35
DA:343,140
DA:344,35
DA:345,35
DA:349,140
DA:351,35
DA:352,35
DA:353,35
DA:355,140
DA:356,35
DA:357,35
DA:360,175
DA:362,35
DA:363,35
DA:364,35
DA:365,35
DA:367,175
DA:368,35
DA:369,35
DA:373,175
DA:375,35
DA:376,35
DA:377,35
DA:378,35
DA:380,175
DA:381,35
DA:382,35
DA:386,175
DA:388,35
DA:389,35
DA:390,35
DA:391,35
DA:393,175
DA:394,35
DA:395,35
DA:399,175
DA:401,35
DA:402,35
DA:403,35
DA:404,35
DA:406,175
DA:407,35
DA:408,35
DA:412,175
DA:414,35
DA:415,35
DA:416,35
DA:417,35
DA:419,175
DA:420,35
DA:421,35
DA:426,210
DA:428,35
DA:429,35
DA:430,35
DA:431,35
DA:432,35
DA:434,210
DA:435,35
DA:436,35
DA:441,210
DA:443,35
DA:444,35
DA:445,35
DA:446,35
DA:447,35
DA:449,210
DA:450,35
DA:451,35
DA:456,210
DA:458,35
DA:459,35
DA:460,35
DA:461,35
DA:462,35
DA:464,210
DA:465,35
DA:466,35
DA:470,210
DA:472,35
DA:473,35
DA:474,35
DA:475,35
DA:476,35
DA:478,210
DA:479,35
DA:480,35
DA:487,210
DA:489,35
DA:490,35
DA:491,35
DA:492,35
DA:493,35
DA:495,210
DA:496,35
DA:497,36
DA:502,216
DA:504,36
DA:505,36
DA:506,36
DA:507,36
DA:508,36
DA:510,216
DA:511,36
DA:512,35
DA:517,210
DA:519,35
DA:520,35
DA:521,35
DA:522,35
DA:523,35
DA:525,210
DA:526,35
DA:527,35
DA:533,210
DA:535,35
DA:536,35
DA:537,35
DA:538,35
DA:539,35
DA:541,210
DA:542,35
DA:543,35
DA:548,210
DA:550,35
DA:551,35
DA:552,35
DA:553,35
DA:554,35
DA:556,210
DA:557,35
DA:558,35
DA:563,210
DA:565,35
DA:566,35
DA:567,35
DA:568,35
DA:569,35
DA:571,210
DA:572,35
DA:573,35
DA:577,210
DA:579,35
DA:580,35
DA:581,35
DA:582,35
DA:583,35
DA:585,210
DA:586,35
DA:587,35
DA:593,210
DA:595,35
DA:596,35
DA:597,35
DA:598,35
DA:599,35
DA:601,210
DA:602,35
DA:604,1016
DA:606,1016
DA:608,1016
DA:609,5218
DA:612,3186
DA:615,3186
DA:616,17681
DA:621,14495
DA:623,3186
DA:625,3186
DA:626,3186
DA:629,1016
DA:640,35
DA:646,736
DA:647,790
BA:36,2
BA:36,2
BA:59,0
BA:59,0
BA:59,0
BA:59,0
BA:95,2
BA:95,2
BA:95,0
BA:95,0
BA:98,1
BA:98,2
BA:98,0
BA:98,0
BA:99,1
BA:99,2
BA:99,0
BA:99,0
BA:100,1
BA:100,2
BA:100,0
BA:100,0
BA:112,0
BA:112,0
BA:112,1
BA:112,2
BA:112,0
BA:112,0
BA:112,0
BA:112,0
BA:118,0
BA:118,0
BA:118,1
BA:118,2
BA:118,0
BA:118,0
BA:128,1
BA:128,2
BA:129,1
BA:129,2
BA:142,2
BA:142,2
BA:156,2
BA:156,1
BA:160,2
BA:160,2
BA:172,2
BA:172,1
BA:175,2
BA:175,2
BA:181,2
BA:181,2
BA:186,2
BA:186,2
BA:186,2
BA:186,2
BA:186,2
BA:186,2
BA:193,2
BA:193,2
BA:193,2
BA:193,1
BA:193,2
BA:193,2
BA:200,2
BA:200,1
BA:200,2
BA:200,2
BA:200,2
BA:200,2
BA:222,2
BA:222,1
BA:225,1
BA:225,2
BA:231,2
BA:231,2
BA:236,2
BA:236,1
BA:236,2
BA:236,2
BA:236,2
BA:236,2
BA:243,2
BA:243,1
BA:243,2
BA:243,1
BA:243,2
BA:243,1
BA:250,0
BA:250,0
BA:250,0
BA:250,0
BA:250,0
BA:250,0
BA:272,2
BA:272,1
BA:275,2
BA:275,2
BA:282,2
BA:282,2
BA:295,0
BA:295,0
BA:298,0
BA:298,0
BA:305,0
BA:305,0
BA:318,2
BA:318,2
BA:318,0
BA:318,0
BA:318,0
BA:318,0
BA:322,0
BA:322,0
BA:322,2
BA:322,2
BA:327,2
BA:327,2
BA:327,0
BA:327,0
BA:327,0
BA:327,0
BA:332,0
BA:332,0
BA:332,2
BA:332,2
BA:337,2
BA:337,2
BA:337,0
BA:337,0
BA:337,0
BA:337,0
BA:343,0
BA:343,0
BA:343,2
BA:343,2
BA:349,2
BA:349,2
BA:349,0
BA:349,0
BA:349,0
BA:349,0
BA:355,0
BA:355,0
BA:355,2
BA:355,2
BA:360,2
BA:360,2
BA:360,0
BA:360,0
BA:360,0
BA:360,0
BA:367,0
BA:367,0
BA:367,2
BA:367,2
BA:373,2
BA:373,2
BA:373,0
BA:373,0
BA:373,0
BA:373,0
BA:380,0
BA:380,0
BA:380,2
BA:380,2
BA:386,2
BA:386,2
BA:386,0
BA:386,0
BA:386,0
BA:386,0
BA:393,0
BA:393,0
BA:393,2
BA:393,2
BA:399,2
BA:399,2
BA:399,0
BA:399,0
BA:399,0
BA:399,0
BA:406,0
BA:406,0
BA:406,2
BA:406,2
BA:412,2
BA:412,2
BA:412,0
BA:412,0
BA:412,0
BA:412,0
BA:419,0
BA:419,0
BA:419,2
BA:419,2
BA:426,2
BA:426,2
BA:426,0
BA:426,0
BA:426,0
BA:426,0
BA:434,0
BA:434,0
BA:434,2
BA:434,2
BA:441,2
BA:441,2
BA:441,0
BA:441,0
BA:441,0
BA:441,0
BA:449,0
BA:449,0
BA:449,2
BA:449,2
BA:456,2
BA:456,2
BA:456,0
BA:456,0
BA:456,0
BA:456,0
BA:464,0
BA:464,0
BA:464,2
BA:464,2
BA:470,2
BA:470,2
BA:470,0
BA:470,0
BA:470,0
BA:470,0
BA:478,0
BA:478,0
BA:478,2
BA:478,2
BA:487,2
BA:487,2
BA:487,0
BA:487,0
BA:487,0
BA:487,0
BA:495,0
BA:495,0
BA:495,2
BA:495,2
BA:502,2
BA:502,2
BA:502,0
BA:502,0
BA:502,0
BA:502,0
BA:510,0
BA:510,0
BA:510,2
BA:510,2
BA:517,2
BA:517,2
BA:517,0
BA:517,0
BA:517,0
BA:517,0
BA:525,0
BA:525,0
BA:525,2
BA:525,2
BA:533,2
BA:533,2
BA:533,0
BA:533,0
BA:533,0
BA:533,0
BA:541,0
BA:541,0
BA:541,2
BA:541,2
BA:548,2
BA:548,2
BA:548,0
BA:548,0
BA:548,0
BA:548,0
BA:556,0
BA:556,0
BA:556,2
BA:556,2
BA:563,2
BA:563,2
BA:563,0
BA:563,0
BA:563,0
BA:563,0
BA:571,0
BA:571,0
BA:571,2
BA:571,2
BA:577,2
BA:577,2
BA:577,0
BA:577,0
BA:577,0
BA:577,0
BA:585,0
BA:585,0
BA:585,2
BA:585,2
BA:593,2
BA:593,2
BA:593,0
BA:593,0
BA:593,0
BA:593,0
BA:601,0
BA:601,0
BA:601,2
BA:601,2
BA:606,2
BA:606,2
BA:609,2
BA:609,2
BA:616,2
BA:616,2
BA:629,2
BA:629,2
BA:629,2
BA:629,2
BA:629,2
BA:629,2
BA:647,2
BA:647,1
BA:647,2
BA:647,1
LF:282
LH:266
end_of_record
SF:/home/frechilla/workspace/headless/blockem_sourceforge/src/piece.h
FN:152,_ZNK5Piece7GetTypeEv
FN:158,_ZNK5Piece11GetNSquaresEv
FN:125,_ZNK5Piece13GetNRotationsEv
FN:143,_ZNK5Piece10IsMirroredEv
FNDA:0,_ZNK5Piece13GetNRotationsEv
FNDA:662,_ZNK5Piece10IsMirroredEv
FNDA:0,_ZNK5Piece7GetTypeEv
FNDA:0,_ZNK5Piece11GetNSquaresEv
FNF:4
FNH:1
DA:125,0
DA:128,0
DA:130,0
DA:143,662
DA:146,662
DA:148,1324
DA:152,0
DA:154,0
DA:158,0
DA:160,0
BA:128,0
BA:128,0
BA:146,2
BA:146,1
BA:148,2
BA:148,1
BA:148,2
BA:148,2
LF:10
LH:3
end_of_record
TN:
SF:/usr/include/c++/4.4/bits/allocator.h
FN:167,_ZNSt11__alloc_neqISaISt10_List_nodeISt6vectorI10CoordinateSaIS2_EEEELb1EE8_S_do_itERKS6_S9_
FN:167,_ZNSt11__alloc_neqISaISt10_List_nodeIyEELb1EE8_S_do_itERKS2_S5_
FN:107,_ZNSaISt6vectorI10CoordinateSaIS0_EEEC1ISt10_List_nodeIS2_EEERKSaIT_E
FN:109,_ZNSaI10CoordinateED2Ev
FN:109,_ZNSaISt6vectorI10CoordinateSaIS0_EEED1Ev
FN:107,_ZNSaISt10_List_nodeISt6vectorI10CoordinateSaIS1_EEEEC1IS3_EERKSaIT_E
FN:103,_ZNSaISt10_List_nodeISt6vectorI10CoordinateSaIS1_EEEEC2ERKS5_
FN:109,_ZNSaISt10_List_nodeISt6vectorI10CoordinateSaIS1_EEEED1Ev
FN:109,_ZNSaISt10_List_nodeISt6vectorI10CoordinateSaIS1_EEEED2Ev
FN:103,_ZNSaI10CoordinateEC2ERKS0_
FN:107,_ZNSaIyEC1ISt10_List_nodeIyEEERKSaIT_E
FN:109,_ZNSaIyED1Ev
FN:107,_ZNSaISt10_List_nodeIyEEC1IyEERKSaIT_E
FN:103,_ZNSaISt10_List_nodeIyEEC2ERKS1_
FN:109,_ZNSaISt10_List_nodeIyEED1Ev
FN:109,_ZNSaISt10_List_nodeIyEED2Ev
FN:107,_ZNSaIN4sigc9slot_baseEEC1ISt10_List_nodeIS0_EEERKSaIT_E
FN:109,_ZNSaIN4sigc9slot_baseEED1Ev
FN:109,_ZNSaISt10_List_nodeIN4sigc9slot_baseEEED2Ev
FN:101,_ZNSaISt13_Rb_tree_nodeI10CoordinateEEC2Ev
FN:109,_ZNSaISt13_Rb_tree_nodeI10CoordinateEED2Ev
FN:107,_ZNSaI10CoordinateEC1ISt13_Rb_tree_nodeIS_EEERKSaIT_E
FN:109,_ZNSaI10CoordinateED1Ev
FN:107,_ZNSaIPK6PlayerEC1ISt10_List_nodeIS1_EEERKSaIT_E
FN:109,_ZNSaIPK6PlayerED1Ev
FN:109,_ZNSaISt10_List_nodeIPK6PlayerEED2Ev
FN:101,_ZNSaISt10_List_nodeIPK6PlayerEEC2Ev
FNDA:0,_ZNSaISt13_Rb_tree_nodeI10CoordinateEEC2Ev
FNDA:0,_ZNSaISt10_List_nodeIPK6PlayerEEC2Ev
FNDA:0,_ZNSaISt10_List_nodeISt6vectorI10CoordinateSaIS1_EEEEC2ERKS5_
FNDA:0,_ZNSaI10CoordinateEC2ERKS0_
FNDA:0,_ZNSaISt10_List_nodeIyEEC2ERKS1_
FNDA:0,_ZNSaISt6vectorI10CoordinateSaIS0_EEEC1ISt10_List_nodeIS2_EEERKSaIT_E
FNDA:0,_ZNSaISt10_List_nodeISt6vectorI10CoordinateSaIS1_EEEEC1IS3_EERKSaIT_E
FNDA:0,_ZNSaIyEC1ISt10_List_nodeIyEEERKSaIT_E
FNDA:0,_ZNSaISt10_List_nodeIyEEC1IyEERKSaIT_E
FNDA:0,_ZNSaIN4sigc9slot_baseEEC1ISt10_List_nodeIS0_EEERKSaIT_E
FNDA:0,_ZNSaI10CoordinateEC1ISt13_Rb_tree_nodeIS_EEERKSaIT_E
FNDA:0,_ZNSaIPK6PlayerEC1ISt10_List_nodeIS1_EEERKSaIT_E
FNDA:0,_ZNSaI10CoordinateED2Ev
FNDA:0,_ZNSaISt6vectorI10CoordinateSaIS0_EEED1Ev
FNDA:0,_ZNSaISt10_List_nodeISt6vectorI10CoordinateSaIS1_EEEED1Ev
FNDA:0,_ZNSaISt10_List_nodeISt6vectorI10CoordinateSaIS1_EEEED2Ev
FNDA:0,_ZNSaIyED1Ev
FNDA:0,_ZNSaISt10_List_nodeIyEED1Ev
FNDA:0,_ZNSaISt10_List_nodeIyEED2Ev
FNDA:0,_ZNSaIN4sigc9slot_baseEED1Ev
FNDA:0,_ZNSaISt10_List_nodeIN4sigc9slot_baseEEED2Ev
FNDA:0,_ZNSaISt13_Rb_tree_nodeI10CoordinateEED2Ev
FNDA:0,_ZNSaI10CoordinateED1Ev
FNDA:0,_ZNSaIPK6PlayerED1Ev
FNDA:0,_ZNSaISt10_List_nodeIPK6PlayerEED2Ev
FNDA:0,_ZNSt11__alloc_neqISaISt10_List_nodeISt6vectorI10CoordinateSaIS2_EEEELb1EE8_S_do_itERKS6_S9_
FNDA:0,_ZNSt11__alloc_neqISaISt10_List_nodeIyEELb1EE8_S_do_itERKS2_S5_
FNF:27
FNH:0
DA:101,0
DA:103,0
DA:104,0
DA:107,0
DA:109,0
DA:167,0
DA:168,0
LF:7
LH:0
end_of_record
SF:/usr/include/c++/4.4/bits/basic_ios.h
FN:127,_ZNKSt9basic_iosIcSt11char_traitsIcEE7rdstateEv
FN:147,_ZNSt9basic_iosIcSt11char_traitsIcEE8setstateESt12_Ios_Iostate
FN:46,_ZSt13__check_facetISt5ctypeIcEERKT_PS3_
FN:439,_ZNKSt9basic_iosIcSt11char_traitsIcEE5widenEc
FNDA:0,_ZSt13__check_facetISt5ctypeIcEERKT_PS3_
FNDA:0,_ZNKSt9basic_iosIcSt11char_traitsIcEE7rdstateEv
FNDA:0,_ZNSt9basic_iosIcSt11char_traitsIcEE8setstateESt12_Ios_Iostate
FNDA:0,_ZNKSt9basic_iosIcSt11char_traitsIcEE5widenEc
FNF:4
FNH:0
DA:46,0
DA:48,0
DA:49,0
DA:50,0
DA:127,0
DA:128,0
DA:147,0
DA:148,0
DA:439,0
DA:440,0
BA:48,0
BA:48,0
LF:10
LH:0
end_of_record
SF:/usr/include/c++/4.4/bits/char_traits.h
FN:262,_ZNSt11char_traitsIcE6lengthEPKc
FNDA:0,_ZNSt11char_traitsIcE6lengthEPKc
FNF:1
FNH:0
DA:262,0
DA:263,0
LF:2
LH:0
end_of_record
SF:/usr/include/c++/4.4/bits/ios_base.h
FN:166,_ZStorSt12_Ios_IostateS_
FNDA:0,_ZStorSt12_Ios_IostateS_
FNF:1
FNH:0
DA:166,0
DA:167,0
LF:2
LH:0
end_of_record
SF:/usr/include/c++/4.4/bits/list.tcc
FN:107,_ZNSt4listISt6vectorI10CoordinateSaIS1_EESaIS3_EE5eraseESt14_List_iteratorIS3_E
FN:64,_ZNSt10_List_baseISt6vectorI10CoordinateSaIS1_EESaIS3_EE8_M_clearEv
FN:107,_ZNSt4listIySaIyEE5eraseESt14_List_iteratorIyE
FN:64,_ZNSt10_List_baseIySaIyEE8_M_clearEv
FN:64,_ZNSt10_List_baseIPK6PlayerSaIS2_EE8_M_clearEv
FN:132,_ZNSt4listISt6vectorI10CoordinateSaIS1_EESaIS3_EEaSERKS5_
FN:132,_ZNSt4listIySaIyEEaSERKS1_
FN:107,_ZNSt4listIN4sigc9slot_baseESaIS1_EE5eraseESt14_List_iteratorIS1_E
FN:64,_ZNSt10_List_baseIN4sigc9slot_baseESaIS1_EE8_M_clearEv
FN:97,_ZNSt4listIN4sigc9slot_baseESaIS1_EE6insertESt14_List_iteratorIS1_ERKS1_
FNDA:0,_ZNSt10_List_baseISt6vectorI10CoordinateSaIS1_EESaIS3_EE8_M_clearEv
FNDA:0,_ZNSt10_List_baseIySaIyEE8_M_clearEv
FNDA:0,_ZNSt10_List_baseIPK6PlayerSaIS2_EE8_M_clearEv
FNDA:0,_ZNSt10_List_baseIN4sigc9slot_baseESaIS1_EE8_M_clearEv
FNDA:0,_ZNSt4listIN4sigc9slot_baseESaIS1_EE6insertESt14_List_iteratorIS1_ERKS1_
FNDA:0,_ZNSt4listISt6vectorI10CoordinateSaIS1_EESaIS3_EE5eraseESt14_List_iteratorIS3_E
FNDA:0,_ZNSt4listIySaIyEE5eraseESt14_List_iteratorIyE
FNDA:0,_ZNSt4listIN4sigc9slot_baseESaIS1_EE5eraseESt14_List_iteratorIS1_E
FNDA:0,_ZNSt4listISt6vectorI10CoordinateSaIS1_EESaIS3_EEaSERKS5_
FNDA:0,_ZNSt4listIySaIyEEaSERKS1_
FNF:10
FNH:0
DA:64,0
DA:68,0
DA:69,0
DA:71,0
DA:72,0
DA:76,0
DA:78,0
DA:80,0
DA:97,0
DA:100,0
DA:101,0
DA:102,0
DA:107,0
DA:110,0
DA:111,0
DA:132,0
DA:135,0
DA:137,0
DA:138,0
DA:139,0
DA:140,0
DA:141,0
DA:143,0
DA:144,0
DA:145,0
DA:147,0
DA:149,0
BA:69,0
BA:69,0
BA:69,0
BA:69,0
BA:69,0
BA:69,0
BA:69,0
BA:69,0
BA:135,0
BA:135,0
BA:135,0
BA:135,0
BA:141,0
BA:141,0
BA:141,0
BA:141,0
BA:141,0
BA:141,0
BA:141,0
BA:141,0
BA:141,0
BA:141,0
BA:141,0
BA:141,0
BA:144,0
BA:144,0
BA:144,0
BA:144,0
LF:27
LH:0
end_of_record
SF:/usr/include/c++/4.4/bits/locale_facets.h
FN:865,_ZNKSt5ctypeIcE5widenEc
FNDA:0,_ZNKSt5ctypeIcE5widenEc
FNF:1
FNH:0
DA:865,0
DA:867,0
DA:868,0
DA:869,0
DA:870,0
BA:867,0
BA:867,0
LF:5
LH:0
end_of_record
SF:/usr/include/c++/4.4/bits/stl_algobase.h
FN:186,_ZSt3minIiERKT_S2_S2_
FN:287,_ZNSt12__miter_baseIN9__gnu_cxx17__normal_iteratorIPK10CoordinateSt6vectorIS2_SaIS2_EEEELb0EE3__bES8_
FN:287,_ZNSt12__miter_baseIP10CoordinateLb0EE3__bES1_
FN:269,_ZNSt12__niter_baseIP10CoordinateLb0EE3__bES1_
FN:277,_ZNSt12__niter_baseIN9__gnu_cxx17__normal_iteratorIPK10CoordinateSt6vectorIS2_SaIS2_EEEELb1EE3__bES8_
FN:277,_ZNSt12__niter_baseIN9__gnu_cxx17__normal_iteratorIP10CoordinateSt6vectorIS2_SaIS2_EEEELb1EE3__bES7_
FN:338,_ZNSt11__copy_moveILb0ELb0ESt26random_access_iterator_tagE8__copy_mIPK10CoordinatePS3_EET0_T_S8_S7_
FN:386,_ZSt13__copy_move_aILb0EPK10CoordinatePS0_ET1_T0_S5_S4_
FN:431,_ZSt14__copy_move_a2ILb0EN9__gnu_cxx17__normal_iteratorIPK10CoordinateSt6vectorIS2_SaIS2_EEEENS1_IPS2_S7_EEET1_T0_SC_SB_
FN:458,_ZSt4copyIN9__gnu_cxx17__normal_iteratorIPK10CoordinateSt6vectorIS2_SaIS2_EEEENS1_IPS2_S7_EEET0_T_SC_SB_
FN:338,_ZNSt11__copy_moveILb0ELb0ESt26random_access_iterator_tagE8__copy_mIP10CoordinateS4_EET0_T_S6_S5_
FN:386,_ZSt13__copy_move_aILb0EP10CoordinateS1_ET1_T0_S3_S2_
FN:431,_ZSt14__copy_move_a2ILb0EP10CoordinateS1_ET1_T0_S3_S2_
FN:458,_ZSt4copyIP10CoordinateS1_ET0_T_S3_S2_
FNDA:7616506,_ZSt3minIiERKT_S2_S2_
FNDA:0,_ZNSt12__niter_baseIP10CoordinateLb0EE3__bES1_
FNDA:0,_ZNSt12__niter_baseIN9__gnu_cxx17__normal_iteratorIPK10CoordinateSt6vectorIS2_SaIS2_EEEELb1EE3__bES8_
FNDA:0,_ZNSt12__niter_baseIN9__gnu_cxx17__normal_iteratorIP10CoordinateSt6vectorIS2_SaIS2_EEEELb1EE3__bES7_
FNDA:0,_ZNSt12__miter_baseIN9__gnu_cxx17__normal_iteratorIPK10CoordinateSt6vectorIS2_SaIS2_EEEELb0EE3__bES8_
FNDA:0,_ZNSt12__miter_baseIP10CoordinateLb0EE3__bES1_
FNDA:0,_ZNSt11__copy_moveILb0ELb0ESt26random_access_iterator_tagE8__copy_mIPK10CoordinatePS3_EET0_T_S8_S7_
FNDA:0,_ZNSt11__copy_moveILb0ELb0ESt26random_access_iterator_tagE8__copy_mIP10CoordinateS4_EET0_T_S6_S5_
FNDA:0,_ZSt13__copy_move_aILb0EPK10CoordinatePS0_ET1_T0_S5_S4_
FNDA:0,_ZSt13__copy_move_aILb0EP10CoordinateS1_ET1_T0_S3_S2_
FNDA:0,_ZSt14__copy_move_a2ILb0EN9__gnu_cxx17__normal_iteratorIPK10CoordinateSt6vectorIS2_SaIS2_EEEENS1_IPS2_S7_EEET1_T0_SC_SB_
FNDA:0,_ZSt14__copy_move_a2ILb0EP10CoordinateS1_ET1_T0_S3_S2_
FNDA:0,_ZSt4copyIN9__gnu_cxx17__normal_iteratorIPK10CoordinateSt6vectorIS2_SaIS2_EEEENS1_IPS2_S7_EEET0_T_SC_SB_
FNDA:0,_ZSt4copyIP10CoordinateS1_ET0_T_S3_S2_
FNF:14
FNH:1
DA:186,7616506
DA:191,7616506
DA:192,1539816
DA:193,6076690
DA:269,0
DA:270,0
DA:277,0
DA:278,0
DA:287,0
DA:288,0
DA:338,0
DA:341,0
DA:343,0
DA:344,0
DA:345,0
DA:347,0
DA:386,0
DA:394,0
DA:397,0
DA:431,0
DA:436,0
DA:458,0
DA:468,0
BA:191,2
BA:191,2
BA:341,0
BA:341,0
BA:341,0
BA:341,0
LF:23
LH:4
end_of_record
SF:/usr/include/c++/4.4/bits/stl_construct.h
FN:82,_ZSt8_DestroyI10CoordinateEvPT_
FN:90,_ZNSt12_Destroy_auxILb0EE9__destroyIP10CoordinateEEvT_S4_
FN:112,_ZSt8_DestroyIP10CoordinateEvT_S2_
FN:139,_ZSt8_DestroyIP10CoordinateS0_EvT_S2_RSaIT0_E
FN:90,_ZNSt12_Destroy_auxILb0EE9__destroyIN9__gnu_cxx17__normal_iteratorIP10CoordinateSt6vectorIS4_SaIS4_EEEEEEvT_SA_
FN:112,_ZSt8_DestroyIN9__gnu_cxx17__normal_iteratorIP10CoordinateSt6vectorIS2_SaIS2_EEEEEvT_S8_
FN:139,_ZSt8_DestroyIN9__gnu_cxx17__normal_iteratorIP10CoordinateSt6vectorIS2_SaIS2_EEEES2_EvT_S8_RSaIT0_E
FNDA:0,_ZSt8_DestroyI10CoordinateEvPT_
FNDA:0,_ZNSt12_Destroy_auxILb0EE9__destroyIP10CoordinateEEvT_S4_
FNDA:0,_ZNSt12_Destroy_auxILb0EE9__destroyIN9__gnu_cxx17__normal_iteratorIP10CoordinateSt6vectorIS4_SaIS4_EEEEEEvT_SA_
FNDA:0,_ZSt8_DestroyIP10CoordinateEvT_S2_
FNDA:0,_ZSt8_DestroyIN9__gnu_cxx17__normal_iteratorIP10CoordinateSt6vectorIS2_SaIS2_EEEEEvT_S8_
FNDA:0,_ZSt8_DestroyIP10CoordinateS0_EvT_S2_RSaIT0_E
FNDA:0,_ZSt8_DestroyIN9__gnu_cxx17__normal_iteratorIP10CoordinateSt6vectorIS2_SaIS2_EEEES2_EvT_S8_RSaIT0_E
FNF:7
FNH:0
DA:82,0
DA:83,0
DA:90,0
DA:92,0
DA:93,0
DA:94,0
DA:112,0
DA:116,0
DA:118,0
DA:139,0
DA:142,0
DA:143,0
BA:92,0
BA:92,0
BA:92,0
BA:92,0
LF:12
LH:0
end_of_record
SF:/usr/include/c++/4.4/bits/stl_function.h
FN:475,_ZNKSt9_IdentityI10CoordinateEclERKS0_
FNDA:0,_ZNKSt9_IdentityI10CoordinateEclERKS0_
FNF:1
FNH:0
DA:475,0
DA:476,0
LF:2
LH:0
end_of_record
SF:/usr/include/c++/4.4/bits/stl_iterator.h
FN:686,_ZN9__gnu_cxx17__normal_iteratorIPK10CoordinateSt6vectorIS1_SaIS1_EEEC1ERKS3_
FN:686,_ZN9__gnu_cxx17__normal_iteratorIP10CoordinateSt6vectorIS1_SaIS1_EEEC1ERKS2_
FN:750,_ZNK9__gnu_cxx17__normal_iteratorIPK10CoordinateSt6vectorIS1_SaIS1_EEE4baseEv
FN:750,_ZNK9__gnu_cxx17__normal_iteratorIP10CoordinateSt6vectorIS1_SaIS1_EEE4baseEv
FN:783,_ZN9__gnu_cxxneIP10CoordinateSt6vectorIS1_SaIS1_EEEEbRKNS_17__normal_iteratorIT_T0_EESB_
FN:706,_ZN9__gnu_cxx17__normal_iteratorIP10CoordinateSt6vectorIS1_SaIS1_EEEppEv
FN:698,_ZNK9__gnu_cxx17__normal_iteratorIP10CoordinateSt6vectorIS1_SaIS1_EEEdeEv
FN:783,_ZN9__gnu_cxxneIPK10CoordinateSt6vectorIS1_SaIS1_EEEEbRKNS_17__normal_iteratorIT_T0_EESC_
FN:706,_ZN9__gnu_cxx17__normal_iteratorIPK10CoordinateSt6vectorIS1_SaIS1_EEEppEv
FN:698,_ZNK9__gnu_cxx17__normal_iteratorIPK10CoordinateSt6vectorIS1_SaIS1_EEEdeEv
FNDA:0,_ZN9__gnu_cxx17__normal_iteratorIPK10CoordinateSt6vectorIS1_SaIS1_EEEC1ERKS3_
FNDA:0,_ZN9__gnu_cxx17__normal_iteratorIP10CoordinateSt6vectorIS1_SaIS1_EEEC1ERKS2_
FNDA:0,_ZNK9__gnu_cxx17__normal_iteratorIP10CoordinateSt6vectorIS1_SaIS1_EEEdeEv
FNDA:0,_ZNK9__gnu_cxx17__normal_iteratorIPK10CoordinateSt6vectorIS1_SaIS1_EEEdeEv
FNDA:0,_ZN9__gnu_cxx17__normal_iteratorIP10CoordinateSt6vectorIS1_SaIS1_EEEppEv
FNDA:0,_ZN9__gnu_cxx17__normal_iteratorIPK10CoordinateSt6vectorIS1_SaIS1_EEEppEv
FNDA:0,_ZNK9__gnu_cxx17__normal_iteratorIPK10CoordinateSt6vectorIS1_SaIS1_EEE4baseEv
FNDA:0,_ZNK9__gnu_cxx17__normal_iteratorIP10CoordinateSt6vectorIS1_SaIS1_EEE4baseEv
FNDA:0,_ZN9__gnu_cxxneIP10CoordinateSt6vectorIS1_SaIS1_EEEEbRKNS_17__normal_iteratorIT_T0_EESB_
FNDA:0,_ZN9__gnu_cxxneIPK10CoordinateSt6vectorIS1_SaIS1_EEEEbRKNS_17__normal_iteratorIT_T0_EESC_
FNF:10
FNH:0
DA:686,0
DA:698,0
DA:699,0
DA:706,0
DA:708,0
DA:709,0
DA:750,0
DA:751,0
DA:783,0
DA:785,0
LF:10
LH:0
end_of_record
SF:/usr/include/c++/4.4/bits/stl_list.h
FN:799,_ZNKSt4listIN4sigc9slot_baseESaIS1_EE5emptyEv
FN:124,_ZNSt14_List_iteratorIN4sigc9slot_baseEEC1Ev
FN:207,_ZNSt20_List_const_iteratorIN4sigc9slot_baseEEC1ERKSt14_List_iteratorIS1_E
FN:255,_ZNKSt20_List_const_iteratorIN4sigc9slot_baseEEneERKS2_
FN:221,_ZNSt20_List_const_iteratorIN4sigc9slot_baseEEppEv
FN:217,_ZNKSt20_List_const_iteratorIN4sigc9slot_baseEEptEv
FN:207,_ZNSt20_List_const_iteratorIPK6PlayerEC1ERKSt14_List_iteratorIS2_E
FN:255,_ZNKSt20_List_const_iteratorIPK6PlayerEneERKS3_
FN:213,_ZNKSt20_List_const_iteratorIPK6PlayerEdeEv
FN:228,_ZNSt20_List_const_iteratorIPK6PlayerEppEi
FN:128,_ZNSt14_List_iteratorIN4sigc9slot_baseEEC1EPSt15_List_node_base
FN:707,_ZNSt4listIN4sigc9slot_baseESaIS1_EE3endEv
FN:689,_ZNSt4listIN4sigc9slot_baseESaIS1_EE5beginEv
FN:366,_ZNSt10_List_baseIPK6PlayerSaIS2_EE7_M_initEv
FN:255,_ZNKSt20_List_const_iteratorISt6vectorI10CoordinateSaIS1_EEEneERKS4_
FN:175,_ZNKSt14_List_iteratorISt6vectorI10CoordinateSaIS1_EEEneERKS4_
FN:221,_ZNSt20_List_const_iteratorISt6vectorI10CoordinateSaIS1_EEEppEv
FN:141,_ZNSt14_List_iteratorISt6vectorI10CoordinateSaIS1_EEEppEv
FN:213,_ZNKSt20_List_const_iteratorISt6vectorI10CoordinateSaIS1_EEEdeEv
FN:133,_ZNKSt14_List_iteratorISt6vectorI10CoordinateSaIS1_EEEdeEv
FN:251,_ZNKSt20_List_const_iteratorISt6vectorI10CoordinateSaIS1_EEEeqERKS4_
FN:255,_ZNKSt20_List_const_iteratorIyEneERKS0_
FN:175,_ZNKSt14_List_iteratorIyEneERKS0_
FN:221,_ZNSt20_List_const_iteratorIyEppEv
FN:141,_ZNSt14_List_iteratorIyEppEv
FN:213,_ZNKSt20_List_const_iteratorIyEdeEv
FN:133,_ZNKSt14_List_iteratorIyEdeEv
FN:251,_ZNKSt20_List_const_iteratorIyEeqERKS0_
FN:128,_ZNSt14_List_iteratorIPK6PlayerEC1EPSt15_List_node_base
FN:689,_ZNSt4listIPK6PlayerSaIS2_EE5beginEv
FN:707,_ZNSt4listIPK6PlayerSaIS2_EE3endEv
FN:128,_ZNSt14_List_iteratorISt6vectorI10CoordinateSaIS1_EEEC1EPSt15_List_node_base
FN:689,_ZNSt4listISt6vectorI10CoordinateSaIS1_EESaIS3_EE5beginEv
FN:707,_ZNSt4listISt6vectorI10CoordinateSaIS1_EESaIS3_EE3endEv
FN:204,_ZNSt20_List_const_iteratorISt6vectorI10CoordinateSaIS1_EEEC1EPKSt15_List_node_base
FN:698,_ZNKSt4listISt6vectorI10CoordinateSaIS1_EESaIS3_EE5beginEv
FN:716,_ZNKSt4listISt6vectorI10CoordinateSaIS1_EESaIS3_EE3endEv
FN:326,_ZNSt10_List_baseISt6vectorI10CoordinateSaIS1_EESaIS3_EE21_M_get_Node_allocatorEv
FN:128,_ZNSt14_List_iteratorIyEC1EPSt15_List_node_base
FN:689,_ZNSt4listIySaIyEE5beginEv
FN:707,_ZNSt4listIySaIyEE3endEv
FN:204,_ZNSt20_List_const_iteratorIyEC1EPKSt15_List_node_base
FN:698,_ZNKSt4listIySaIyEE5beginEv
FN:716,_ZNKSt4listIySaIyEE3endEv
FN:326,_ZNSt10_List_baseIySaIyEE21_M_get_Node_allocatorEv
FN:330,_ZNKSt10_List_baseIN4sigc9slot_baseESaIS1_EE21_M_get_Node_allocatorEv
FN:330,_ZNKSt10_List_baseIPK6PlayerSaIS2_EE21_M_get_Node_allocatorEv
FN:799,_ZNKSt4listISt6vectorI10CoordinateSaIS1_EESaIS3_EE5emptyEv
FN:799,_ZNKSt4listIySaIyEE5emptyEv
FN:366,_ZNSt10_List_baseISt6vectorI10CoordinateSaIS1_EESaIS3_EE7_M_initEv
FN:366,_ZNSt10_List_baseIySaIyEE7_M_initEv
FN:330,_ZNKSt10_List_baseISt6vectorI10CoordinateSaIS1_EESaIS3_EE21_M_get_Node_allocatorEv
FN:330,_ZNKSt10_List_baseIySaIyEE21_M_get_Node_allocatorEv
FN:319,_ZNSt10_List_baseISt6vectorI10CoordinateSaIS1_EESaIS3_EE11_M_put_nodeEPSt10_List_nodeIS3_E
FN:319,_ZNSt10_List_baseIySaIyEE11_M_put_nodeEPSt10_List_nodeIyE
FN:319,_ZNSt10_List_baseIN4sigc9slot_baseESaIS1_EE11_M_put_nodeEPSt10_List_nodeIS1_E
FN:319,_ZNSt10_List_baseIPK6PlayerSaIS2_EE11_M_put_nodeEPSt10_List_nodeIS2_E
FN:315,_ZNSt10_List_baseISt6vectorI10CoordinateSaIS1_EESaIS3_EE11_M_get_nodeEv
FN:315,_ZNSt10_List_baseIySaIyEE11_M_get_nodeEv
FN:315,_ZNSt10_List_baseIN4sigc9slot_baseESaIS1_EE11_M_get_nodeEv
FN:315,_ZNSt10_List_baseIPK6PlayerSaIS2_EE11_M_get_nodeEv
FN:334,_ZNKSt10_List_baseISt6vectorI10CoordinateSaIS1_EESaIS3_EE19_M_get_Tp_allocatorEv
FN:1422,_ZNSt4listISt6vectorI10CoordinateSaIS1_EESaIS3_EE8_M_eraseESt14_List_iteratorIS3_E
FN:1092,_ZNSt4listISt6vectorI10CoordinateSaIS1_EESaIS3_EE5eraseESt14_List_iteratorIS3_ES7_
FN:307,_ZNSt10_List_baseISt6vectorI10CoordinateSaIS1_EESaIS3_EE10_List_implC1ERKSaISt10_List_nodeIS3_EE
FN:300,_ZNSt10_List_baseISt6vectorI10CoordinateSaIS1_EESaIS3_EE10_List_implD1Ev
FN:345,_ZNSt10_List_baseISt6vectorI10CoordinateSaIS1_EESaIS3_EEC2ERKS4_
FN:359,_ZNSt10_List_baseISt6vectorI10CoordinateSaIS1_EESaIS3_EED2Ev
FN:418,_ZNSt4listISt6vectorI10CoordinateSaIS1_EESaIS3_EED1Ev
FN:459,_ZNSt4listISt6vectorI10CoordinateSaIS1_EESaIS3_EE14_M_create_nodeERKS3_
FN:334,_ZNKSt10_List_baseIySaIyEE19_M_get_Tp_allocatorEv
FN:1422,_ZNSt4listIySaIyEE8_M_eraseESt14_List_iteratorIyE
FN:1092,_ZNSt4listIySaIyEE5eraseESt14_List_iteratorIyES3_
FN:459,_ZNSt4listIySaIyEE14_M_create_nodeERKy
FN:307,_ZNSt10_List_baseIySaIyEE10_List_implC1ERKSaISt10_List_nodeIyEE
FN:300,_ZNSt10_List_baseIySaIyEE10_List_implD1Ev
FN:345,_ZNSt10_List_baseIySaIyEEC2ERKS0_
FN:359,_ZNSt10_List_baseIySaIyEED2Ev
FN:418,_ZNSt4listIySaIyEED1Ev
FN:334,_ZNKSt10_List_baseIN4sigc9slot_baseESaIS1_EE19_M_get_Tp_allocatorEv
FN:300,_ZNSt10_List_baseIN4sigc9slot_baseESaIS1_EE10_List_implD1Ev
FN:334,_ZNKSt10_List_baseIPK6PlayerSaIS2_EE19_M_get_Tp_allocatorEv
FN:1130,_ZNSt4listIPK6PlayerSaIS2_EE5clearEv
FN:459,_ZNSt4listIPK6PlayerSaIS2_EE14_M_create_nodeERKS2_
FN:300,_ZNSt10_List_baseIPK6PlayerSaIS2_EE10_List_implD1Ev
FN:359,_ZNSt10_List_baseIPK6PlayerSaIS2_EED2Ev
FN:418,_ZNSt4listIPK6PlayerSaIS2_EED1Ev
FN:303,_ZNSt10_List_baseIPK6PlayerSaIS2_EE10_List_implC1Ev
FN:341,_ZNSt10_List_baseIPK6PlayerSaIS2_EEC2Ev
FN:499,_ZNSt4listIPK6PlayerSaIS2_EEC1Ev
FN:1405,_ZNSt4listISt6vectorI10CoordinateSaIS1_EESaIS3_EE9_M_insertESt14_List_iteratorIS3_ERKS3_
FN:919,_ZNSt4listISt6vectorI10CoordinateSaIS1_EESaIS3_EE9push_backERKS3_
FN:1357,_ZNSt4listISt6vectorI10CoordinateSaIS1_EESaIS3_EE22_M_initialize_dispatchISt20_List_const_iteratorIS3_EEEvT_S9_St12__false_type
FN:571,_ZNSt4listISt6vectorI10CoordinateSaIS1_EESaIS3_EEC1ISt20_List_const_iteratorIS3_EEET_S9_RKS4_
FN:1405,_ZNSt4listIySaIyEE9_M_insertESt14_List_iteratorIyERKy
FN:919,_ZNSt4listIySaIyEE9push_backERKy
FN:1357,_ZNSt4listIySaIyEE22_M_initialize_dispatchISt20_List_const_iteratorIyEEEvT_S5_St12__false_type
FN:571,_ZNSt4listIySaIyEEC1ISt20_List_const_iteratorIyEEET_S5_RKS0_
FN:1405,_ZNSt4listIPK6PlayerSaIS2_EE9_M_insertESt14_List_iteratorIS2_ERKS2_
FN:919,_ZNSt4listIPK6PlayerSaIS2_EE9push_backERKS2_
FN:1436,_ZNSt4listISt6vectorI10CoordinateSaIS1_EESaIS3_EE25_M_check_equal_allocatorsERS5_
FN:1436,_ZNSt4listIySaIyEE25_M_check_equal_allocatorsERS1_
FN:1399,_ZNSt4listISt6vectorI10CoordinateSaIS1_EESaIS3_EE11_M_transferESt14_List_iteratorIS3_ES7_S7_
FN:1152,_ZNSt4listISt6vectorI10CoordinateSaIS1_EESaIS3_EE6spliceESt14_List_iteratorIS3_ERS5_
FN:1048,_ZNSt4listISt6vectorI10CoordinateSaIS1_EESaIS3_EE6insertISt20_List_const_iteratorIS3_EEEvSt14_List_iteratorIS3_ET_SB_
FN:1399,_ZNSt4listIySaIyEE11_M_transferESt14_List_iteratorIyES3_S3_
FN:1152,_ZNSt4listIySaIyEE6spliceESt14_List_iteratorIyERS1_
FN:1048,_ZNSt4listIySaIyEE6insertISt20_List_const_iteratorIyEEEvSt14_List_iteratorIyET_S7_
FN:1422,_ZNSt4listIN4sigc9slot_baseESaIS1_EE8_M_eraseESt14_List_iteratorIS1_E
FN:359,_ZNSt10_List_baseIN4sigc9slot_baseESaIS1_EED2Ev
FN:418,_ZNSt4listIN4sigc9slot_baseESaIS1_EED1Ev
FN:459,_ZNSt4listIN4sigc9slot_baseESaIS1_EE14_M_create_nodeERKS1_
FNDA:0,_ZNSt14_List_iteratorIN4sigc9slot_baseEEC1Ev
FNDA:0,_ZNSt14_List_iteratorIN4sigc9slot_baseEEC1EPSt15_List_node_base
FNDA:0,_ZNSt14_List_iteratorIPK6PlayerEC1EPSt15_List_node_base
FNDA:0,_ZNSt14_List_iteratorISt6vectorI10CoordinateSaIS1_EEEC1EPSt15_List_node_base
FNDA:0,_ZNSt14_List_iteratorIyEC1EPSt15_List_node_base
FNDA:0,_ZNKSt14_List_iteratorISt6vectorI10CoordinateSaIS1_EEEdeEv
FNDA:0,_ZNKSt14_List_iteratorIyEdeEv
FNDA:0,_ZNSt14_List_iteratorISt6vectorI10CoordinateSaIS1_EEEppEv
FNDA:0,_ZNSt14_List_iteratorIyEppEv
FNDA:0,_ZNKSt14_List_iteratorISt6vectorI10CoordinateSaIS1_EEEneERKS4_
FNDA:0,_ZNKSt14_List_iteratorIyEneERKS0_
FNDA:0,_ZNSt20_List_const_iteratorISt6vectorI10CoordinateSaIS1_EEEC1EPKSt15_List_node_base
FNDA:0,_ZNSt20_List_const_iteratorIyEC1EPKSt15_List_node_base
FNDA:0,_ZNSt20_List_const_iteratorIN4sigc9slot_baseEEC1ERKSt14_List_iteratorIS1_E
FNDA:0,_ZNSt20_List_const_iteratorIPK6PlayerEC1ERKSt14_List_iteratorIS2_E
FNDA:0,_ZNKSt20_List_const_iteratorIPK6PlayerEdeEv
FNDA:0,_ZNKSt20_List_const_iteratorISt6vectorI10CoordinateSaIS1_EEEdeEv
FNDA:0,_ZNKSt20_List_const_iteratorIyEdeEv
FNDA:0,_ZNKSt20_List_const_iteratorIN4sigc9slot_baseEEptEv
FNDA:0,_ZNSt20_List_const_iteratorIN4sigc9slot_baseEEppEv
FNDA:0,_ZNSt20_List_const_iteratorISt6vectorI10CoordinateSaIS1_EEEppEv
FNDA:0,_ZNSt20_List_const_iteratorIyEppEv
FNDA:0,_ZNSt20_List_const_iteratorIPK6PlayerEppEi
FNDA:0,_ZNKSt20_List_const_iteratorISt6vectorI10CoordinateSaIS1_EEEeqERKS4_
FNDA:0,_ZNKSt20_List_const_iteratorIyEeqERKS0_
FNDA:0,_ZNKSt20_List_const_iteratorIN4sigc9slot_baseEEneERKS2_
FNDA:0,_ZNKSt20_List_const_iteratorIPK6PlayerEneERKS3_
FNDA:0,_ZNKSt20_List_const_iteratorISt6vectorI10CoordinateSaIS1_EEEneERKS4_
FNDA:0,_ZNKSt20_List_const_iteratorIyEneERKS0_
FNDA:0,_ZNSt10_List_baseISt6vectorI10CoordinateSaIS1_EESaIS3_EE10_List_implD1Ev
FNDA:0,_ZNSt10_List_baseIySaIyEE10_List_implD1Ev
FNDA:0,_ZNSt10_List_baseIN4sigc9slot_baseESaIS1_EE10_List_implD1Ev
FNDA:0,_ZNSt10_List_baseIPK6PlayerSaIS2_EE10_List_implD1Ev
FNDA:0,_ZNSt10_List_baseIPK6PlayerSaIS2_EE10_List_implC1Ev
FNDA:0,_ZNSt10_List_baseISt6vectorI10CoordinateSaIS1_EESaIS3_EE10_List_implC1ERKSaISt10_List_nodeIS3_EE
FNDA:0,_ZNSt10_List_baseIySaIyEE10_List_implC1ERKSaISt10_List_nodeIyEE
FNDA:0,_ZNSt10_List_baseISt6vectorI10CoordinateSaIS1_EESaIS3_EE11_M_get_nodeEv
FNDA:0,_ZNSt10_List_baseIySaIyEE11_M_get_nodeEv
FNDA:0,_ZNSt10_List_baseIN4sigc9slot_baseESaIS1_EE11_M_get_nodeEv
FNDA:0,_ZNSt10_List_baseIPK6PlayerSaIS2_EE11_M_get_nodeEv
FNDA:0,_ZNSt10_List_baseISt6vectorI10CoordinateSaIS1_EESaIS3_EE11_M_put_nodeEPSt10_List_nodeIS3_E
FNDA:0,_ZNSt10_List_baseIySaIyEE11_M_put_nodeEPSt10_List_nodeIyE
FNDA:0,_ZNSt10_List_baseIN4sigc9slot_baseESaIS1_EE11_M_put_nodeEPSt10_List_nodeIS1_E
FNDA:0,_ZNSt10_List_baseIPK6PlayerSaIS2_EE11_M_put_nodeEPSt10_List_nodeIS2_E
FNDA:0,_ZNSt10_List_baseISt6vectorI10CoordinateSaIS1_EESaIS3_EE21_M_get_Node_allocatorEv
FNDA:0,_ZNSt10_List_baseIySaIyEE21_M_get_Node_allocatorEv
FNDA:0,_ZNKSt10_List_baseIN4sigc9slot_baseESaIS1_EE21_M_get_Node_allocatorEv
FNDA:0,_ZNKSt10_List_baseIPK6PlayerSaIS2_EE21_M_get_Node_allocatorEv
FNDA:0,_ZNKSt10_List_baseISt6vectorI10CoordinateSaIS1_EESaIS3_EE21_M_get_Node_allocatorEv
FNDA:0,_ZNKSt10_List_baseIySaIyEE21_M_get_Node_allocatorEv
FNDA:0,_ZNKSt10_List_baseISt6vectorI10CoordinateSaIS1_EESaIS3_EE19_M_get_Tp_allocatorEv
FNDA:0,_ZNKSt10_List_baseIySaIyEE19_M_get_Tp_allocatorEv
FNDA:0,_ZNKSt10_List_baseIN4sigc9slot_baseESaIS1_EE19_M_get_Tp_allocatorEv
FNDA:0,_ZNKSt10_List_baseIPK6PlayerSaIS2_EE19_M_get_Tp_allocatorEv
FNDA:0,_ZNSt10_List_baseIPK6PlayerSaIS2_EEC2Ev
FNDA:0,_ZNSt10_List_baseISt6vectorI10CoordinateSaIS1_EESaIS3_EEC2ERKS4_
FNDA:0,_ZNSt10_List_baseIySaIyEEC2ERKS0_
FNDA:0,_ZNSt10_List_baseISt6vectorI10CoordinateSaIS1_EESaIS3_EED2Ev
FNDA:0,_ZNSt10_List_baseIySaIyEED2Ev
FNDA:0,_ZNSt10_List_baseIPK6PlayerSaIS2_EED2Ev
FNDA:0,_ZNSt10_List_baseIN4sigc9slot_baseESaIS1_EED2Ev
FNDA:0,_ZNSt10_List_baseIPK6PlayerSaIS2_EE7_M_initEv
FNDA:0,_ZNSt10_List_baseISt6vectorI10CoordinateSaIS1_EESaIS3_EE7_M_initEv
FNDA:0,_ZNSt10_List_baseIySaIyEE7_M_initEv
FNDA:0,_ZNSt4listISt6vectorI10CoordinateSaIS1_EESaIS3_EED1Ev
FNDA:0,_ZNSt4listIySaIyEED1Ev
FNDA:0,_ZNSt4listIPK6PlayerSaIS2_EED1Ev
FNDA:0,_ZNSt4listIN4sigc9slot_baseESaIS1_EED1Ev
FNDA:0,_ZNSt4listISt6vectorI10CoordinateSaIS1_EESaIS3_EE14_M_create_nodeERKS3_
FNDA:0,_ZNSt4listIySaIyEE14_M_create_nodeERKy
FNDA:0,_ZNSt4listIPK6PlayerSaIS2_EE14_M_create_nodeERKS2_
FNDA:0,_ZNSt4listIN4sigc9slot_baseESaIS1_EE14_M_create_nodeERKS1_
FNDA:0,_ZNSt4listIPK6PlayerSaIS2_EEC1Ev
FNDA:0,_ZNSt4listISt6vectorI10CoordinateSaIS1_EESaIS3_EEC1ISt20_List_const_iteratorIS3_EEET_S9_RKS4_
FNDA:0,_ZNSt4listIySaIyEEC1ISt20_List_const_iteratorIyEEET_S5_RKS0_
FNDA:0,_ZNSt4listIN4sigc9slot_baseESaIS1_EE5beginEv
FNDA:0,_ZNSt4listIPK6PlayerSaIS2_EE5beginEv
FNDA:0,_ZNSt4listISt6vectorI10CoordinateSaIS1_EESaIS3_EE5beginEv
FNDA:0,_ZNSt4listIySaIyEE5beginEv
FNDA:0,_ZNKSt4listISt6vectorI10CoordinateSaIS1_EESaIS3_EE5beginEv
FNDA:0,_ZNKSt4listIySaIyEE5beginEv
FNDA:0,_ZNSt4listIN4sigc9slot_baseESaIS1_EE3endEv
FNDA:0,_ZNSt4listIPK6PlayerSaIS2_EE3endEv
FNDA:0,_ZNSt4listISt6vectorI10CoordinateSaIS1_EESaIS3_EE3endEv
FNDA:0,_ZNSt4listIySaIyEE3endEv
FNDA:0,_ZNKSt4listISt6vectorI10CoordinateSaIS1_EESaIS3_EE3endEv
FNDA:0,_ZNKSt4listIySaIyEE3endEv
FNDA:0,_ZNKSt4listIN4sigc9slot_baseESaIS1_EE5emptyEv
FNDA:0,_ZNKSt4listISt6vectorI10CoordinateSaIS1_EESaIS3_EE5emptyEv
FNDA:0,_ZNKSt4listIySaIyEE5emptyEv
FNDA:0,_ZNSt4listISt6vectorI10CoordinateSaIS1_EESaIS3_EE9push_backERKS3_
FNDA:0,_ZNSt4listIySaIyEE9push_backERKy
FNDA:0,_ZNSt4listIPK6PlayerSaIS2_EE9push_backERKS2_
FNDA:0,_ZNSt4listISt6vectorI10CoordinateSaIS1_EESaIS3_EE6insertISt20_List_const_iteratorIS3_EEEvSt14_List_iteratorIS3_ET_SB_
FNDA:0,_ZNSt4listIySaIyEE6insertISt20_List_const_iteratorIyEEEvSt14_List_iteratorIyET_S7_
FNDA:0,_ZNSt4listISt6vectorI10CoordinateSaIS1_EESaIS3_EE5eraseESt14_List_iteratorIS3_ES7_
FNDA:0,_ZNSt4listIySaIyEE5eraseESt14_List_iteratorIyES3_
FNDA:0,_ZNSt4listIPK6PlayerSaIS2_EE5clearEv
FNDA:0,_ZNSt4listISt6vectorI10CoordinateSaIS1_EESaIS3_EE6spliceESt14_List_iteratorIS3_ERS5_
FNDA:0,_ZNSt4listIySaIyEE6spliceESt14_List_iteratorIyERS1_
FNDA:0,_ZNSt4listISt6vectorI10CoordinateSaIS1_EESaIS3_EE22_M_initialize_dispatchISt20_List_const_iteratorIS3_EEEvT_S9_St12__false_type
FNDA:0,_ZNSt4listIySaIyEE22_M_initialize_dispatchISt20_List_const_iteratorIyEEEvT_S5_St12__false_type
FNDA:0,_ZNSt4listISt6vectorI10CoordinateSaIS1_EESaIS3_EE11_M_transferESt14_List_iteratorIS3_ES7_S7_
FNDA:0,_ZNSt4listIySaIyEE11_M_transferESt14_List_iteratorIyES3_S3_
FNDA:0,_ZNSt4listISt6vectorI10CoordinateSaIS1_EESaIS3_EE9_M_insertESt14_List_iteratorIS3_ERKS3_
FNDA:0,_ZNSt4listIySaIyEE9_M_insertESt14_List_iteratorIyERKy
FNDA:0,_ZNSt4listIPK6PlayerSaIS2_EE9_M_insertESt14_List_iteratorIS2_ERKS2_
FNDA:0,_ZNSt4listISt6vectorI10CoordinateSaIS1_EESaIS3_EE8_M_eraseESt14_List_iteratorIS3_E
FNDA:0,_ZNSt4listIySaIyEE8_M_eraseESt14_List_iteratorIyE
FNDA:0,_ZNSt4listIN4sigc9slot_baseESaIS1_EE8_M_eraseESt14_List_iteratorIS1_E
FNDA:0,_ZNSt4listISt6vectorI10CoordinateSaIS1_EESaIS3_EE25_M_check_equal_allocatorsERS5_
FNDA:0,_ZNSt4listIySaIyEE25_M_check_equal_allocatorsERS1_
FNF:112
FNH:0
DA:124,0
DA:125,0
DA:128,0
DA:129,0
DA:133,0
DA:134,0
DA:141,0
DA:143,0
DA:144,0
DA:175,0
DA:176,0
DA:204,0
DA:205,0
DA:207,0
DA:208,0
DA:213,0
DA:214,0
DA:217,0
DA:218,0
DA:221,0
DA:223,0
DA:224,0
DA:228,0
DA:230,0
DA:231,0
DA:251,0
DA:252,0
DA:255,0
DA:256,0
DA:300,0
DA:303,0
DA:304,0
DA:305,0
DA:307,0
DA:308,0
DA:309,0
DA:315,0
DA:316,0
DA:319,0
DA:320,0
DA:326,0
DA:327,0
DA:330,0
DA:331,0
DA:334,0
DA:335,0
DA:341,0
DA:342,0
DA:343,0
DA:345,0
DA:346,0
DA:347,0
DA:359,0
DA:360,0
DA:366,0
DA:368,0
DA:369,0
DA:370,0
DA:418,0
DA:459,0
DA:461,0
DA:464,0
DA:466,0
DA:468,0
DA:469,0
DA:471,0
DA:499,0
DA:500,0
DA:571,0
DA:573,0
DA:577,0
DA:578,0
DA:689,0
DA:690,0
DA:698,0
DA:699,0
DA:707,0
DA:708,0
DA:716,0
DA:717,0
DA:799,0
DA:800,0
DA:919,0
DA:920,0
DA:1048,0
DA:1051,0
DA:1052,0
DA:1053,0
DA:1092,0
DA:1094,0
DA:1095,0
DA:1096,0
DA:1130,0
DA:1132,0
DA:1133,0
DA:1134,0
DA:1152,0
DA:1155,0
DA:1157,0
DA:1159,0
DA:1161,0
DA:1357,0
DA:1360,0
DA:1361,0
DA:1362,0
DA:1399,0
DA:1400,0
DA:1405,0
DA:1407,0
DA:1408,0
DA:1409,0
DA:1422,0
DA:1424,0
DA:1425,0
DA:1429,0
DA:1431,0
DA:1432,0
DA:1436,0
DA:1438,0
DA:1440,0
DA:1441,0
BA:1094,0
BA:1094,0
BA:1094,0
BA:1094,0
BA:1155,0
BA:1155,0
BA:1155,0
BA:1155,0
BA:1360,0
BA:1360,0
BA:1360,0
BA:1360,0
BA:1438,0
BA:1438,0
BA:1438,0
BA:1438,0
LF:121
LH:0
end_of_record
SF:/usr/include/c++/4.4/bits/stl_pair.h
FN:83,_ZNSt4pairISt23_Rb_tree_const_iteratorI10CoordinateEbEC1ERKS2_RKb
FN:83,_ZNSt4pairISt17_Rb_tree_iteratorI10CoordinateEbEC1ERKS2_RKb
FNDA:0,_ZNSt4pairISt23_Rb_tree_const_iteratorI10CoordinateEbEC1ERKS2_RKb
FNDA:0,_ZNSt4pairISt17_Rb_tree_iteratorI10CoordinateEbEC1ERKS2_RKb
FNF:2
FNH:0
DA:83,0
DA:84,0
LF:2
LH:0
end_of_record
SF:/usr/include/c++/4.4/bits/stl_set.h
FN:291,_ZNKSt3setI10CoordinateNS0_10comparatorESaIS0_EE5beginEv
FN:300,_ZNKSt3setI10CoordinateNS0_10comparatorESaIS0_EE3endEv
FN:547,_ZNSt3setI10CoordinateNS0_10comparatorESaIS0_EE4findERKS0_
FN:136,_ZNSt3setI10CoordinateNS0_10comparatorESaIS0_EEC1Ev
FN:88,_ZNSt3setI10CoordinateNS0_10comparatorESaIS0_EED1Ev
FN:408,_ZNSt3setI10CoordinateNS0_10comparatorESaIS0_EE6insertERKS0_
FNDA:0,_ZNSt3setI10CoordinateNS0_10comparatorESaIS0_EED1Ev
FNDA:0,_ZNSt3setI10CoordinateNS0_10comparatorESaIS0_EEC1Ev
FNDA:0,_ZNKSt3setI10CoordinateNS0_10comparatorESaIS0_EE5beginEv
FNDA:0,_ZNKSt3setI10CoordinateNS0_10comparatorESaIS0_EE3endEv
FNDA:0,_ZNSt3setI10CoordinateNS0_10comparatorESaIS0_EE6insertERKS0_
FNDA:0,_ZNSt3setI10CoordinateNS0_10comparatorESaIS0_EE4findERKS0_
FNF:6
FNH:0
DA:88,0
DA:136,0
DA:137,0
DA:291,0
DA:292,0
DA:300,0
DA:301,0
DA:408,0
DA:411,0
DA:412,0
DA:547,0
DA:548,0
LF:12
LH:0
end_of_record
SF:/usr/include/c++/4.4/bits/stl_tree.h
FN:291,_ZNKSt23_Rb_tree_const_iteratorI10CoordinateEneERKS1_
FN:249,_ZNKSt23_Rb_tree_const_iteratorI10CoordinateEdeEv
FN:287,_ZNKSt23_Rb_tree_const_iteratorI10CoordinateEeqERKS1_
FN:481,_ZNSt8_Rb_treeI10CoordinateS0_St9_IdentityIS0_ENS0_10comparatorESaIS0_EE8_M_beginEv
FN:245,_ZNSt23_Rb_tree_const_iteratorI10CoordinateEC1ERKSt17_Rb_tree_iteratorIS0_E
FN:516,_ZNSt8_Rb_treeI10CoordinateS0_St9_IdentityIS0_ENS0_10comparatorESaIS0_EE8_S_rightEPSt18_Rb_tree_node_base
FN:508,_ZNSt8_Rb_treeI10CoordinateS0_St9_IdentityIS0_ENS0_10comparatorESaIS0_EE7_S_leftEPSt18_Rb_tree_node_base
FN:242,_ZNSt23_Rb_tree_const_iteratorI10CoordinateEC1EPKSt13_Rb_tree_nodeIS0_E
FN:632,_ZNKSt8_Rb_treeI10CoordinateS0_St9_IdentityIS0_ENS0_10comparatorESaIS0_EE5beginEv
FN:643,_ZNKSt8_Rb_treeI10CoordinateS0_St9_IdentityIS0_ENS0_10comparatorESaIS0_EE3endEv
FN:492,_ZNSt8_Rb_treeI10CoordinateS0_St9_IdentityIS0_ENS0_10comparatorESaIS0_EE6_M_endEv
FN:212,_ZNKSt17_Rb_tree_iteratorI10CoordinateEeqERKS1_
FN:170,_ZNSt17_Rb_tree_iteratorI10CoordinateEC1EPSt13_Rb_tree_nodeIS0_E
FN:639,_ZNSt8_Rb_treeI10CoordinateS0_St9_IdentityIS0_ENS0_10comparatorESaIS0_EE3endEv
FN:625,_ZNSt8_Rb_treeI10CoordinateS0_St9_IdentityIS0_ENS0_10comparatorESaIS0_EE5beginEv
FN:444,_ZNSt8_Rb_treeI10CoordinateS0_St9_IdentityIS0_ENS0_10comparatorESaIS0_EE13_Rb_tree_implIS3_Lb1EE13_M_initializeEv
FN:524,_ZNSt8_Rb_treeI10CoordinateS0_St9_IdentityIS0_ENS0_10comparatorESaIS0_EE8_S_valueEPKSt18_Rb_tree_node_base
FN:528,_ZNSt8_Rb_treeI10CoordinateS0_St9_IdentityIS0_ENS0_10comparatorESaIS0_EE6_S_keyEPKSt18_Rb_tree_node_base
FN:500,_ZNSt8_Rb_treeI10CoordinateS0_St9_IdentityIS0_ENS0_10comparatorESaIS0_EE8_S_valueEPKSt13_Rb_tree_nodeIS0_E
FN:504,_ZNSt8_Rb_treeI10CoordinateS0_St9_IdentityIS0_ENS0_10comparatorESaIS0_EE6_S_keyEPKSt13_Rb_tree_nodeIS0_E
FN:981,_ZNSt8_Rb_treeI10CoordinateS0_St9_IdentityIS0_ENS0_10comparatorESaIS0_EE14_M_lower_boundEPSt13_Rb_tree_nodeIS0_ES8_RKS0_
FN:1418,_ZNSt8_Rb_treeI10CoordinateS0_St9_IdentityIS0_ENS0_10comparatorESaIS0_EE4findERKS0_
FN:349,_ZNKSt8_Rb_treeI10CoordinateS0_St9_IdentityIS0_ENS0_10comparatorESaIS0_EE21_M_get_Node_allocatorEv
FN:362,_ZNSt8_Rb_treeI10CoordinateS0_St9_IdentityIS0_ENS0_10comparatorESaIS0_EE11_M_put_nodeEPSt13_Rb_tree_nodeIS0_E
FN:358,_ZNSt8_Rb_treeI10CoordinateS0_St9_IdentityIS0_ENS0_10comparatorESaIS0_EE11_M_get_nodeEv
FN:432,_ZNSt8_Rb_treeI10CoordinateS0_St9_IdentityIS0_ENS0_10comparatorESaIS0_EE13_Rb_tree_implIS3_Lb1EEC1Ev
FN:591,_ZNSt8_Rb_treeI10CoordinateS0_St9_IdentityIS0_ENS0_10comparatorESaIS0_EEC1Ev
FN:427,_ZNSt8_Rb_treeI10CoordinateS0_St9_IdentityIS0_ENS0_10comparatorESaIS0_EE13_Rb_tree_implIS3_Lb1EED1Ev
FN:353,_ZNKSt8_Rb_treeI10CoordinateS0_St9_IdentityIS0_ENS0_10comparatorESaIS0_EE13get_allocatorEv
FN:367,_ZNSt8_Rb_treeI10CoordinateS0_St9_IdentityIS0_ENS0_10comparatorESaIS0_EE14_M_create_nodeERKS0_
FN:381,_ZNSt8_Rb_treeI10CoordinateS0_St9_IdentityIS0_ENS0_10comparatorESaIS0_EE15_M_destroy_nodeEPSt13_Rb_tree_nodeIS0_E
FN:964,_ZNSt8_Rb_treeI10CoordinateS0_St9_IdentityIS0_ENS0_10comparatorESaIS0_EE8_M_eraseEPSt13_Rb_tree_nodeIS0_E
FN:613,_ZNSt8_Rb_treeI10CoordinateS0_St9_IdentityIS0_ENS0_10comparatorESaIS0_EED1Ev
FN:197,_ZNSt17_Rb_tree_iteratorI10CoordinateEmmEv
FN:874,_ZNSt8_Rb_treeI10CoordinateS0_St9_IdentityIS0_ENS0_10comparatorESaIS0_EE10_M_insert_EPKSt18_Rb_tree_node_baseS8_RKS0_
FN:1161,_ZNSt8_Rb_treeI10CoordinateS0_St9_IdentityIS0_ENS0_10comparatorESaIS0_EE16_M_insert_uniqueERKS0_
FN:264,_ZNSt23_Rb_tree_const_iteratorI10CoordinateEppEi
FNDA:0,_ZNSt17_Rb_tree_iteratorI10CoordinateEC1EPSt13_Rb_tree_nodeIS0_E
FNDA:0,_ZNSt17_Rb_tree_iteratorI10CoordinateEmmEv
FNDA:0,_ZNKSt17_Rb_tree_iteratorI10CoordinateEeqERKS1_
FNDA:0,_ZNSt23_Rb_tree_const_iteratorI10CoordinateEC1EPKSt13_Rb_tree_nodeIS0_E
FNDA:0,_ZNSt23_Rb_tree_const_iteratorI10CoordinateEC1ERKSt17_Rb_tree_iteratorIS0_E
FNDA:0,_ZNKSt23_Rb_tree_const_iteratorI10CoordinateEdeEv
FNDA:0,_ZNSt23_Rb_tree_const_iteratorI10CoordinateEppEi
FNDA:0,_ZNKSt23_Rb_tree_const_iteratorI10CoordinateEeqERKS1_
FNDA:0,_ZNKSt23_Rb_tree_const_iteratorI10CoordinateEneERKS1_
FNDA:0,_ZNKSt8_Rb_treeI10CoordinateS0_St9_IdentityIS0_ENS0_10comparatorESaIS0_EE21_M_get_Node_allocatorEv
FNDA:0,_ZNKSt8_Rb_treeI10CoordinateS0_St9_IdentityIS0_ENS0_10comparatorESaIS0_EE13get_allocatorEv
FNDA:0,_ZNSt8_Rb_treeI10CoordinateS0_St9_IdentityIS0_ENS0_10comparatorESaIS0_EE11_M_get_nodeEv
FNDA:0,_ZNSt8_Rb_treeI10CoordinateS0_St9_IdentityIS0_ENS0_10comparatorESaIS0_EE11_M_put_nodeEPSt13_Rb_tree_nodeIS0_E
FNDA:0,_ZNSt8_Rb_treeI10CoordinateS0_St9_IdentityIS0_ENS0_10comparatorESaIS0_EE14_M_create_nodeERKS0_
FNDA:0,_ZNSt8_Rb_treeI10CoordinateS0_St9_IdentityIS0_ENS0_10comparatorESaIS0_EE15_M_destroy_nodeEPSt13_Rb_tree_nodeIS0_E
FNDA:0,_ZNSt8_Rb_treeI10CoordinateS0_St9_IdentityIS0_ENS0_10comparatorESaIS0_EE13_Rb_tree_implIS3_Lb1EED1Ev
FNDA:0,_ZNSt8_Rb_treeI10CoordinateS0_St9_IdentityIS0_ENS0_10comparatorESaIS0_EE13_Rb_tree_implIS3_Lb1EEC1Ev
FNDA:0,_ZNSt8_Rb_treeI10CoordinateS0_St9_IdentityIS0_ENS0_10comparatorESaIS0_EE13_Rb_tree_implIS3_Lb1EE13_M_initializeEv
FNDA:0,_ZNSt8_Rb_treeI10CoordinateS0_St9_IdentityIS0_ENS0_10comparatorESaIS0_EE8_M_beginEv
FNDA:0,_ZNSt8_Rb_treeI10CoordinateS0_St9_IdentityIS0_ENS0_10comparatorESaIS0_EE6_M_endEv
FNDA:0,_ZNSt8_Rb_treeI10CoordinateS0_St9_IdentityIS0_ENS0_10comparatorESaIS0_EE8_S_valueEPKSt13_Rb_tree_nodeIS0_E
FNDA:0,_ZNSt8_Rb_treeI10CoordinateS0_St9_IdentityIS0_ENS0_10comparatorESaIS0_EE6_S_keyEPKSt13_Rb_tree_nodeIS0_E
FNDA:0,_ZNSt8_Rb_treeI10CoordinateS0_St9_IdentityIS0_ENS0_10comparatorESaIS0_EE7_S_leftEPSt18_Rb_tree_node_base
FNDA:0,_ZNSt8_Rb_treeI10CoordinateS0_St9_IdentityIS0_ENS0_10comparatorESaIS0_EE8_S_rightEPSt18_Rb_tree_node_base
FNDA:0,_ZNSt8_Rb_treeI10CoordinateS0_St9_IdentityIS0_ENS0_10comparatorESaIS0_EE8_S_valueEPKSt18_Rb_tree_node_base
FNDA:0,_ZNSt8_Rb_treeI10CoordinateS0_St9_IdentityIS0_ENS0_10comparatorESaIS0_EE6_S_keyEPKSt18_Rb_tree_node_base
FNDA:0,_ZNSt8_Rb_treeI10CoordinateS0_St9_IdentityIS0_ENS0_10comparatorESaIS0_EEC1Ev
FNDA:0,_ZNSt8_Rb_treeI10CoordinateS0_St9_IdentityIS0_ENS0_10comparatorESaIS0_EED1Ev
FNDA:0,_ZNSt8_Rb_treeI10CoordinateS0_St9_IdentityIS0_ENS0_10comparatorESaIS0_EE5beginEv
FNDA:0,_ZNKSt8_Rb_treeI10CoordinateS0_St9_IdentityIS0_ENS0_10comparatorESaIS0_EE5beginEv
FNDA:0,_ZNSt8_Rb_treeI10CoordinateS0_St9_IdentityIS0_ENS0_10comparatorESaIS0_EE3endEv
FNDA:0,_ZNKSt8_Rb_treeI10CoordinateS0_St9_IdentityIS0_ENS0_10comparatorESaIS0_EE3endEv
FNDA:0,_ZNSt8_Rb_treeI10CoordinateS0_St9_IdentityIS0_ENS0_10comparatorESaIS0_EE10_M_insert_EPKSt18_Rb_tree_node_baseS8_RKS0_
FNDA:0,_ZNSt8_Rb_treeI10CoordinateS0_St9_IdentityIS0_ENS0_10comparatorESaIS0_EE8_M_eraseEPSt13_Rb_tree_nodeIS0_E
FNDA:0,_ZNSt8_Rb_treeI10CoordinateS0_St9_IdentityIS0_ENS0_10comparatorESaIS0_EE14_M_lower_boundEPSt13_Rb_tree_nodeIS0_ES8_RKS0_
FNDA:0,_ZNSt8_Rb_treeI10CoordinateS0_St9_IdentityIS0_ENS0_10comparatorESaIS0_EE16_M_insert_uniqueERKS0_
FNDA:0,_ZNSt8_Rb_treeI10CoordinateS0_St9_IdentityIS0_ENS0_10comparatorESaIS0_EE4findERKS0_
FNF:37
FNH:0
DA:170,0
DA:171,0
DA:197,0
DA:199,0
DA:200,0
DA:212,0
DA:213,0
DA:242,0
DA:243,0
DA:245,0
DA:246,0
DA:249,0
DA:250,0
DA:264,0
DA:266,0
DA:267,0
DA:287,0
DA:288,0
DA:291,0
DA:292,0
DA:349,0
DA:350,0
DA:353,0
DA:354,0
DA:358,0
DA:359,0
DA:362,0
DA:363,0
DA:367,0
DA:369,0
DA:371,0
DA:372,0
DA:374,0
DA:375,0
DA:377,0
DA:381,0
DA:383,0
DA:384,0
DA:385,0
DA:427,0
DA:432,0
DA:434,0
DA:435,0
DA:444,0
DA:446,0
DA:447,0
DA:448,0
DA:449,0
DA:450,0
DA:481,0
DA:482,0
DA:492,0
DA:493,0
DA:500,0
DA:501,0
DA:504,0
DA:505,0
DA:508,0
DA:509,0
DA:516,0
DA:517,0
DA:524,0
DA:525,0
DA:528,0
DA:529,0
DA:591,0
DA:613,0
DA:614,0
DA:625,0
DA:628,0
DA:632,0
DA:635,0
DA:639,0
DA:640,0
DA:643,0
DA:646,0
DA:874,0
DA:879,0
DA:881,0
DA:883,0
DA:886,0
DA:887,0
DA:964,0
DA:968,0
DA:970,0
DA:971,0
DA:972,0
DA:973,0
DA:975,0
DA:981,0
DA:985,0
DA:986,0
DA:987,0
DA:989,0
DA:990,0
DA:1161,0
DA:1164,0
DA:1165,0
DA:1166,0
DA:1167,0
DA:1169,0
DA:1170,0
DA:1171,0
DA:1173,0
DA:1174,0
DA:1176,0
DA:1177,0
DA:1179,0
DA:1181,0
DA:1182,0
DA:1183,0
DA:1418,0
DA:1421,0
DA:1424,0
BA:879,0
BA:879,0
BA:879,0
BA:879,0
BA:879,0
BA:879,0
BA:968,0
BA:968,0
BA:985,0
BA:985,0
BA:986,0
BA:986,0
BA:1167,0
BA:1167,0
BA:1171,0
BA:1171,0
BA:1174,0
BA:1174,0
BA:1176,0
BA:1176,0
BA:1181,0
BA:1181,0
BA:1424,0
BA:1424,0
BA:1424,0
BA:1424,0
LF:114
LH:0
end_of_record
SF:/usr/include/c++/4.4/bits/stl_uninitialized.h
FN:67,_ZNSt20__uninitialized_copyILb0EE18uninitialized_copyIN9__gnu_cxx17__normal_iteratorIPK10CoordinateSt6vectorIS4_SaIS4_EEEEPS4_EET0_T_SD_SC_
FN:107,_ZSt18uninitialized_copyIN9__gnu_cxx17__normal_iteratorIPK10CoordinateSt6vectorIS2_SaIS2_EEEEPS2_ET0_T_SB_SA_
FN:255,_ZSt22__uninitialized_copy_aIN9__gnu_cxx17__normal_iteratorIPK10CoordinateSt6vectorIS2_SaIS2_EEEEPS2_S2_ET0_T_SB_SA_RSaIT1_E
FN:67,_ZNSt20__uninitialized_copyILb0EE18uninitialized_copyIP10CoordinateS3_EET0_T_S5_S4_
FN:107,_ZSt18uninitialized_copyIP10CoordinateS1_ET0_T_S3_S2_
FN:255,_ZSt22__uninitialized_copy_aIP10CoordinateS1_S0_ET0_T_S3_S2_RSaIT1_E
FNDA:0,_ZNSt20__uninitialized_copyILb0EE18uninitialized_copyIN9__gnu_cxx17__normal_iteratorIPK10CoordinateSt6vectorIS4_SaIS4_EEEEPS4_EET0_T_SD_SC_
FNDA:0,_ZNSt20__uninitialized_copyILb0EE18uninitialized_copyIP10CoordinateS3_EET0_T_S5_S4_
FNDA:0,_ZSt18uninitialized_copyIN9__gnu_cxx17__normal_iteratorIPK10CoordinateSt6vectorIS2_SaIS2_EEEEPS2_ET0_T_SB_SA_
FNDA:0,_ZSt18uninitialized_copyIP10CoordinateS1_ET0_T_S3_S2_
FNDA:0,_ZSt22__uninitialized_copy_aIN9__gnu_cxx17__normal_iteratorIPK10CoordinateSt6vectorIS2_SaIS2_EEEEPS2_S2_ET0_T_SB_SA_RSaIT1_E
FNDA:0,_ZSt22__uninitialized_copy_aIP10CoordinateS1_S0_ET0_T_S3_S2_RSaIT1_E
FNF:6
FNH:0
DA:67,0
DA:70,0
DA:73,0
DA:74,0
DA:76,0
DA:78,0
DA:80,0
DA:81,0
DA:107,0
DA:117,0
DA:255,0
DA:257,0
BA:73,0
BA:73,0
BA:73,0
BA:73,0
BA:74,0
BA:74,0
BA:74,0
BA:74,0
LF:12
LH:0
end_of_record
SF:/usr/include/c++/4.4/bits/stl_vector.h
FN:532,_ZNKSt6vectorI10CoordinateSaIS0_EE4sizeEv
FN:625,_ZNKSt6vectorI10CoordinateSaIS0_EEixEj
FN:565,_ZNKSt6vectorI10CoordinateSaIS0_EE8capacityEv
FN:93,_ZNSt12_Vector_baseI10CoordinateSaIS0_EE19_M_get_Tp_allocatorEv
FN:452,_ZNKSt6vectorI10CoordinateSaIS0_EE3endEv
FN:434,_ZNKSt6vectorI10CoordinateSaIS0_EE5beginEv
FN:443,_ZNSt6vectorI10CoordinateSaIS0_EE3endEv
FN:425,_ZNSt6vectorI10CoordinateSaIS0_EE5beginEv
FN:97,_ZNKSt12_Vector_baseI10CoordinateSaIS0_EE19_M_get_Tp_allocatorEv
FN:143,_ZNSt12_Vector_baseI10CoordinateSaIS0_EE13_M_deallocateEPS0_j
FN:139,_ZNSt12_Vector_baseI10CoordinateSaIS0_EE11_M_allocateEj
FN:960,_ZNSt6vectorI10CoordinateSaIS0_EE20_M_allocate_and_copyIN9__gnu_cxx17__normal_iteratorIPKS0_S2_EEEEPS0_jT_SA_
FN:75,_ZNSt12_Vector_baseI10CoordinateSaIS0_EE12_Vector_implD1Ev
FN:131,_ZNSt12_Vector_baseI10CoordinateSaIS0_EED2Ev
FN:312,_ZNSt6vectorI10CoordinateSaIS0_EED1Ev
FN:84,_ZNSt12_Vector_baseI10CoordinateSaIS0_EE12_Vector_implC1ERKS1_
FN:110,_ZNSt12_Vector_baseI10CoordinateSaIS0_EEC2EjRKS1_
FN:241,_ZNSt6vectorI10CoordinateSaIS0_EEC1ERKS2_
FNDA:0,_ZNSt12_Vector_baseI10CoordinateSaIS0_EE12_Vector_implD1Ev
FNDA:0,_ZNSt12_Vector_baseI10CoordinateSaIS0_EE12_Vector_implC1ERKS1_
FNDA:0,_ZNSt12_Vector_baseI10CoordinateSaIS0_EE19_M_get_Tp_allocatorEv
FNDA:0,_ZNKSt12_Vector_baseI10CoordinateSaIS0_EE19_M_get_Tp_allocatorEv
FNDA:0,_ZNSt12_Vector_baseI10CoordinateSaIS0_EEC2EjRKS1_
FNDA:0,_ZNSt12_Vector_baseI10CoordinateSaIS0_EED2Ev
FNDA:0,_ZNSt12_Vector_baseI10CoordinateSaIS0_EE11_M_allocateEj
FNDA:0,_ZNSt12_Vector_baseI10CoordinateSaIS0_EE13_M_deallocateEPS0_j
FNDA:0,_ZNSt6vectorI10CoordinateSaIS0_EEC1ERKS2_
FNDA:0,_ZNSt6vectorI10CoordinateSaIS0_EED1Ev
FNDA:0,_ZNSt6vectorI10CoordinateSaIS0_EE5beginEv
FNDA:0,_ZNKSt6vectorI10CoordinateSaIS0_EE5beginEv
FNDA:0,_ZNSt6vectorI10CoordinateSaIS0_EE3endEv
FNDA:0,_ZNKSt6vectorI10CoordinateSaIS0_EE3endEv
FNDA:0,_ZNKSt6vectorI10CoordinateSaIS0_EE4sizeEv
FNDA:0,_ZNKSt6vectorI10CoordinateSaIS0_EE8capacityEv
FNDA:0,_ZNKSt6vectorI10CoordinateSaIS0_EEixEj
FNDA:0,_ZNSt6vectorI10CoordinateSaIS0_EE20_M_allocate_and_copyIN9__gnu_cxx17__normal_iteratorIPKS0_S2_EEEEPS0_jT_SA_
FNF:18
FNH:0
DA:75,0
DA:84,0
DA:85,0
DA:86,0
DA:93,0
DA:94,0
DA:97,0
DA:98,0
DA:110,0
DA:111,0
DA:113,0
DA:114,0
DA:115,0
DA:116,0
DA:131,0
DA:132,0
DA:133,0
DA:139,0
DA:140,0
DA:143,0
DA:145,0
DA:146,0
DA:147,0
DA:241,0
DA:242,0
DA:243,0
DA:247,0
DA:312,0
DA:313,0
DA:314,0
DA:425,0
DA:426,0
DA:434,0
DA:435,0
DA:443,0
DA:444,0
DA:452,0
DA:453,0
DA:532,0
DA:533,0
DA:565,0
DA:567,0
DA:625,0
DA:626,0
DA:960,0
DA:963,0
DA:966,0
DA:968,0
DA:970,0
DA:972,0
DA:973,0
BA:140,0
BA:140,0
BA:145,0
BA:145,0
LF:51
LH:0
end_of_record
SF:/usr/include/c++/4.4/bits/vector.tcc
FN:156,_ZNSt6vectorI10CoordinateSaIS0_EEaSERKS2_
FNDA:0,_ZNSt6vectorI10CoordinateSaIS0_EEaSERKS2_
FNF:1
FNH:0
DA:156,0
DA:159,0
DA:161,0
DA:162,0
DA:165,0
DA:166,0
DA:168,0
DA:171,0
DA:172,0
DA:174,0
DA:176,0
DA:181,0
DA:183,0
DA:188,0
DA:190,0
BA:159,0
BA:159,0
BA:162,0
BA:162,0
BA:174,0
BA:174,0
LF:15
LH:0
end_of_record
SF:/usr/include/c++/4.4/ext/new_allocator.h
FN:73,_ZN9__gnu_cxx13new_allocatorISt10_List_nodeIN4sigc9slot_baseEEED2Ev
FN:73,_ZN9__gnu_cxx13new_allocatorISt10_List_nodeIPK6PlayerEED2Ev
FN:115,_ZN9__gnu_cxx13new_allocatorIPK6PlayerE7destroyEPS3_
FN:73,_ZN9__gnu_cxx13new_allocatorISt13_Rb_tree_nodeI10CoordinateEED2Ev
FN:73,_ZN9__gnu_cxx13new_allocatorIN4sigc9slot_baseEED2Ev
FN:73,_ZN9__gnu_cxx13new_allocatorIPK6PlayerED2Ev
FN:104,_ZN9__gnu_cxx13new_allocatorIPK6PlayerE9constructEPS3_RKS3_
FN:66,_ZN9__gnu_cxx13new_allocatorISt6vectorI10CoordinateSaIS2_EEEC2Ev
FN:73,_ZN9__gnu_cxx13new_allocatorISt6vectorI10CoordinateSaIS2_EEED2Ev
FN:66,_ZN9__gnu_cxx13new_allocatorIyEC2Ev
FN:73,_ZN9__gnu_cxx13new_allocatorIyED2Ev
FN:115,_ZN9__gnu_cxx13new_allocatorI10CoordinateE7destroyEPS1_
FN:66,_ZN9__gnu_cxx13new_allocatorIN4sigc9slot_baseEEC2Ev
FN:98,_ZNK9__gnu_cxx13new_allocatorISt10_List_nodeIN4sigc9slot_baseEEE8max_sizeEv
FN:66,_ZN9__gnu_cxx13new_allocatorISt10_List_nodeIPK6PlayerEEC2Ev
FN:66,_ZN9__gnu_cxx13new_allocatorIPK6PlayerEC2Ev
FN:98,_ZNK9__gnu_cxx13new_allocatorI10CoordinateE8max_sizeEv
FN:73,_ZN9__gnu_cxx13new_allocatorISt10_List_nodeISt6vectorI10CoordinateSaIS3_EEEED2Ev
FN:115,_ZN9__gnu_cxx13new_allocatorIyE7destroyEPy
FN:73,_ZN9__gnu_cxx13new_allocatorISt10_List_nodeIyEED2Ev
FN:66,_ZN9__gnu_cxx13new_allocatorISt13_Rb_tree_nodeI10CoordinateEEC2Ev
FN:73,_ZN9__gnu_cxx13new_allocatorI10CoordinateED2Ev
FN:98,_ZNK9__gnu_cxx13new_allocatorISt10_List_nodeIPK6PlayerEE8max_sizeEv
FN:66,_ZN9__gnu_cxx13new_allocatorISt10_List_nodeISt6vectorI10CoordinateSaIS3_EEEEC2Ev
FN:66,_ZN9__gnu_cxx13new_allocatorISt10_List_nodeIyEEC2Ev
FN:66,_ZN9__gnu_cxx13new_allocatorI10CoordinateEC2Ev
FN:68,_ZN9__gnu_cxx13new_allocatorI10CoordinateEC2ERKS2_
FN:68,_ZN9__gnu_cxx13new_allocatorISt10_List_nodeISt6vectorI10CoordinateSaIS3_EEEEC2ERKS7_
FN:68,_ZN9__gnu_cxx13new_allocatorISt10_List_nodeIyEEC2ERKS3_
FN:98,_ZNK9__gnu_cxx13new_allocatorISt13_Rb_tree_nodeI10CoordinateEE8max_sizeEv
FN:104,_ZN9__gnu_cxx13new_allocatorIyE9constructEPyRKy
FN:98,_ZNK9__gnu_cxx13new_allocatorISt10_List_nodeISt6vectorI10CoordinateSaIS3_EEEE8max_sizeEv
FN:98,_ZNK9__gnu_cxx13new_allocatorISt10_List_nodeIyEE8max_sizeEv
FN:94,_ZN9__gnu_cxx13new_allocatorI10CoordinateE10deallocateEPS1_j
FN:94,_ZN9__gnu_cxx13new_allocatorISt10_List_nodeISt6vectorI10CoordinateSaIS3_EEEE10deallocateEPS6_j
FN:94,_ZN9__gnu_cxx13new_allocatorISt10_List_nodeIyEE10deallocateEPS2_j
FN:94,_ZN9__gnu_cxx13new_allocatorISt10_List_nodeIN4sigc9slot_baseEEE10deallocateEPS4_j
FN:94,_ZN9__gnu_cxx13new_allocatorISt13_Rb_tree_nodeI10CoordinateEE10deallocateEPS3_j
FN:94,_ZN9__gnu_cxx13new_allocatorISt10_List_nodeIPK6PlayerEE10deallocateEPS5_j
FN:104,_ZN9__gnu_cxx13new_allocatorI10CoordinateE9constructEPS1_RKS1_
FN:84,_ZN9__gnu_cxx13new_allocatorI10CoordinateE8allocateEjPKv
FN:84,_ZN9__gnu_cxx13new_allocatorISt10_List_nodeISt6vectorI10CoordinateSaIS3_EEEE8allocateEjPKv
FN:84,_ZN9__gnu_cxx13new_allocatorISt10_List_nodeIyEE8allocateEjPKv
FN:84,_ZN9__gnu_cxx13new_allocatorISt10_List_nodeIN4sigc9slot_baseEEE8allocateEjPKv
FN:84,_ZN9__gnu_cxx13new_allocatorISt13_Rb_tree_nodeI10CoordinateEE8allocateEjPKv
FN:84,_ZN9__gnu_cxx13new_allocatorISt10_List_nodeIPK6PlayerEE8allocateEjPKv
FN:115,_ZN9__gnu_cxx13new_allocatorISt6vectorI10CoordinateSaIS2_EEE7destroyEPS4_
FN:104,_ZN9__gnu_cxx13new_allocatorISt6vectorI10CoordinateSaIS2_EEE9constructEPS4_RKS4_
FN:115,_ZN9__gnu_cxx13new_allocatorIN4sigc9slot_baseEE7destroyEPS2_
FN:104,_ZN9__gnu_cxx13new_allocatorIN4sigc9slot_baseEE9constructEPS2_RKS2_
FNDA:0,_ZN9__gnu_cxx13new_allocatorISt6vectorI10CoordinateSaIS2_EEEC2Ev
FNDA:0,_ZN9__gnu_cxx13new_allocatorIyEC2Ev
FNDA:0,_ZN9__gnu_cxx13new_allocatorIN4sigc9slot_baseEEC2Ev
FNDA:0,_ZN9__gnu_cxx13new_allocatorISt10_List_nodeIPK6PlayerEEC2Ev
FNDA:0,_ZN9__gnu_cxx13new_allocatorIPK6PlayerEC2Ev
FNDA:0,_ZN9__gnu_cxx13new_allocatorISt13_Rb_tree_nodeI10CoordinateEEC2Ev
FNDA:0,_ZN9__gnu_cxx13new_allocatorISt10_List_nodeISt6vectorI10CoordinateSaIS3_EEEEC2Ev
FNDA:0,_ZN9__gnu_cxx13new_allocatorISt10_List_nodeIyEEC2Ev
FNDA:0,_ZN9__gnu_cxx13new_allocatorI10CoordinateEC2Ev
FNDA:0,_ZN9__gnu_cxx13new_allocatorI10CoordinateEC2ERKS2_
FNDA:0,_ZN9__gnu_cxx13new_allocatorISt10_List_nodeISt6vectorI10CoordinateSaIS3_EEEEC2ERKS7_
FNDA:0,_ZN9__gnu_cxx13new_allocatorISt10_List_nodeIyEEC2ERKS3_
FNDA:0,_ZN9__gnu_cxx13new_allocatorISt10_List_nodeIN4sigc9slot_baseEEED2Ev
FNDA:0,_ZN9__gnu_cxx13new_allocatorISt10_List_nodeIPK6PlayerEED2Ev
FNDA:0,_ZN9__gnu_cxx13new_allocatorISt13_Rb_tree_nodeI10CoordinateEED2Ev
FNDA:0,_ZN9__gnu_cxx13new_allocatorIN4sigc9slot_baseEED2Ev
FNDA:0,_ZN9__gnu_cxx13new_allocatorIPK6PlayerED2Ev
FNDA:0,_ZN9__gnu_cxx13new_allocatorISt6vectorI10CoordinateSaIS2_EEED2Ev
FNDA:0,_ZN9__gnu_cxx13new_allocatorIyED2Ev
FNDA:0,_ZN9__gnu_cxx13new_allocatorISt10_List_nodeISt6vectorI10CoordinateSaIS3_EEEED2Ev
FNDA:0,_ZN9__gnu_cxx13new_allocatorISt10_List_nodeIyEED2Ev
FNDA:0,_ZN9__gnu_cxx13new_allocatorI10CoordinateED2Ev
FNDA:0,_ZN9__gnu_cxx13new_allocatorI10CoordinateE8allocateEjPKv
FNDA:0,_ZN9__gnu_cxx13new_allocatorISt10_List_nodeISt6vectorI10CoordinateSaIS3_EEEE8allocateEjPKv
FNDA:0,_ZN9__gnu_cxx13new_allocatorISt10_List_nodeIyEE8allocateEjPKv
FNDA:0,_ZN9__gnu_cxx13new_allocatorISt10_List_nodeIN4sigc9slot_baseEEE8allocateEjPKv
FNDA:0,_ZN9__gnu_cxx13new_allocatorISt13_Rb_tree_nodeI10CoordinateEE8allocateEjPKv
FNDA:0,_ZN9__gnu_cxx13new_allocatorISt10_List_nodeIPK6PlayerEE8allocateEjPKv
FNDA:0,_ZN9__gnu_cxx13new_allocatorI10CoordinateE10deallocateEPS1_j
FNDA:0,_ZN9__gnu_cxx13new_allocatorISt10_List_nodeISt6vectorI10CoordinateSaIS3_EEEE10deallocateEPS6_j
FNDA:0,_ZN9__gnu_cxx13new_allocatorISt10_List_nodeIyEE10deallocateEPS2_j
FNDA:0,_ZN9__gnu_cxx13new_allocatorISt10_List_nodeIN4sigc9slot_baseEEE10deallocateEPS4_j
FNDA:0,_ZN9__gnu_cxx13new_allocatorISt13_Rb_tree_nodeI10CoordinateEE10deallocateEPS3_j
FNDA:0,_ZN9__gnu_cxx13new_allocatorISt10_List_nodeIPK6PlayerEE10deallocateEPS5_j
FNDA:0,_ZNK9__gnu_cxx13new_allocatorISt10_List_nodeIN4sigc9slot_baseEEE8max_sizeEv
FNDA:0,_ZNK9__gnu_cxx13new_allocatorI10CoordinateE8max_sizeEv
FNDA:0,_ZNK9__gnu_cxx13new_allocatorISt10_List_nodeIPK6PlayerEE8max_sizeEv
FNDA:0,_ZNK9__gnu_cxx13new_allocatorISt13_Rb_tree_nodeI10CoordinateEE8max_sizeEv
FNDA:0,_ZNK9__gnu_cxx13new_allocatorISt10_List_nodeISt6vectorI10CoordinateSaIS3_EEEE8max_sizeEv
FNDA:0,_ZNK9__gnu_cxx13new_allocatorISt10_List_nodeIyEE8max_sizeEv
FNDA:0,_ZN9__gnu_cxx13new_allocatorIPK6PlayerE9constructEPS3_RKS3_
FNDA:0,_ZN9__gnu_cxx13new_allocatorIyE9constructEPyRKy
FNDA:0,_ZN9__gnu_cxx13new_allocatorI10CoordinateE9constructEPS1_RKS1_
FNDA:0,_ZN9__gnu_cxx13new_allocatorISt6vectorI10CoordinateSaIS2_EEE9constructEPS4_RKS4_
FNDA:0,_ZN9__gnu_cxx13new_allocatorIN4sigc9slot_baseEE9constructEPS2_RKS2_
FNDA:0,_ZN9__gnu_cxx13new_allocatorIPK6PlayerE7destroyEPS3_
FNDA:0,_ZN9__gnu_cxx13new_allocatorI10CoordinateE7destroyEPS1_
FNDA:0,_ZN9__gnu_cxx13new_allocatorIyE7destroyEPy
FNDA:0,_ZN9__gnu_cxx13new_allocatorISt6vectorI10CoordinateSaIS2_EEE7destroyEPS4_
FNDA:0,_ZN9__gnu_cxx13new_allocatorIN4sigc9slot_baseEE7destroyEPS2_
FNF:50
FNH:0
DA:66,0
DA:68,0
DA:73,0
DA:84,0
DA:86,0
DA:87,0
DA:89,0
DA:94,0
DA:95,0
DA:98,0
DA:99,0
DA:104,0
DA:105,0
DA:115,0
BA:86,0
BA:86,0
BA:86,0
BA:86,0
BA:86,0
BA:86,0
BA:86,0
BA:86,0
BA:86,0
BA:86,0
BA:86,0
BA:86,0
BA:105,0
BA:105,0
BA:105,0
BA:105,0
BA:105,0
BA:105,0
BA:105,0
BA:105,0
BA:105,0
BA:105,0
LF:14
LH:0
end_of_record
SF:/usr/include/c++/4.4/iostream
DA:72,17
LF:1
LH:1
end_of_record
SF:/usr/include/c++/4.4/new
FN:101,_ZnwjPv
FN:105,_ZdlPvS_
FNDA:0,_ZnwjPv
FNDA:0,_ZdlPvS_
FNF:2
FNH:0
DA:101,0
DA:105,0
LF:2
LH:0
end_of_record
SF:/usr/include/c++/4.4/ostream
FN:108,_ZNSolsEPFRSoS_E
FN:209,_ZNSolsEd
FN:505,_ZStlsISt11char_traitsIcEERSt13basic_ostreamIcT_ES5_PKc
FN:559,_ZSt5flushIcSt11char_traitsIcEERSt13basic_ostreamIT_T0_ES6_
FN:538,_ZSt4endlIcSt11char_traitsIcEERSt13basic_ostreamIT_T0_ES6_
FNDA:0,_ZNSolsEPFRSoS_E
FNDA:0,_ZNSolsEd
FNDA:0,_ZStlsISt11char_traitsIcEERSt13basic_ostreamIcT_ES5_PKc
FNDA:0,_ZSt4endlIcSt11char_traitsIcEERSt13basic_ostreamIT_T0_ES6_
FNDA:0,_ZSt5flushIcSt11char_traitsIcEERSt13basic_ostreamIT_T0_ES6_
FNF:5
FNH:0
DA:108,0
DA:113,0
DA:209,0
DA:210,0
DA:505,0
DA:507,0
DA:508,0
DA:510,0
DA:512,0
DA:538,0
DA:539,0
DA:559,0
DA:560,0
BA:507,0
BA:507,0
LF:13
LH:0
end_of_record
SF:/usr/include/cairomm-1.0/cairomm/refptr.h
FN:180,_ZNK5Cairo6RefPtrINS_7ContextEEptEv
FN:199,_ZN5Cairo6RefPtrINS_7ContextEE5unrefEv
FN:193,_ZN5Cairo6RefPtrINS_7ContextEED1Ev
FNDA:0,_ZNK5Cairo6RefPtrINS_7ContextEEptEv
FNDA:0,_ZN5Cairo6RefPtrINS_7ContextEED1Ev
FNDA:0,_ZN5Cairo6RefPtrINS_7ContextEE5unrefEv
FNF:3
FNH:0
DA:180,0
DA:182,0
DA:193,0
DA:195,0
DA:196,0
DA:199,0
DA:201,0
DA:203,0
DA:205,0
DA:207,0
DA:209,0
DA:210,0
DA:213,0
DA:214,0
DA:217,0
BA:201,0
BA:201,0
BA:205,0
BA:205,0
BA:207,0
BA:207,0
BA:209,0
BA:209,0
LF:15
LH:0
end_of_record
SF:/usr/include/glibmm-2.4/glibmm/refptr.h
FN:181,_ZN4Glib6RefPtrIN3Gdk6WindowEED1Ev
FN:282,_ZNK4Glib6RefPtrIN3Gdk6WindowEEcvbEv
FN:169,_ZNK4Glib6RefPtrIN3Gdk6WindowEEptEv
FNDA:0,_ZNK4Glib6RefPtrIN3Gdk6WindowEEptEv
FNDA:0,_ZN4Glib6RefPtrIN3Gdk6WindowEED1Ev
FNDA:0,_ZNK4Glib6RefPtrIN3Gdk6WindowEEcvbEv
FNF:3
FNH:0
DA:169,0
DA:171,0
DA:181,0
DA:183,0
DA:184,0
DA:185,0
DA:282,0
DA:284,0
BA:183,0
BA:183,0
LF:8
LH:0
end_of_record
SF:/usr/include/gtkmm-2.4/gtkmm/papersize.h
DA:37,17
DA:38,17
DA:39,17
DA:40,17
DA:41,17
DA:42,17
DA:43,17
LF:7
LH:7
end_of_record
SF:/usr/include/sigc++-2.0/sigc++/functors/slot_base.h
FN:272,_ZNK4sigc9slot_base5emptyEv
FN:278,_ZNK4sigc9slot_base7blockedEv
FNDA:0,_ZNK4sigc9slot_base5emptyEv
FNDA:0,_ZNK4sigc9slot_base7blockedEv
FNF:2
FNH:0
DA:272,0
DA:273,0
DA:278,0
DA:279,0
BA:273,0
BA:273,0
BA:273,0
BA:273,0
LF:4
LH:0
end_of_record
SF:/usr/include/sigc++-2.0/sigc++/signal.h
FN:976,_ZN4sigc8internal12signal_emit3IvRK10CoordinateRK5PieceRK6PlayerNS_3nilEE4emitEPNS0_11signal_implES4_S7_SA_
FN:2041,_ZNK4sigc7signal3IvRK10CoordinateRK5PieceRK6PlayerNS_3nilEE4emitES3_S6_S9_
FN:1996,_ZN4sigc7signal3IvRK10CoordinateRK5PieceRK6PlayerNS_3nilEED2Ev
FN:2600,_ZN4sigc6signalIvRK10CoordinateRK5PieceRK6PlayerNS_3nilESA_SA_SA_ED1Ev
FN:2072,_ZN4sigc7signal3IvRK10CoordinateRK5PieceRK6PlayerNS_3nilEEC2Ev
FN:2784,_ZN4sigc6signalIvRK10CoordinateRK5PieceRK6PlayerNS_3nilESA_SA_SA_EC1Ev
FNDA:0,_ZN4sigc8internal12signal_emit3IvRK10CoordinateRK5PieceRK6PlayerNS_3nilEE4emitEPNS0_11signal_implES4_S7_SA_
FNDA:0,_ZN4sigc7signal3IvRK10CoordinateRK5PieceRK6PlayerNS_3nilEED2Ev
FNDA:0,_ZNK4sigc7signal3IvRK10CoordinateRK5PieceRK6PlayerNS_3nilEE4emitES3_S6_S9_
FNDA:0,_ZN4sigc7signal3IvRK10CoordinateRK5PieceRK6PlayerNS_3nilEEC2Ev
FNDA:0,_ZN4sigc6signalIvRK10CoordinateRK5PieceRK6PlayerNS_3nilESA_SA_SA_ED1Ev
FNDA:0,_ZN4sigc6signalIvRK10CoordinateRK5PieceRK6PlayerNS_3nilESA_SA_SA_EC1Ev
FNF:6
FNH:0
DA:976,0
DA:978,0
DA:979,0
DA:980,0
DA:982,0
DA:984,0
DA:985,0
DA:986,0
DA:1996,0
DA:2041,0
DA:2042,0
DA:2072,0
DA:2600,0
DA:2784,0
BA:978,0
BA:978,0
BA:978,0
BA:978,0
BA:978,0
BA:978,0
BA:982,0
BA:982,0
BA:984,0
BA:984,0
BA:984,0
BA:984,0
BA:984,0
BA:984,0
LF:14
LH:0
end_of_record
SF:/usr/include/sigc++-2.0/sigc++/signal_base.h
FN:64,_ZN4sigc8internal11signal_impl14reference_execEv
FN:155,_ZN4sigc8internal11signal_execC1EPKNS0_11signal_implE
FN:189,_ZN4sigc8internal14temp_slot_list3endEv
FN:188,_ZN4sigc8internal14temp_slot_list5beginEv
FN:183,_ZN4sigc8internal14temp_slot_listD1Ev
FN:45,_ZN4sigc8internal11signal_implD1Ev
FN:178,_ZN4sigc8internal14temp_slot_listC1ERSt4listINS_9slot_baseESaIS3_EE
FN:77,_ZN4sigc8internal11signal_impl16unreference_execEv
FN:160,_ZN4sigc8internal11signal_execD1Ev
FNDA:0,_ZN4sigc8internal11signal_implD1Ev
FNDA:0,_ZN4sigc8internal11signal_impl14reference_execEv
FNDA:0,_ZN4sigc8internal11signal_impl16unreference_execEv
FNDA:0,_ZN4sigc8internal11signal_execC1EPKNS0_11signal_implE
FNDA:0,_ZN4sigc8internal11signal_execD1Ev
FNDA:0,_ZN4sigc8internal14temp_slot_listC1ERSt4listINS_9slot_baseESaIS3_EE
FNDA:0,_ZN4sigc8internal14temp_slot_listD1Ev
FNDA:0,_ZN4sigc8internal14temp_slot_list5beginEv
FNDA:0,_ZN4sigc8internal14temp_slot_list3endEv
FNF:9
FNH:0
DA:45,0
DA:64,0
DA:65,0
DA:77,0
DA:79,0
DA:80,0
DA:81,0
DA:155,0
DA:156,0
DA:157,0
DA:160,0
DA:161,0
DA:178,0
DA:180,0
DA:181,0
DA:183,0
DA:185,0
DA:186,0
DA:188,0
DA:189,0
BA:79,0
BA:79,0
BA:79,0
BA:79,0
BA:80,0
BA:80,0
BA:80,0
BA:80,0
BA:80,0
BA:80,0
LF:20
LH:0
end_of_record
SF:/home/frechilla/workspace/headless/blockem_sourceforge/src/board.h
FN:103,_ZNK5Board8GetNRowsEv
FN:109,_ZNK5Board11GetNColumnsEv
FN:79,_ZNK5Board15IsPlayerInCoordERK10CoordinateRK6Player
FN:55,_ZNK5Board12IsCoordEmptyERK10Coordinate
FNDA:0,_ZNK5Board12IsCoordEmptyERK10Coordinate
FNDA:0,_ZNK5Board15IsPlayerInCoordERK10CoordinateRK6Player
FNDA:0,_ZNK5Board8GetNRowsEv
FNDA:0,_ZNK5Board11GetNColumnsEv
FNF:4
FNH:0
DA:55,0
DA:58,0
DA:59,0
DA:60,0
DA:61,0
DA:63,0
DA:79,0
DA:82,0
DA:83,0
DA:84,0
DA:85,0
DA:87,0
DA:103,0
DA:105,0
DA:109,0
DA:111,0
BA:58,0
BA:58,0
BA:59,0
BA:59,0
BA:60,0
BA:60,0
BA:61,0
BA:61,0
BA:82,0
BA:82,0
BA:83,0
BA:83,0
BA:84,0
BA:84,0
BA:85,0
BA:85,0
LF:16
LH:0
end_of_record
SF:/home/frechilla/workspace/headless/blockem_sourceforge/src/coordinate.h
FN:49,_ZN10CoordinateC1Ev
FN:53,_ZN10CoordinateC1Eii
FN:75,_ZNK10Coordinate10comparatorclERKS_S2_
FN:47,_ZN10CoordinateaSERKS_
FN:47,_ZN10CoordinateC1ERKS_
FN:57,_ZN10CoordinateD0Ev
FN:57,_ZN10CoordinateD1Ev
FNDA:0,_ZN10CoordinateaSERKS_
FNDA:0,_ZN10CoordinateC1ERKS_
FNDA:0,_ZN10CoordinateC1Ev
FNDA:0,_ZN10CoordinateC1Eii
FNDA:0,_ZN10CoordinateD0Ev
FNDA:0,_ZN10CoordinateD1Ev
FNDA:0,_ZNK10Coordinate10comparatorclERKS_S2_
FNF:7
FNH:0
DA:47,0
DA:49,0
DA:51,0
DA:52,0
DA:53,0
DA:55,0
DA:56,0
DA:57,0
DA:58,0
DA:75,0
DA:77,0
DA:80,0
DA:83,0
BA:58,0
BA:58,0
BA:58,0
BA:58,0
BA:77,0
BA:77,0
BA:77,0
BA:77,0
BA:77,0
BA:77,0
LF:13
LH:0
end_of_record
SF:/home/frechilla/workspace/headless/blockem_sourceforge/src/gui_drawing_area_board.cpp
FN:96,_ZN16DrawingAreaBoard16SetCurrentPlayerERK6Player
FN:101,_ZN16DrawingAreaBoard18UnsetCurrentPlayerEv
FN:675,_ZN16DrawingAreaBoard31CancelLatestPieceDeployedEffectEv
FN:739,_Z41__static_initialization_and_destruction_0ii
FN:739,_GLOBAL__I__ZN16DrawingAreaBoardC2ERK5Board
FN:91,_ZN16DrawingAreaBoard15ResetPlayerListEv
FN:86,_ZN16DrawingAreaBoard15AddPlayerToListEPK6Player
FN:106,_ZN16DrawingAreaBoard15SetCurrentPieceERK5Piece
FN:580,_ZN16DrawingAreaBoard23DrawingAreaToBoardCoordEiiR10Coordinate
FN:636,_ZN16DrawingAreaBoard10InvalidateEv
FN:681,_ZN16DrawingAreaBoard13timerCallbackEPv
FN:655,_ZN16DrawingAreaBoard10InvalidateERK5PieceRK10CoordinateRK6Player
FN:565,_ZN16DrawingAreaBoard21on_leave_notify_eventEP17_GdkEventCrossing
FN:531,_ZN16DrawingAreaBoard22on_motion_notify_eventEP15_GdkEventMotion
FN:142,_ZN16DrawingAreaBoard30HideCurrentPlayerForbiddenAreaEv
FN:132,_ZN16DrawingAreaBoard30ShowCurrentPlayerForbiddenAreaEv
FN:121,_ZN16DrawingAreaBoard20HideNucleationPointsEv
FN:111,_ZN16DrawingAreaBoard20ShowNucleationPointsEv
FN:507,_ZN16DrawingAreaBoard21on_button_press_eventEP15_GdkEventButton
FN:152,_ZN16DrawingAreaBoard15on_expose_eventEP15_GdkEventExpose
FN:82,_ZN16DrawingAreaBoardD0Ev
FN:82,_ZN16DrawingAreaBoardD1Ev
FN:82,_ZN16DrawingAreaBoardD2Ev
FN:62,_ZN16DrawingAreaBoardC1ERK5Board
FN:62,_ZN16DrawingAreaBoardC2ERK5Board
FNDA:0,_ZN16DrawingAreaBoardC1ERK5Board
FNDA:0,_ZN16DrawingAreaBoardC2ERK5Board
FNDA:0,_ZN16DrawingAreaBoardD0Ev
FNDA:0,_ZN16DrawingAreaBoardD1Ev
FNDA:0,_ZN16DrawingAreaBoardD2Ev
FNDA:0,_ZN16DrawingAreaBoard15AddPlayerToListEPK6Player
FNDA:0,_ZN16DrawingAreaBoard15ResetPlayerListEv
FNDA:0,_ZN16DrawingAreaBoard16SetCurrentPlayerERK6Player
FNDA:0,_ZN16DrawingAreaBoard18UnsetCurrentPlayerEv
FNDA:0,_ZN16DrawingAreaBoard15SetCurrentPieceERK5Piece
FNDA:0,_ZN16DrawingAreaBoard20ShowNucleationPointsEv
FNDA:0,_ZN16DrawingAreaBoard20HideNucleationPointsEv
FNDA:0,_ZN16DrawingAreaBoard30ShowCurrentPlayerForbiddenAreaEv
FNDA:0,_ZN16DrawingAreaBoard30HideCurrentPlayerForbiddenAreaEv
FNDA:0,_ZN16DrawingAreaBoard15on_expose_eventEP15_GdkEventExpose
FNDA:0,_ZN16DrawingAreaBoard21on_button_press_eventEP15_GdkEventButton
FNDA:0,_ZN16DrawingAreaBoard22on_motion_notify_eventEP15_GdkEventMotion
FNDA:0,_ZN16DrawingAreaBoard21on_leave_notify_eventEP17_GdkEventCrossing
FNDA:0,_ZN16DrawingAreaBoard23DrawingAreaToBoardCoordEiiR10Coordinate
FNDA:0,_ZN16DrawingAreaBoard10InvalidateEv
FNDA:0,_ZN16DrawingAreaBoard10InvalidateERK5PieceRK10CoordinateRK6Player
FNDA:0,_ZN16DrawingAreaBoard31CancelLatestPieceDeployedEffectEv
FNDA:0,_ZN16DrawingAreaBoard13timerCallbackEPv
FNDA:17,_Z41__static_initialization_and_destruction_0ii
FNDA:17,_GLOBAL__I__ZN16DrawingAreaBoardC2ERK5Board
FNF:25
FNH:2
DA:62,0
DA:74,0
DA:77,0
DA:78,0
DA:79,0
DA:80,0
DA:82,0
DA:84,0
DA:86,0
DA:88,0
DA:89,0
DA:91,0
DA:93,0
DA:94,0
DA:96,0
DA:98,0
DA:99,0
DA:101,0
DA:103,0
DA:104,0
DA:106,0
DA:108,0
DA:109,0
DA:111,0
DA:113,0
DA:116,0
DA:117,0
DA:119,0
DA:121,0
DA:123,0
DA:126,0
DA:127,0
DA:129,0
DA:132,0
DA:134,0
DA:137,0
DA:138,0
DA:140,0
DA:142,0
DA:144,0
DA:147,0
DA:148,0
DA:150,0
DA:152,0
DA:155,0
DA:156,0
DA:158,0
DA:161,0
DA:163,0
DA:164,0
DA:165,0
DA:169,0
DA:171,0
DA:172,0
DA:175,0
DA:176,0
DA:179,0
DA:185,0
DA:186,0
DA:190,0
DA:192,0
DA:193,0
DA:195,0
DA:196,0
DA:197,0
DA:198,0
DA:199,0
DA:201,0
DA:208,0
DA:216,0
DA:218,0
DA:226,0
DA:228,0
DA:229,0
DA:233,0
DA:237,0
DA:245,0
DA:247,0
DA:253,0
DA:259,0
DA:261,0
DA:262,0
DA:266,0
DA:271,0
DA:278,0
DA:280,0
DA:283,0
DA:287,0
DA:293,0
DA:295,0
DA:296,0
DA:297,0
DA:298,0
DA:300,0
DA:301,0
DA:302,0
DA:305,0
DA:313,0
DA:314,0
DA:319,0
DA:321,0
DA:326,0
DA:334,0
DA:335,0
DA:337,0
DA:340,0
DA:341,0
DA:342,0
DA:346,0
DA:352,0
DA:357,0
DA:358,0
DA:359,0
DA:360,0
DA:362,0
DA:364,0
DA:374,0
DA:382,0
DA:385,0
DA:395,0
DA:403,0
DA:407,0
DA:411,0
DA:417,0
DA:419,0
DA:426,0
DA:437,0
DA:439,0
DA:440,0
DA:441,0
DA:442,0
DA:448,0
DA:451,0
DA:455,0
DA:461,0
DA:463,0
DA:468,0
DA:472,0
DA:475,0
DA:476,0
DA:477,0
DA:478,0
DA:479,0
DA:482,0
DA:486,0
DA:489,0
DA:491,0
DA:492,0
DA:495,0
DA:497,0
DA:498,0
DA:502,0
DA:504,0
DA:507,0
DA:510,0
DA:513,0
DA:514,0
DA:518,0
DA:522,0
DA:526,0
DA:528,0
DA:531,0
DA:533,0
DA:534,0
DA:537,0
DA:540,0
DA:541,0
DA:546,0
DA:549,0
DA:555,0
DA:559,0
DA:562,0
DA:565,0
DA:567,0
DA:570,0
DA:574,0
DA:577,0
DA:580,0
DA:585,0
DA:586,0
DA:588,0
DA:591,0
DA:593,0
DA:594,0
DA:595,0
DA:599,0
DA:601,0
DA:602,0
DA:604,0
DA:605,0
DA:607,0
DA:611,0
DA:613,0
DA:615,0
DA:619,0
DA:621,0
DA:623,0
DA:627,0
DA:628,0
DA:630,0
DA:633,0
DA:636,0
DA:639,0
DA:640,0
DA:646,0
DA:648,0
DA:649,0
DA:652,0
DA:655,0
DA:657,0
DA:658,0
DA:659,0
DA:661,0
DA:664,0
DA:666,0
DA:668,0
DA:669,0
DA:672,0
DA:675,0
DA:677,0
DA:678,0
DA:679,0
DA:681,0
DA:683,0
DA:684,0
DA:687,0
DA:689,0
DA:692,0
DA:697,0
DA:706,0
DA:708,0
DA:709,0
DA:710,0
DA:716,0
DA:719,0
DA:721,0
DA:723,0
DA:728,0
DA:730,0
DA:732,0
DA:736,0
DA:738,0
DA:739,51
BA:84,0
BA:84,0
BA:84,0
BA:84,0
BA:84,0
BA:84,0
BA:84,0
BA:84,0
BA:84,0
BA:84,0
BA:84,0
BA:84,0
BA:84,0
BA:84,0
BA:84,0
BA:84,0
BA:84,0
BA:84,0
BA:84,0
BA:84,0
BA:84,0
BA:84,0
BA:84,0
BA:84,0
BA:84,0
BA:84,0
BA:84,0
BA:84,0
BA:84,0
BA:84,0
BA:113,0
BA:113,0
BA:123,0
BA:123,0
BA:134,0
BA:134,0
BA:144,0
BA:144,0
BA:156,0
BA:156,0
BA:193,0
BA:193,0
BA:201,0
BA:201,0
BA:229,0
BA:229,0
BA:233,0
BA:233,0
BA:237,0
BA:237,0
BA:253,0
BA:253,0
BA:253,0
BA:253,0
BA:262,0
BA:262,0
BA:266,0
BA:266,0
BA:271,0
BA:271,0
BA:271,0
BA:271,0
BA:271,0
BA:271,0
BA:287,0
BA:287,0
BA:298,0
BA:298,0
BA:302,0
BA:302,0
BA:352,0
BA:352,0
BA:352,0
BA:352,0
BA:352,0
BA:352,0
BA:352,0
BA:352,0
BA:352,0
BA:352,0
BA:362,0
BA:362,0
BA:364,0
BA:364,0
BA:385,0
BA:385,0
BA:407,0
BA:407,0
BA:426,0
BA:426,0
BA:426,0
BA:426,0
BA:426,0
BA:426,0
BA:426,0
BA:426,0
BA:451,0
BA:451,0
BA:489,0
BA:489,0
BA:495,0
BA:495,0
BA:514,0
BA:514,0
BA:514,0
BA:514,0
BA:514,0
BA:514,0
BA:514,0
BA:514,0
BA:534,0
BA:534,0
BA:537,0
BA:537,0
BA:537,0
BA:537,0
BA:549,0
BA:549,0
BA:549,0
BA:549,0
BA:567,0
BA:567,0
BA:567,0
BA:567,0
BA:586,0
BA:586,0
BA:607,0
BA:607,0
BA:607,0
BA:607,0
BA:607,0
BA:607,0
BA:607,0
BA:607,0
BA:611,0
BA:611,0
BA:613,0
BA:613,0
BA:619,0
BA:619,0
BA:621,0
BA:621,0
BA:640,0
BA:640,0
BA:661,0
BA:661,0
BA:666,0
BA:666,0
BA:683,0
BA:683,0
BA:683,0
BA:683,0
BA:683,0
BA:683,0
BA:684,0
BA:684,0
BA:684,0
BA:684,0
BA:684,0
BA:684,0
BA:689,0
BA:689,0
BA:697,0
BA:697,0
BA:697,0
BA:697,0
BA:697,0
BA:697,0
BA:697,0
BA:697,0
BA:716,0
BA:716,0
BA:716,0
BA:716,0
BA:721,0
BA:721,0
BA:730,0
BA:730,0
BA:739,2
BA:739,1
BA:739,2
BA:739,1
LF:243
LH:1
end_of_record
SF:/home/frechilla/workspace/headless/blockem_sourceforge/src/piece.h
FN:152,_ZNK5Piece7GetTypeEv
FN:195,_ZNK5Piece23GetCurrentConfigurationEv
FN:158,_ZNK5Piece11GetNSquaresEv
FN:92,_ZN5PieceaSERKS_
FN:202,_ZNK5Piece8GetCoordEi
FNDA:0,_ZN5PieceaSERKS_
FNDA:0,_ZNK5Piece7GetTypeEv
FNDA:0,_ZNK5Piece11GetNSquaresEv
FNDA:0,_ZNK5Piece23GetCurrentConfigurationEv
FNDA:0,_ZNK5Piece8GetCoordEi
FNF:5
FNH:0
DA:92,0
DA:152,0
DA:154,0
DA:158,0
DA:160,0
DA:195,0
DA:197,0
DA:202,0
DA:205,0
DA:207,0
BA:205,0
BA:205,0
LF:10
LH:0
end_of_record
SF:/home/frechilla/workspace/headless/blockem_sourceforge/src/player.h
FN:80,_ZNK6Player16PresentationCharEv
FN:98,_ZNK6Player21GetStartingCoordinateEv
FN:109,_ZNK6Player23NumberOfPiecesAvailableEv
FNDA:0,_ZNK6Player16PresentationCharEv
FNDA:0,_ZNK6Player21GetStartingCoordinateEv
FNDA:0,_ZNK6Player23NumberOfPiecesAvailableEv
FNF:3
FNH:0
DA:80,0
DA:82,0
DA:98,0
DA:100,0
DA:109,0
DA:111,0
LF:6
LH:0
end_of_record
TN:
SF:/usr/include/c++/4.4/bits/allocator.h
FN:101,_ZNSaIcEC1Ev
FN:109,_ZNSaIcED1Ev
FN:103,_ZNSaIcEC1ERKS_
FN:109,_ZNSaIcED2Ev
FNDA:0,_ZNSaIcEC1Ev
FNDA:0,_ZNSaIcEC1ERKS_
FNDA:0,_ZNSaIcED1Ev
FNDA:0,_ZNSaIcED2Ev
FNF:4
FNH:0
DA:101,0
DA:103,0
DA:104,0
DA:109,0
LF:4
LH:0
end_of_record
SF:/usr/include/c++/4.4/bits/basic_ios.h
FN:127,_ZNKSt9basic_iosIcSt11char_traitsIcEE7rdstateEv
FN:191,_ZNKSt9basic_iosIcSt11char_traitsIcEE4failEv
FN:115,_ZNKSt9basic_iosIcSt11char_traitsIcEEntEv
FN:450,_ZNSt9basic_iosIcSt11char_traitsIcEEC2Ev
FN:272,_ZNSt9basic_iosIcSt11char_traitsIcEED2Ev
FN:147,_ZNSt9basic_iosIcSt11char_traitsIcEE8setstateESt12_Ios_Iostate
FN:46,_ZSt13__check_facetISt5ctypeIcEERKT_PS3_
FN:439,_ZNKSt9basic_iosIcSt11char_traitsIcEE5widenEc
FNDA:0,_ZSt13__check_facetISt5ctypeIcEERKT_PS3_
FNDA:0,_ZNKSt9basic_iosIcSt11char_traitsIcEEntEv
FNDA:0,_ZNKSt9basic_iosIcSt11char_traitsIcEE7rdstateEv
FNDA:0,_ZNSt9basic_iosIcSt11char_traitsIcEE8setstateESt12_Ios_Iostate
FNDA:0,_ZNKSt9basic_iosIcSt11char_traitsIcEE4failEv
FNDA:0,_ZNSt9basic_iosIcSt11char_traitsIcEED2Ev
FNDA:0,_ZNKSt9basic_iosIcSt11char_traitsIcEE5widenEc
FNDA:0,_ZNSt9basic_iosIcSt11char_traitsIcEEC2Ev
FNF:8
FNH:0
DA:46,0
DA:48,0
DA:49,0
DA:50,0
DA:115,0
DA:116,0
DA:127,0
DA:128,0
DA:147,0
DA:148,0
DA:191,0
DA:192,0
DA:272,0
DA:439,0
DA:440,0
DA:450,0
DA:452,0
DA:453,0
BA:48,0
BA:48,0
BA:272,0
BA:272,0
LF:18
LH:0
end_of_record
SF:/usr/include/c++/4.4/bits/basic_string.h
FN:272,_ZNKSs7_M_dataEv
FN:280,_ZNKSs6_M_repEv
FN:1615,_ZNKSs5c_strEv
FN:173,_ZNSs4_Rep12_S_empty_repEv
FN:1632,_ZNKSs13get_allocatorEv
FN:253,_ZNSs12_Alloc_hiderD1Ev
FN:224,_ZNSs4_Rep10_M_disposeERKSaIcE
FN:497,_ZNSsD1Ev
FN:2164,_ZStplIcSt11char_traitsIcESaIcEESbIT_T0_T1_ERKS6_S8_
FNDA:0,_ZNSs4_Rep12_S_empty_repEv
FNDA:0,_ZNSs4_Rep10_M_disposeERKSaIcE
FNDA:0,_ZNSs12_Alloc_hiderD1Ev
FNDA:0,_ZNKSs7_M_dataEv
FNDA:0,_ZNKSs6_M_repEv
FNDA:0,_ZNSsD1Ev
FNDA:0,_ZNKSs5c_strEv
FNDA:0,_ZNKSs13get_allocatorEv
FNDA:0,_ZStplIcSt11char_traitsIcESaIcEESbIT_T0_T1_ERKS6_S8_
FNF:9
FNH:0
DA:173,0
DA:178,0
DA:179,0
DA:224,0
DA:227,0
DA:229,0
DA:231,0
DA:232,0
DA:253,0
DA:272,0
DA:273,0
DA:280,0
DA:281,0
DA:497,0
DA:498,0
DA:1615,0
DA:1616,0
DA:1632,0
DA:1633,0
DA:2164,0
DA:2167,0
DA:2168,0
DA:2169,0
BA:227,0
BA:227,0
BA:229,0
BA:229,0
LF:23
LH:0
end_of_record
SF:/usr/include/c++/4.4/bits/char_traits.h
FN:262,_ZNSt11char_traitsIcE6lengthEPKc
FNDA:0,_ZNSt11char_traitsIcE6lengthEPKc
FNF:1
FNH:0
DA:262,0
DA:263,0
LF:2
LH:0
end_of_record
SF:/usr/include/c++/4.4/bits/ios_base.h
FN:128,_ZStorSt13_Ios_OpenmodeS_
FN:162,_ZStanSt12_Ios_IostateS_
FN:166,_ZStorSt12_Ios_IostateS_
FNDA:0,_ZStorSt13_Ios_OpenmodeS_
FNDA:0,_ZStanSt12_Ios_IostateS_
FNDA:0,_ZStorSt12_Ios_IostateS_
FNF:3
FNH:0
DA:128,0
DA:129,0
DA:162,0
DA:163,0
DA:166,0
DA:167,0
LF:6
LH:0
end_of_record
SF:/usr/include/c++/4.4/bits/locale_facets.h
FN:865,_ZNKSt5ctypeIcE5widenEc
FNDA:0,_ZNKSt5ctypeIcE5widenEc
FNF:1
FNH:0
DA:865,0
DA:867,0
DA:868,0
DA:869,0
DA:870,0
BA:867,0
BA:867,0
LF:5
LH:0
end_of_record
SF:/usr/include/c++/4.4/exception
FN:60,_ZNSt9exceptionC2ERKS_
FNDA:0,_ZNSt9exceptionC2ERKS_
FNF:1
FNH:0
DA:60,0
LF:1
LH:0
end_of_record
SF:/usr/include/c++/4.4/ext/atomicity.h
FN:62,_ZN9__gnu_cxxL25__exchange_and_add_singleEPii
FN:45,_ZN9__gnu_cxxL18__exchange_and_addEPVii
FN:75,_ZN9__gnu_cxxL27__exchange_and_add_dispatchEPii
FNDA:0,_ZN9__gnu_cxxL18__exchange_and_addEPVii
FNDA:0,_ZN9__gnu_cxxL25__exchange_and_add_singleEPii
FNDA:0,_ZN9__gnu_cxxL27__exchange_and_add_dispatchEPii
FNF:3
FNH:0
DA:45,0
DA:46,0
DA:62,0
DA:64,0
DA:65,0
DA:66,0
DA:75,0
DA:78,0
DA:79,0
DA:81,0
BA:78,0
BA:78,0
LF:10
LH:0
end_of_record
SF:/usr/include/c++/4.4/ext/new_allocator.h
FN:66,_ZN9__gnu_cxx13new_allocatorIcEC2Ev
FN:73,_ZN9__gnu_cxx13new_allocatorIcED2Ev
FN:68,_ZN9__gnu_cxx13new_allocatorIcEC2ERKS1_
FNDA:0,_ZN9__gnu_cxx13new_allocatorIcEC2Ev
FNDA:0,_ZN9__gnu_cxx13new_allocatorIcEC2ERKS1_
FNDA:0,_ZN9__gnu_cxx13new_allocatorIcED2Ev
FNF:3
FNH:0
DA:66,0
DA:68,0
DA:73,0
LF:3
LH:0
end_of_record
SF:/usr/include/c++/4.4/fstream
FN:214,_ZNSt13basic_filebufIcSt11char_traitsIcEED1Ev
FN:440,_ZNSt14basic_ifstreamIcSt11char_traitsIcEEC1Ev
FN:485,_ZNSt14basic_ifstreamIcSt11char_traitsIcEED1Ev
FN:563,_ZNSt14basic_ifstreamIcSt11char_traitsIcEE5closeEv
FN:525,_ZNSt14basic_ifstreamIcSt11char_traitsIcEE4openEPKcSt13_Ios_Openmode
FNDA:0,_ZNSt13basic_filebufIcSt11char_traitsIcEED1Ev
FNDA:0,_ZNSt14basic_ifstreamIcSt11char_traitsIcEEC1Ev
FNDA:0,_ZNSt14basic_ifstreamIcSt11char_traitsIcEED1Ev
FNDA:0,_ZNSt14basic_ifstreamIcSt11char_traitsIcEE4openEPKcSt13_Ios_Openmode
FNDA:0,_ZNSt14basic_ifstreamIcSt11char_traitsIcEE5closeEv
FNF:5
FNH:0
DA:214,0
DA:215,0
DA:440,0
DA:441,0
DA:485,0
DA:486,0
DA:525,0
DA:527,0
DA:528,0
DA:532,0
DA:533,0
DA:563,0
DA:565,0
DA:566,0
DA:567,0
BA:215,0
BA:215,0
BA:486,0
BA:486,0
BA:486,0
BA:486,0
BA:486,0
BA:486,0
BA:527,0
BA:527,0
BA:565,0
BA:565,0
LF:15
LH:0
end_of_record
SF:/usr/include/c++/4.4/i486-linux-gnu/bits/gthr-default.h
FN:238,_ZL18__gthread_active_pv
FNDA:0,_ZL18__gthread_active_pv
FNF:1
FNH:0
DA:238,0
DA:242,0
LF:2
LH:0
end_of_record
SF:/usr/include/c++/4.4/iostream
DA:72,17
LF:1
LH:1
end_of_record
SF:/usr/include/c++/4.4/istream
FN:581,_ZNSiC2Ev
FN:101,_ZNSiD2Ev
FNDA:0,_ZNSiD2Ev
FNDA:0,_ZNSiC2Ev
FNF:2
FNH:0
DA:101,0
DA:102,0
DA:581,0
DA:582,0
DA:583,0
BA:102,0
BA:102,0
BA:102,0
BA:102,0
LF:5
LH:0
end_of_record
SF:/usr/include/c++/4.4/ostream
FN:108,_ZNSolsEPFRSoS_E
FN:505,_ZStlsISt11char_traitsIcEERSt13basic_ostreamIcT_ES5_PKc
FN:559,_ZSt5flushIcSt11char_traitsIcEERSt13basic_ostreamIT_T0_ES6_
FN:538,_ZSt4endlIcSt11char_traitsIcEERSt13basic_ostreamIT_T0_ES6_
FNDA:0,_ZNSolsEPFRSoS_E
FNDA:0,_ZStlsISt11char_traitsIcEERSt13basic_ostreamIcT_ES5_PKc
FNDA:0,_ZSt4endlIcSt11char_traitsIcEERSt13basic_ostreamIT_T0_ES6_
FNDA:0,_ZSt5flushIcSt11char_traitsIcEERSt13basic_ostreamIT_T0_ES6_
FNF:4
FNH:0
DA:108,0
DA:113,0
DA:505,0
DA:507,0
DA:508,0
DA:510,0
DA:512,0
DA:538,0
DA:539,0
DA:559,0
DA:560,0
BA:507,0
BA:507,0
LF:11
LH:0
end_of_record
SF:/usr/include/c++/4.4/stdexcept
FN:108,_ZNSt13runtime_errorC2ERKS_
FNDA:0,_ZNSt13runtime_errorC2ERKS_
FNF:1
FNH:0
DA:108,0
LF:1
LH:0
end_of_record
SF:/usr/include/c++/4.4/streambuf
FN:192,_ZNSt15basic_streambufIcSt11char_traitsIcEED2Ev
FNDA:0,_ZNSt15basic_streambufIcSt11char_traitsIcEED2Ev
FNF:1
FNH:0
DA:192,0
DA:193,0
BA:193,0
BA:193,0
LF:2
LH:0
end_of_record
SF:/usr/include/glibmm-2.4/glibmm/refptr.h
FN:181,_ZN4Glib6RefPtrIN3Gtk7BuilderEED1Ev
FN:169,_ZNK4Glib6RefPtrIN3Gtk7BuilderEEptEv
FN:188,_ZN4Glib6RefPtrIN3Gtk7BuilderEEC1EPS2_
FNDA:0,_ZNK4Glib6RefPtrIN3Gtk7BuilderEEptEv
FNDA:0,_ZN4Glib6RefPtrIN3Gtk7BuilderEED1Ev
FNDA:0,_ZN4Glib6RefPtrIN3Gtk7BuilderEEC1EPS2_
FNF:3
FNH:0
DA:169,0
DA:171,0
DA:181,0
DA:183,0
DA:184,0
DA:185,0
DA:188,0
DA:190,0
DA:191,0
BA:183,0
BA:183,0
LF:9
LH:0
end_of_record
SF:/usr/include/gtkmm-2.4/gtkmm/builder.h
FN:518,_ZN3Gtk7Builder18get_widget_derivedI10MainWindowEEvRKN4Glib7ustringERPT_
FNDA:0,_ZN3Gtk7Builder18get_widget_derivedI10MainWindowEEvRKN4Glib7ustringERPT_
FNF:1
FNH:0
DA:518,0
DA:521,0
DA:525,0
DA:528,0
DA:529,0
DA:532,0
DA:535,0
DA:537,0
DA:543,0
DA:544,0
DA:551,0
DA:552,0
DA:553,0
DA:554,0
BA:528,0
BA:528,0
BA:535,0
BA:535,0
BA:537,0
BA:537,0
BA:543,0
BA:543,0
LF:14
LH:0
end_of_record
SF:/usr/include/gtkmm-2.4/gtkmm/papersize.h
DA:37,17
DA:38,17
DA:39,17
DA:40,17
DA:41,17
DA:42,17
DA:43,17
LF:7
LH:7
end_of_record
SF:/home/frechilla/workspace/headless/blockem_sourceforge/src/coordinate.h
FN:49,_ZN10CoordinateC1Ev
FN:53,_ZN10CoordinateC1Eii
FN:57,_ZN10CoordinateD0Ev
FN:57,_ZN10CoordinateD1Ev
FNDA:0,_ZN10CoordinateC1Ev
FNDA:0,_ZN10CoordinateC1Eii
FNDA:0,_ZN10CoordinateD0Ev
FNDA:0,_ZN10CoordinateD1Ev
FNF:4
FNH:0
DA:49,0
DA:51,0
DA:52,0
DA:53,0
DA:55,0
DA:56,0
DA:57,0
DA:58,0
BA:58,0
BA:58,0
BA:58,0
BA:58,0
LF:8
LH:0
end_of_record
SF:/home/frechilla/workspace/headless/blockem_sourceforge/src/game1v1.h
DA:53,17
DA:56,17
LF:2
LH:2
end_of_record
SF:/home/frechilla/workspace/headless/blockem_sourceforge/src/gui_exception.h
FN:47,_ZNK12GUIException4whatEv
FN:39,_ZN12GUIExceptionC1ERKSs
FN:44,_ZN12GUIExceptionD0Ev
FN:44,_ZN12GUIExceptionD1Ev
FN:37,_ZN12GUIExceptionC1ERKS_
FNDA:0,_ZN12GUIExceptionC1ERKS_
FNDA:0,_ZN12GUIExceptionC1ERKSs
FNDA:0,_ZN12GUIExceptionD0Ev
FNDA:0,_ZN12GUIExceptionD1Ev
FNDA:0,_ZNK12GUIException4whatEv
FNF:5
FNH:0
DA:37,0
DA:39,0
DA:41,0
DA:42,0
DA:44,0
DA:45,0
DA:47,0
DA:48,0
DA:49,0
BA:45,0
BA:45,0
BA:45,0
BA:45,0
LF:9
LH:0
end_of_record
SF:/home/frechilla/workspace/headless/blockem_sourceforge/src/gui_glade_defs.h
DA:97,17
DA:98,34
DA:99,34
DA:100,34
LF:4
LH:4
end_of_record
SF:/home/frechilla/workspace/headless/blockem_sourceforge/src/main.cpp
FN:324,_Z41__static_initialization_and_destruction_0ii
FN:324,_GLOBAL__I_main
FN:98,main
FNDA:17,main
FNDA:17,_Z41__static_initialization_and_destruction_0ii
FNDA:17,_GLOBAL__I_main
FNF:3
FNH:3
DA:98,17
DA:100,17
DA:103,17
DA:106,17
DA:108,17
DA:109,17
DA:111,0
DA:112,0
DA:113,0
DA:116,17
DA:118,0
DA:119,0
DA:120,0
DA:122,0
DA:124,0
DA:127,17
DA:129,17
DA:131,2
DA:132,2
DA:135,15
DA:137,0
DA:138,0
DA:142,15
DA:145,15
DA:147,0
DA:150,15
DA:154,15
DA:158,15
DA:160,15
DA:161,15
DA:163,0
DA:164,0
DA:167,15
DA:168,15
DA:170,0
DA:171,0
DA:173,0
DA:176,15
DA:178,15
DA:190,15
DA:191,15
DA:193,15
DA:201,15
DA:203,15
DA:205,15
DA:207,0
DA:208,0
DA:209,0
DA:210,0
DA:217,15
DA:220,15
DA:225,15
DA:232,0
DA:235,0
DA:237,0
DA:249,0
DA:250,0
DA:251,0
DA:255,0
DA:258,0
DA:265,0
DA:269,0
DA:270,0
DA:275,0
DA:277,0
DA:278,0
DA:280,0
DA:282,0
DA:283,0
DA:288,0
DA:293,0
DA:296,0
DA:297,0
DA:299,0
DA:307,0
DA:309,0
DA:311,0
DA:312,0
DA:315,0
DA:317,0
DA:323,0
DA:324,51
BA:109,1
BA:109,2
BA:116,1
BA:116,2
BA:127,2
BA:127,1
BA:129,2
BA:129,2
BA:135,1
BA:135,2
BA:145,1
BA:145,2
BA:161,1
BA:161,2
BA:168,1
BA:168,2
BA:205,1
BA:205,2
BA:235,0
BA:235,0
BA:265,0
BA:265,0
BA:297,0
BA:297,0
BA:315,0
BA:315,0
BA:317,0
BA:317,0
BA:324,2
BA:324,1
BA:324,2
BA:324,1
LF:82
LH:33
end_of_record
SF:/home/frechilla/workspace/headless/blockem_sourceforge/src/piece.h
FN:152,_ZNK5Piece7GetTypeEv
FNDA:0,_ZNK5Piece7GetTypeEv
FNF:1
FNH:0
DA:152,0
DA:154,0
LF:2
LH:0
end_of_record
SF:/home/frechilla/workspace/headless/blockem_sourceforge/src/singleton.h
FN:39,_ZN9SingletonI13Game1v1ConfigE8InstanceEv
FNDA:0,_ZN9SingletonI13Game1v1ConfigE8InstanceEv
FNF:1
FNH:0
DA:39,0
DA:41,0
DA:43,0
DA:44,0
DA:47,0
BA:41,0
BA:41,0
BA:43,0
BA:43,0
BA:43,0
BA:43,0
BA:43,0
BA:43,0
LF:5
LH:0
end_of_record
TN:
SF:/usr/include/c++/4.4/bits/allocator.h
FN:167,_ZNSt11__alloc_neqISaISt10_List_nodeISt6vectorI10CoordinateSaIS2_EEEELb1EE8_S_do_itERKS6_S9_
FN:167,_ZNSt11__alloc_neqISaISt10_List_nodeIyEELb1EE8_S_do_itERKS2_S5_
FN:101,_ZNSaIcEC1Ev
FN:109,_ZNSaIcED1Ev
FN:103,_ZNSaIcEC1ERKS_
FN:109,_ZNSaIcED2Ev
FN:107,_ZNSaIN4sigc9slot_baseEEC1ISt10_List_nodeIS0_EEERKSaIT_E
FN:109,_ZNSaIN4sigc9slot_baseEED1Ev
FN:109,_ZNSaISt10_List_nodeIN4sigc9slot_baseEEED2Ev
FN:107,_ZNSaISt6vectorI10CoordinateSaIS0_EEEC1ISt10_List_nodeIS2_EEERKSaIT_E
FN:109,_ZNSaI10CoordinateED2Ev
FN:109,_ZNSaISt6vectorI10CoordinateSaIS0_EEED1Ev
FN:107,_ZNSaISt10_List_nodeISt6vectorI10CoordinateSaIS1_EEEEC1IS3_EERKSaIT_E
FN:103,_ZNSaISt10_List_nodeISt6vectorI10CoordinateSaIS1_EEEEC2ERKS5_
FN:109,_ZNSaISt10_List_nodeISt6vectorI10CoordinateSaIS1_EEEED1Ev
FN:109,_ZNSaISt10_List_nodeISt6vectorI10CoordinateSaIS1_EEEED2Ev
FN:103,_ZNSaI10CoordinateEC2ERKS0_
FN:107,_ZNSaIyEC1ISt10_List_nodeIyEEERKSaIT_E
FN:109,_ZNSaIyED1Ev
FN:107,_ZNSaISt10_List_nodeIyEEC1IyEERKSaIT_E
FN:103,_ZNSaISt10_List_nodeIyEEC2ERKS1_
FN:109,_ZNSaISt10_List_nodeIyEED1Ev
FN:109,_ZNSaISt10_List_nodeIyEED2Ev
FNDA:0,_ZNSaIcEC1Ev
FNDA:0,_ZNSaIcEC1ERKS_
FNDA:0,_ZNSaISt10_List_nodeISt6vectorI10CoordinateSaIS1_EEEEC2ERKS5_
FNDA:0,_ZNSaI10CoordinateEC2ERKS0_
FNDA:0,_ZNSaISt10_List_nodeIyEEC2ERKS1_
FNDA:0,_ZNSaIN4sigc9slot_baseEEC1ISt10_List_nodeIS0_EEERKSaIT_E
FNDA:0,_ZNSaISt6vectorI10CoordinateSaIS0_EEEC1ISt10_List_nodeIS2_EEERKSaIT_E
FNDA:0,_ZNSaISt10_List_nodeISt6vectorI10CoordinateSaIS1_EEEEC1IS3_EERKSaIT_E
FNDA:0,_ZNSaIyEC1ISt10_List_nodeIyEEERKSaIT_E
FNDA:0,_ZNSaISt10_List_nodeIyEEC1IyEERKSaIT_E
FNDA:0,_ZNSaIcED1Ev
FNDA:0,_ZNSaIcED2Ev
FNDA:0,_ZNSaIN4sigc9slot_baseEED1Ev
FNDA:0,_ZNSaISt10_List_nodeIN4sigc9slot_baseEEED2Ev
FNDA:0,_ZNSaI10CoordinateED2Ev
FNDA:0,_ZNSaISt6vectorI10CoordinateSaIS0_EEED1Ev
FNDA:0,_ZNSaISt10_List_nodeISt6vectorI10CoordinateSaIS1_EEEED1Ev
FNDA:0,_ZNSaISt10_List_nodeISt6vectorI10CoordinateSaIS1_EEEED2Ev
FNDA:0,_ZNSaIyED1Ev
FNDA:0,_ZNSaISt10_List_nodeIyEED1Ev
FNDA:0,_ZNSaISt10_List_nodeIyEED2Ev
FNDA:0,_ZNSt11__alloc_neqISaISt10_List_nodeISt6vectorI10CoordinateSaIS2_EEEELb1EE8_S_do_itERKS6_S9_
FNDA:0,_ZNSt11__alloc_neqISaISt10_List_nodeIyEELb1EE8_S_do_itERKS2_S5_
FNF:23
FNH:0
DA:101,0
DA:103,0
DA:104,0
DA:107,0
DA:109,0
DA:167,0
DA:168,0
LF:7
LH:0
end_of_record
SF:/usr/include/c++/4.4/bits/basic_string.h
FN:272,_ZNKSs7_M_dataEv
FN:280,_ZNKSs6_M_repEv
FN:1615,_ZNKSs5c_strEv
FN:173,_ZNSs4_Rep12_S_empty_repEv
FN:1632,_ZNKSs13get_allocatorEv
FN:253,_ZNSs12_Alloc_hiderD1Ev
FN:224,_ZNSs4_Rep10_M_disposeERKSaIcE
FN:497,_ZNSsD1Ev
FN:2164,_ZStplIcSt11char_traitsIcESaIcEESbIT_T0_T1_ERKS6_S8_
FNDA:0,_ZNSs4_Rep12_S_empty_repEv
FNDA:0,_ZNSs4_Rep10_M_disposeERKSaIcE
FNDA:0,_ZNSs12_Alloc_hiderD1Ev
FNDA:0,_ZNKSs7_M_dataEv
FNDA:0,_ZNKSs6_M_repEv
FNDA:0,_ZNSsD1Ev
FNDA:0,_ZNKSs5c_strEv
FNDA:0,_ZNKSs13get_allocatorEv
FNDA:0,_ZStplIcSt11char_traitsIcESaIcEESbIT_T0_T1_ERKS6_S8_
FNF:9
FNH:0
DA:173,0
DA:178,0
DA:179,0
DA:224,0
DA:227,0
DA:229,0
DA:231,0
DA:232,0
DA:253,0
DA:272,0
DA:273,0
DA:280,0
DA:281,0
DA:497,0
DA:498,0
DA:1615,0
DA:1616,0
DA:1632,0
DA:1633,0
DA:2164,0
DA:2167,0
DA:2168,0
DA:2169,0
BA:227,0
BA:227,0
BA:229,0
BA:229,0
LF:23
LH:0
end_of_record
SF:/usr/include/c++/4.4/bits/list.tcc
FN:97,_ZNSt4listIN4sigc9slot_baseESaIS1_EE6insertESt14_List_iteratorIS1_ERKS1_
FN:64,_ZNSt10_List_baseIN4sigc9slot_baseESaIS1_EE8_M_clearEv
FN:64,_ZNSt10_List_baseISt6vectorI10CoordinateSaIS1_EESaIS3_EE8_M_clearEv
FN:64,_ZNSt10_List_baseIySaIyEE8_M_clearEv
FN:107,_ZNSt4listIN4sigc9slot_baseESaIS1_EE5eraseESt14_List_iteratorIS1_E
FN:107,_ZNSt4listISt6vectorI10CoordinateSaIS1_EESaIS3_EE5eraseESt14_List_iteratorIS3_E
FN:107,_ZNSt4listIySaIyEE5eraseESt14_List_iteratorIyE
FN:132,_ZNSt4listISt6vectorI10CoordinateSaIS1_EESaIS3_EEaSERKS5_
FN:132,_ZNSt4listIySaIyEEaSERKS1_
FNDA:0,_ZNSt10_List_baseIN4sigc9slot_baseESaIS1_EE8_M_clearEv
FNDA:0,_ZNSt10_List_baseISt6vectorI10CoordinateSaIS1_EESaIS3_EE8_M_clearEv
FNDA:0,_ZNSt10_List_baseIySaIyEE8_M_clearEv
FNDA:0,_ZNSt4listIN4sigc9slot_baseESaIS1_EE6insertESt14_List_iteratorIS1_ERKS1_
FNDA:0,_ZNSt4listIN4sigc9slot_baseESaIS1_EE5eraseESt14_List_iteratorIS1_E
FNDA:0,_ZNSt4listISt6vectorI10CoordinateSaIS1_EESaIS3_EE5eraseESt14_List_iteratorIS3_E
FNDA:0,_ZNSt4listIySaIyEE5eraseESt14_List_iteratorIyE
FNDA:0,_ZNSt4listISt6vectorI10CoordinateSaIS1_EESaIS3_EEaSERKS5_
FNDA:0,_ZNSt4listIySaIyEEaSERKS1_
FNF:9
FNH:0
DA:64,0
DA:68,0
DA:69,0
DA:71,0
DA:72,0
DA:76,0
DA:78,0
DA:80,0
DA:97,0
DA:100,0
DA:101,0
DA:102,0
DA:107,0
DA:110,0
DA:111,0
DA:132,0
DA:135,0
DA:137,0
DA:138,0
DA:139,0
DA:140,0
DA:141,0
DA:143,0
DA:144,0
DA:145,0
DA:147,0
DA:149,0
BA:69,0
BA:69,0
BA:69,0
BA:69,0
BA:69,0
BA:69,0
BA:135,0
BA:135,0
BA:135,0
BA:135,0
BA:141,0
BA:141,0
BA:141,0
BA:141,0
BA:141,0
BA:141,0
BA:141,0
BA:141,0
BA:141,0
BA:141,0
BA:141,0
BA:141,0
BA:144,0
BA:144,0
BA:144,0
BA:144,0
LF:27
LH:0
end_of_record
SF:/usr/include/c++/4.4/bits/stl_algobase.h
FN:186,_ZSt3minIiERKT_S2_S2_
FN:287,_ZNSt12__miter_baseIN9__gnu_cxx17__normal_iteratorIPK10CoordinateSt6vectorIS2_SaIS2_EEEELb0EE3__bES8_
FN:287,_ZNSt12__miter_baseIP10CoordinateLb0EE3__bES1_
FN:269,_ZNSt12__niter_baseIP10CoordinateLb0EE3__bES1_
FN:277,_ZNSt12__niter_baseIN9__gnu_cxx17__normal_iteratorIPK10CoordinateSt6vectorIS2_SaIS2_EEEELb1EE3__bES8_
FN:277,_ZNSt12__niter_baseIN9__gnu_cxx17__normal_iteratorIP10CoordinateSt6vectorIS2_SaIS2_EEEELb1EE3__bES7_
FN:338,_ZNSt11__copy_moveILb0ELb0ESt26random_access_iterator_tagE8__copy_mIPK10CoordinatePS3_EET0_T_S8_S7_
FN:386,_ZSt13__copy_move_aILb0EPK10CoordinatePS0_ET1_T0_S5_S4_
FN:431,_ZSt14__copy_move_a2ILb0EN9__gnu_cxx17__normal_iteratorIPK10CoordinateSt6vectorIS2_SaIS2_EEEENS1_IPS2_S7_EEET1_T0_SC_SB_
FN:458,_ZSt4copyIN9__gnu_cxx17__normal_iteratorIPK10CoordinateSt6vectorIS2_SaIS2_EEEENS1_IPS2_S7_EEET0_T_SC_SB_
FN:338,_ZNSt11__copy_moveILb0ELb0ESt26random_access_iterator_tagE8__copy_mIP10CoordinateS4_EET0_T_S6_S5_
FN:386,_ZSt13__copy_move_aILb0EP10CoordinateS1_ET1_T0_S3_S2_
FN:431,_ZSt14__copy_move_a2ILb0EP10CoordinateS1_ET1_T0_S3_S2_
FN:458,_ZSt4copyIP10CoordinateS1_ET0_T_S3_S2_
FNDA:0,_ZSt3minIiERKT_S2_S2_
FNDA:0,_ZNSt12__niter_baseIP10CoordinateLb0EE3__bES1_
FNDA:0,_ZNSt12__niter_baseIN9__gnu_cxx17__normal_iteratorIPK10CoordinateSt6vectorIS2_SaIS2_EEEELb1EE3__bES8_
FNDA:0,_ZNSt12__niter_baseIN9__gnu_cxx17__normal_iteratorIP10CoordinateSt6vectorIS2_SaIS2_EEEELb1EE3__bES7_
FNDA:0,_ZNSt12__miter_baseIN9__gnu_cxx17__normal_iteratorIPK10CoordinateSt6vectorIS2_SaIS2_EEEELb0EE3__bES8_
FNDA:0,_ZNSt12__miter_baseIP10CoordinateLb0EE3__bES1_
FNDA:0,_ZNSt11__copy_moveILb0ELb0ESt26random_access_iterator_tagE8__copy_mIPK10CoordinatePS3_EET0_T_S8_S7_
FNDA:0,_ZNSt11__copy_moveILb0ELb0ESt26random_access_iterator_tagE8__copy_mIP10CoordinateS4_EET0_T_S6_S5_
FNDA:0,_ZSt13__copy_move_aILb0EPK10CoordinatePS0_ET1_T0_S5_S4_
FNDA:0,_ZSt13__copy_move_aILb0EP10CoordinateS1_ET1_T0_S3_S2_
FNDA:0,_ZSt14__copy_move_a2ILb0EN9__gnu_cxx17__normal_iteratorIPK10CoordinateSt6vectorIS2_SaIS2_EEEENS1_IPS2_S7_EEET1_T0_SC_SB_
FNDA:0,_ZSt14__copy_move_a2ILb0EP10CoordinateS1_ET1_T0_S3_S2_
FNDA:0,_ZSt4copyIN9__gnu_cxx17__normal_iteratorIPK10CoordinateSt6vectorIS2_SaIS2_EEEENS1_IPS2_S7_EEET0_T_SC_SB_
FNDA:0,_ZSt4copyIP10CoordinateS1_ET0_T_S3_S2_
FNF:14
FNH:0
DA:186,0
DA:191,0
DA:192,0
DA:193,0
DA:269,0
DA:270,0
DA:277,0
DA:278,0
DA:287,0
DA:288,0
DA:338,0
DA:341,0
DA:343,0
DA:344,0
DA:345,0
DA:347,0
DA:386,0
DA:394,0
DA:397,0
DA:431,0
DA:436,0
DA:458,0
DA:468,0
BA:191,0
BA:191,0
BA:341,0
BA:341,0
BA:341,0
BA:341,0
LF:23
LH:0
end_of_record
SF:/usr/include/c++/4.4/bits/stl_construct.h
FN:82,_ZSt8_DestroyI10CoordinateEvPT_
FN:90,_ZNSt12_Destroy_auxILb0EE9__destroyIP10CoordinateEEvT_S4_
FN:112,_ZSt8_DestroyIP10CoordinateEvT_S2_
FN:139,_ZSt8_DestroyIP10CoordinateS0_EvT_S2_RSaIT0_E
FN:90,_ZNSt12_Destroy_auxILb0EE9__destroyIN9__gnu_cxx17__normal_iteratorIP10CoordinateSt6vectorIS4_SaIS4_EEEEEEvT_SA_
FN:112,_ZSt8_DestroyIN9__gnu_cxx17__normal_iteratorIP10CoordinateSt6vectorIS2_SaIS2_EEEEEvT_S8_
FN:139,_ZSt8_DestroyIN9__gnu_cxx17__normal_iteratorIP10CoordinateSt6vectorIS2_SaIS2_EEEES2_EvT_S8_RSaIT0_E
FNDA:0,_ZSt8_DestroyI10CoordinateEvPT_
FNDA:0,_ZNSt12_Destroy_auxILb0EE9__destroyIP10CoordinateEEvT_S4_
FNDA:0,_ZNSt12_Destroy_auxILb0EE9__destroyIN9__gnu_cxx17__normal_iteratorIP10CoordinateSt6vectorIS4_SaIS4_EEEEEEvT_SA_
FNDA:0,_ZSt8_DestroyIP10CoordinateEvT_S2_
FNDA:0,_ZSt8_DestroyIN9__gnu_cxx17__normal_iteratorIP10CoordinateSt6vectorIS2_SaIS2_EEEEEvT_S8_
FNDA:0,_ZSt8_DestroyIP10CoordinateS0_EvT_S2_RSaIT0_E
FNDA:0,_ZSt8_DestroyIN9__gnu_cxx17__normal_iteratorIP10CoordinateSt6vectorIS2_SaIS2_EEEES2_EvT_S8_RSaIT0_E
FNF:7
FNH:0
DA:82,0
DA:83,0
DA:90,0
DA:92,0
DA:93,0
DA:94,0
DA:112,0
DA:116,0
DA:118,0
DA:139,0
DA:142,0
DA:143,0
BA:92,0
BA:92,0
BA:92,0
BA:92,0
LF:12
LH:0
end_of_record
SF:/usr/include/c++/4.4/bits/stl_iterator.h
FN:686,_ZN9__gnu_cxx17__normal_iteratorIPK10CoordinateSt6vectorIS1_SaIS1_EEEC1ERKS3_
FN:686,_ZN9__gnu_cxx17__normal_iteratorIP10CoordinateSt6vectorIS1_SaIS1_EEEC1ERKS2_
FN:750,_ZNK9__gnu_cxx17__normal_iteratorIPK10CoordinateSt6vectorIS1_SaIS1_EEE4baseEv
FN:750,_ZNK9__gnu_cxx17__normal_iteratorIP10CoordinateSt6vectorIS1_SaIS1_EEE4baseEv
FN:783,_ZN9__gnu_cxxneIP10CoordinateSt6vectorIS1_SaIS1_EEEEbRKNS_17__normal_iteratorIT_T0_EESB_
FN:706,_ZN9__gnu_cxx17__normal_iteratorIP10CoordinateSt6vectorIS1_SaIS1_EEEppEv
FN:698,_ZNK9__gnu_cxx17__normal_iteratorIP10CoordinateSt6vectorIS1_SaIS1_EEEdeEv
FN:783,_ZN9__gnu_cxxneIPK10CoordinateSt6vectorIS1_SaIS1_EEEEbRKNS_17__normal_iteratorIT_T0_EESC_
FN:706,_ZN9__gnu_cxx17__normal_iteratorIPK10CoordinateSt6vectorIS1_SaIS1_EEEppEv
FN:698,_ZNK9__gnu_cxx17__normal_iteratorIPK10CoordinateSt6vectorIS1_SaIS1_EEEdeEv
FNDA:0,_ZN9__gnu_cxx17__normal_iteratorIPK10CoordinateSt6vectorIS1_SaIS1_EEEC1ERKS3_
FNDA:0,_ZN9__gnu_cxx17__normal_iteratorIP10CoordinateSt6vectorIS1_SaIS1_EEEC1ERKS2_
FNDA:0,_ZNK9__gnu_cxx17__normal_iteratorIP10CoordinateSt6vectorIS1_SaIS1_EEEdeEv
FNDA:0,_ZNK9__gnu_cxx17__normal_iteratorIPK10CoordinateSt6vectorIS1_SaIS1_EEEdeEv
FNDA:0,_ZN9__gnu_cxx17__normal_iteratorIP10CoordinateSt6vectorIS1_SaIS1_EEEppEv
FNDA:0,_ZN9__gnu_cxx17__normal_iteratorIPK10CoordinateSt6vectorIS1_SaIS1_EEEppEv
FNDA:0,_ZNK9__gnu_cxx17__normal_iteratorIPK10CoordinateSt6vectorIS1_SaIS1_EEE4baseEv
FNDA:0,_ZNK9__gnu_cxx17__normal_iteratorIP10CoordinateSt6vectorIS1_SaIS1_EEE4baseEv
FNDA:0,_ZN9__gnu_cxxneIP10CoordinateSt6vectorIS1_SaIS1_EEEEbRKNS_17__normal_iteratorIT_T0_EESB_
FNDA:0,_ZN9__gnu_cxxneIPK10CoordinateSt6vectorIS1_SaIS1_EEEEbRKNS_17__normal_iteratorIT_T0_EESC_
FNF:10
FNH:0
DA:686,0
DA:698,0
DA:699,0
DA:706,0
DA:708,0
DA:709,0
DA:750,0
DA:751,0
DA:783,0
DA:785,0
LF:10
LH:0
end_of_record
SF:/usr/include/c++/4.4/bits/stl_list.h
FN:799,_ZNKSt4listIN4sigc9slot_baseESaIS1_EE5emptyEv
FN:124,_ZNSt14_List_iteratorIN4sigc9slot_baseEEC1Ev
FN:207,_ZNSt20_List_const_iteratorIN4sigc9slot_baseEEC1ERKSt14_List_iteratorIS1_E
FN:255,_ZNKSt20_List_const_iteratorIN4sigc9slot_baseEEneERKS2_
FN:221,_ZNSt20_List_const_iteratorIN4sigc9slot_baseEEppEv
FN:217,_ZNKSt20_List_const_iteratorIN4sigc9slot_baseEEptEv
FN:128,_ZNSt14_List_iteratorIN4sigc9slot_baseEEC1EPSt15_List_node_base
FN:707,_ZNSt4listIN4sigc9slot_baseESaIS1_EE3endEv
FN:689,_ZNSt4listIN4sigc9slot_baseESaIS1_EE5beginEv
FN:255,_ZNKSt20_List_const_iteratorISt6vectorI10CoordinateSaIS1_EEEneERKS4_
FN:175,_ZNKSt14_List_iteratorISt6vectorI10CoordinateSaIS1_EEEneERKS4_
FN:221,_ZNSt20_List_const_iteratorISt6vectorI10CoordinateSaIS1_EEEppEv
FN:141,_ZNSt14_List_iteratorISt6vectorI10CoordinateSaIS1_EEEppEv
FN:213,_ZNKSt20_List_const_iteratorISt6vectorI10CoordinateSaIS1_EEEdeEv
FN:133,_ZNKSt14_List_iteratorISt6vectorI10CoordinateSaIS1_EEEdeEv
FN:251,_ZNKSt20_List_const_iteratorISt6vectorI10CoordinateSaIS1_EEEeqERKS4_
FN:255,_ZNKSt20_List_const_iteratorIyEneERKS0_
FN:175,_ZNKSt14_List_iteratorIyEneERKS0_
FN:221,_ZNSt20_List_const_iteratorIyEppEv
FN:141,_ZNSt14_List_iteratorIyEppEv
FN:213,_ZNKSt20_List_const_iteratorIyEdeEv
FN:133,_ZNKSt14_List_iteratorIyEdeEv
FN:251,_ZNKSt20_List_const_iteratorIyEeqERKS0_
FN:128,_ZNSt14_List_iteratorISt6vectorI10CoordinateSaIS1_EEEC1EPSt15_List_node_base
FN:689,_ZNSt4listISt6vectorI10CoordinateSaIS1_EESaIS3_EE5beginEv
FN:707,_ZNSt4listISt6vectorI10CoordinateSaIS1_EESaIS3_EE3endEv
FN:204,_ZNSt20_List_const_iteratorISt6vectorI10CoordinateSaIS1_EEEC1EPKSt15_List_node_base
FN:698,_ZNKSt4listISt6vectorI10CoordinateSaIS1_EESaIS3_EE5beginEv
FN:716,_ZNKSt4listISt6vectorI10CoordinateSaIS1_EESaIS3_EE3endEv
FN:326,_ZNSt10_List_baseISt6vectorI10CoordinateSaIS1_EESaIS3_EE21_M_get_Node_allocatorEv
FN:128,_ZNSt14_List_iteratorIyEC1EPSt15_List_node_base
FN:689,_ZNSt4listIySaIyEE5beginEv
FN:707,_ZNSt4listIySaIyEE3endEv
FN:204,_ZNSt20_List_const_iteratorIyEC1EPKSt15_List_node_base
FN:698,_ZNKSt4listIySaIyEE5beginEv
FN:716,_ZNKSt4listIySaIyEE3endEv
FN:326,_ZNSt10_List_baseIySaIyEE21_M_get_Node_allocatorEv
FN:330,_ZNKSt10_List_baseIN4sigc9slot_baseESaIS1_EE21_M_get_Node_allocatorEv
FN:799,_ZNKSt4listISt6vectorI10CoordinateSaIS1_EESaIS3_EE5emptyEv
FN:799,_ZNKSt4listIySaIyEE5emptyEv
FN:366,_ZNSt10_List_baseISt6vectorI10CoordinateSaIS1_EESaIS3_EE7_M_initEv
FN:366,_ZNSt10_List_baseIySaIyEE7_M_initEv
FN:330,_ZNKSt10_List_baseISt6vectorI10CoordinateSaIS1_EESaIS3_EE21_M_get_Node_allocatorEv
FN:330,_ZNKSt10_List_baseIySaIyEE21_M_get_Node_allocatorEv
FN:334,_ZNKSt10_List_baseIN4sigc9slot_baseESaIS1_EE19_M_get_Tp_allocatorEv
FN:300,_ZNSt10_List_baseIN4sigc9slot_baseESaIS1_EE10_List_implD1Ev
FN:334,_ZNKSt10_List_baseISt6vectorI10CoordinateSaIS1_EESaIS3_EE19_M_get_Tp_allocatorEv
FN:307,_ZNSt10_List_baseISt6vectorI10CoordinateSaIS1_EESaIS3_EE10_List_implC1ERKSaISt10_List_nodeIS3_EE
FN:300,_ZNSt10_List_baseISt6vectorI10CoordinateSaIS1_EESaIS3_EE10_List_implD1Ev
FN:345,_ZNSt10_List_baseISt6vectorI10CoordinateSaIS1_EESaIS3_EEC2ERKS4_
FN:334,_ZNKSt10_List_baseIySaIyEE19_M_get_Tp_allocatorEv
FN:307,_ZNSt10_List_baseIySaIyEE10_List_implC1ERKSaISt10_List_nodeIyEE
FN:300,_ZNSt10_List_baseIySaIyEE10_List_implD1Ev
FN:345,_ZNSt10_List_baseIySaIyEEC2ERKS0_
FN:315,_ZNSt10_List_baseIN4sigc9slot_baseESaIS1_EE11_M_get_nodeEv
FN:315,_ZNSt10_List_baseISt6vectorI10CoordinateSaIS1_EESaIS3_EE11_M_get_nodeEv
FN:315,_ZNSt10_List_baseIySaIyEE11_M_get_nodeEv
FN:319,_ZNSt10_List_baseIN4sigc9slot_baseESaIS1_EE11_M_put_nodeEPSt10_List_nodeIS1_E
FN:459,_ZNSt4listIN4sigc9slot_baseESaIS1_EE14_M_create_nodeERKS1_
FN:359,_ZNSt10_List_baseIN4sigc9slot_baseESaIS1_EED2Ev
FN:418,_ZNSt4listIN4sigc9slot_baseESaIS1_EED1Ev
FN:319,_ZNSt10_List_baseISt6vectorI10CoordinateSaIS1_EESaIS3_EE11_M_put_nodeEPSt10_List_nodeIS3_E
FN:459,_ZNSt4listISt6vectorI10CoordinateSaIS1_EESaIS3_EE14_M_create_nodeERKS3_
FN:1405,_ZNSt4listISt6vectorI10CoordinateSaIS1_EESaIS3_EE9_M_insertESt14_List_iteratorIS3_ERKS3_
FN:919,_ZNSt4listISt6vectorI10CoordinateSaIS1_EESaIS3_EE9push_backERKS3_
FN:1357,_ZNSt4listISt6vectorI10CoordinateSaIS1_EESaIS3_EE22_M_initialize_dispatchISt20_List_const_iteratorIS3_EEEvT_S9_St12__false_type
FN:359,_ZNSt10_List_baseISt6vectorI10CoordinateSaIS1_EESaIS3_EED2Ev
FN:571,_ZNSt4listISt6vectorI10CoordinateSaIS1_EESaIS3_EEC1ISt20_List_const_iteratorIS3_EEET_S9_RKS4_
FN:418,_ZNSt4listISt6vectorI10CoordinateSaIS1_EESaIS3_EED1Ev
FN:319,_ZNSt10_List_baseIySaIyEE11_M_put_nodeEPSt10_List_nodeIyE
FN:459,_ZNSt4listIySaIyEE14_M_create_nodeERKy
FN:1405,_ZNSt4listIySaIyEE9_M_insertESt14_List_iteratorIyERKy
FN:919,_ZNSt4listIySaIyEE9push_backERKy
FN:1357,_ZNSt4listIySaIyEE22_M_initialize_dispatchISt20_List_const_iteratorIyEEEvT_S5_St12__false_type
FN:359,_ZNSt10_List_baseIySaIyEED2Ev
FN:571,_ZNSt4listIySaIyEEC1ISt20_List_const_iteratorIyEEET_S5_RKS0_
FN:418,_ZNSt4listIySaIyEED1Ev
FN:1422,_ZNSt4listIN4sigc9slot_baseESaIS1_EE8_M_eraseESt14_List_iteratorIS1_E
FN:1422,_ZNSt4listISt6vectorI10CoordinateSaIS1_EESaIS3_EE8_M_eraseESt14_List_iteratorIS3_E
FN:1092,_ZNSt4listISt6vectorI10CoordinateSaIS1_EESaIS3_EE5eraseESt14_List_iteratorIS3_ES7_
FN:1422,_ZNSt4listIySaIyEE8_M_eraseESt14_List_iteratorIyE
FN:1092,_ZNSt4listIySaIyEE5eraseESt14_List_iteratorIyES3_
FN:1436,_ZNSt4listISt6vectorI10CoordinateSaIS1_EESaIS3_EE25_M_check_equal_allocatorsERS5_
FN:1436,_ZNSt4listIySaIyEE25_M_check_equal_allocatorsERS1_
FN:1399,_ZNSt4listISt6vectorI10CoordinateSaIS1_EESaIS3_EE11_M_transferESt14_List_iteratorIS3_ES7_S7_
FN:1152,_ZNSt4listISt6vectorI10CoordinateSaIS1_EESaIS3_EE6spliceESt14_List_iteratorIS3_ERS5_
FN:1048,_ZNSt4listISt6vectorI10CoordinateSaIS1_EESaIS3_EE6insertISt20_List_const_iteratorIS3_EEEvSt14_List_iteratorIS3_ET_SB_
FN:1399,_ZNSt4listIySaIyEE11_M_transferESt14_List_iteratorIyES3_S3_
FN:1152,_ZNSt4listIySaIyEE6spliceESt14_List_iteratorIyERS1_
FN:1048,_ZNSt4listIySaIyEE6insertISt20_List_const_iteratorIyEEEvSt14_List_iteratorIyET_S7_
FNDA:0,_ZNSt14_List_iteratorIN4sigc9slot_baseEEC1Ev
FNDA:0,_ZNSt14_List_iteratorIN4sigc9slot_baseEEC1EPSt15_List_node_base
FNDA:0,_ZNSt14_List_iteratorISt6vectorI10CoordinateSaIS1_EEEC1EPSt15_List_node_base
FNDA:0,_ZNSt14_List_iteratorIyEC1EPSt15_List_node_base
FNDA:0,_ZNKSt14_List_iteratorISt6vectorI10CoordinateSaIS1_EEEdeEv
FNDA:0,_ZNKSt14_List_iteratorIyEdeEv
FNDA:0,_ZNSt14_List_iteratorISt6vectorI10CoordinateSaIS1_EEEppEv
FNDA:0,_ZNSt14_List_iteratorIyEppEv
FNDA:0,_ZNKSt14_List_iteratorISt6vectorI10CoordinateSaIS1_EEEneERKS4_
FNDA:0,_ZNKSt14_List_iteratorIyEneERKS0_
FNDA:0,_ZNSt20_List_const_iteratorISt6vectorI10CoordinateSaIS1_EEEC1EPKSt15_List_node_base
FNDA:0,_ZNSt20_List_const_iteratorIyEC1EPKSt15_List_node_base
FNDA:0,_ZNSt20_List_const_iteratorIN4sigc9slot_baseEEC1ERKSt14_List_iteratorIS1_E
FNDA:0,_ZNKSt20_List_const_iteratorISt6vectorI10CoordinateSaIS1_EEEdeEv
FNDA:0,_ZNKSt20_List_const_iteratorIyEdeEv
FNDA:0,_ZNKSt20_List_const_iteratorIN4sigc9slot_baseEEptEv
FNDA:0,_ZNSt20_List_const_iteratorIN4sigc9slot_baseEEppEv
FNDA:0,_ZNSt20_List_const_iteratorISt6vectorI10CoordinateSaIS1_EEEppEv
FNDA:0,_ZNSt20_List_const_iteratorIyEppEv
FNDA:0,_ZNKSt20_List_const_iteratorISt6vectorI10CoordinateSaIS1_EEEeqERKS4_
FNDA:0,_ZNKSt20_List_const_iteratorIyEeqERKS0_
FNDA:0,_ZNKSt20_List_const_iteratorIN4sigc9slot_baseEEneERKS2_
FNDA:0,_ZNKSt20_List_const_iteratorISt6vectorI10CoordinateSaIS1_EEEneERKS4_
FNDA:0,_ZNKSt20_List_const_iteratorIyEneERKS0_
FNDA:0,_ZNSt10_List_baseIN4sigc9slot_baseESaIS1_EE10_List_implD1Ev
FNDA:0,_ZNSt10_List_baseISt6vectorI10CoordinateSaIS1_EESaIS3_EE10_List_implD1Ev
FNDA:0,_ZNSt10_List_baseIySaIyEE10_List_implD1Ev
FNDA:0,_ZNSt10_List_baseISt6vectorI10CoordinateSaIS1_EESaIS3_EE10_List_implC1ERKSaISt10_List_nodeIS3_EE
FNDA:0,_ZNSt10_List_baseIySaIyEE10_List_implC1ERKSaISt10_List_nodeIyEE
FNDA:0,_ZNSt10_List_baseIN4sigc9slot_baseESaIS1_EE11_M_get_nodeEv
FNDA:0,_ZNSt10_List_baseISt6vectorI10CoordinateSaIS1_EESaIS3_EE11_M_get_nodeEv
FNDA:0,_ZNSt10_List_baseIySaIyEE11_M_get_nodeEv
FNDA:0,_ZNSt10_List_baseIN4sigc9slot_baseESaIS1_EE11_M_put_nodeEPSt10_List_nodeIS1_E
FNDA:0,_ZNSt10_List_baseISt6vectorI10CoordinateSaIS1_EESaIS3_EE11_M_put_nodeEPSt10_List_nodeIS3_E
FNDA:0,_ZNSt10_List_baseIySaIyEE11_M_put_nodeEPSt10_List_nodeIyE
FNDA:0,_ZNSt10_List_baseISt6vectorI10CoordinateSaIS1_EESaIS3_EE21_M_get_Node_allocatorEv
FNDA:0,_ZNSt10_List_baseIySaIyEE21_M_get_Node_allocatorEv
FNDA:0,_ZNKSt10_List_baseIN4sigc9slot_baseESaIS1_EE21_M_get_Node_allocatorEv
FNDA:0,_ZNKSt10_List_baseISt6vectorI10CoordinateSaIS1_EESaIS3_EE21_M_get_Node_allocatorEv
FNDA:0,_ZNKSt10_List_baseIySaIyEE21_M_get_Node_allocatorEv
FNDA:0,_ZNKSt10_List_baseIN4sigc9slot_baseESaIS1_EE19_M_get_Tp_allocatorEv
FNDA:0,_ZNKSt10_List_baseISt6vectorI10CoordinateSaIS1_EESaIS3_EE19_M_get_Tp_allocatorEv
FNDA:0,_ZNKSt10_List_baseIySaIyEE19_M_get_Tp_allocatorEv
FNDA:0,_ZNSt10_List_baseISt6vectorI10CoordinateSaIS1_EESaIS3_EEC2ERKS4_
FNDA:0,_ZNSt10_List_baseIySaIyEEC2ERKS0_
FNDA:0,_ZNSt10_List_baseIN4sigc9slot_baseESaIS1_EED2Ev
FNDA:0,_ZNSt10_List_baseISt6vectorI10CoordinateSaIS1_EESaIS3_EED2Ev
FNDA:0,_ZNSt10_List_baseIySaIyEED2Ev
FNDA:0,_ZNSt10_List_baseISt6vectorI10CoordinateSaIS1_EESaIS3_EE7_M_initEv
FNDA:0,_ZNSt10_List_baseIySaIyEE7_M_initEv
FNDA:0,_ZNSt4listIN4sigc9slot_baseESaIS1_EED1Ev
FNDA:0,_ZNSt4listISt6vectorI10CoordinateSaIS1_EESaIS3_EED1Ev
FNDA:0,_ZNSt4listIySaIyEED1Ev
FNDA:0,_ZNSt4listIN4sigc9slot_baseESaIS1_EE14_M_create_nodeERKS1_
FNDA:0,_ZNSt4listISt6vectorI10CoordinateSaIS1_EESaIS3_EE14_M_create_nodeERKS3_
FNDA:0,_ZNSt4listIySaIyEE14_M_create_nodeERKy
FNDA:0,_ZNSt4listISt6vectorI10CoordinateSaIS1_EESaIS3_EEC1ISt20_List_const_iteratorIS3_EEET_S9_RKS4_
FNDA:0,_ZNSt4listIySaIyEEC1ISt20_List_const_iteratorIyEEET_S5_RKS0_
FNDA:0,_ZNSt4listIN4sigc9slot_baseESaIS1_EE5beginEv
FNDA:0,_ZNSt4listISt6vectorI10CoordinateSaIS1_EESaIS3_EE5beginEv
FNDA:0,_ZNSt4listIySaIyEE5beginEv
FNDA:0,_ZNKSt4listISt6vectorI10CoordinateSaIS1_EESaIS3_EE5beginEv
FNDA:0,_ZNKSt4listIySaIyEE5beginEv
FNDA:0,_ZNSt4listIN4sigc9slot_baseESaIS1_EE3endEv
FNDA:0,_ZNSt4listISt6vectorI10CoordinateSaIS1_EESaIS3_EE3endEv
FNDA:0,_ZNSt4listIySaIyEE3endEv
FNDA:0,_ZNKSt4listISt6vectorI10CoordinateSaIS1_EESaIS3_EE3endEv
FNDA:0,_ZNKSt4listIySaIyEE3endEv
FNDA:0,_ZNKSt4listIN4sigc9slot_baseESaIS1_EE5emptyEv
FNDA:0,_ZNKSt4listISt6vectorI10CoordinateSaIS1_EESaIS3_EE5emptyEv
FNDA:0,_ZNKSt4listIySaIyEE5emptyEv
FNDA:0,_ZNSt4listISt6vectorI10CoordinateSaIS1_EESaIS3_EE9push_backERKS3_
FNDA:0,_ZNSt4listIySaIyEE9push_backERKy
FNDA:0,_ZNSt4listISt6vectorI10CoordinateSaIS1_EESaIS3_EE6insertISt20_List_const_iteratorIS3_EEEvSt14_List_iteratorIS3_ET_SB_
FNDA:0,_ZNSt4listIySaIyEE6insertISt20_List_const_iteratorIyEEEvSt14_List_iteratorIyET_S7_
FNDA:0,_ZNSt4listISt6vectorI10CoordinateSaIS1_EESaIS3_EE5eraseESt14_List_iteratorIS3_ES7_
FNDA:0,_ZNSt4listIySaIyEE5eraseESt14_List_iteratorIyES3_
FNDA:0,_ZNSt4listISt6vectorI10CoordinateSaIS1_EESaIS3_EE6spliceESt14_List_iteratorIS3_ERS5_
FNDA:0,_ZNSt4listIySaIyEE6spliceESt14_List_iteratorIyERS1_
FNDA:0,_ZNSt4listISt6vectorI10CoordinateSaIS1_EESaIS3_EE22_M_initialize_dispatchISt20_List_const_iteratorIS3_EEEvT_S9_St12__false_type
FNDA:0,_ZNSt4listIySaIyEE22_M_initialize_dispatchISt20_List_const_iteratorIyEEEvT_S5_St12__false_type
FNDA:0,_ZNSt4listISt6vectorI10CoordinateSaIS1_EESaIS3_EE11_M_transferESt14_List_iteratorIS3_ES7_S7_
FNDA:0,_ZNSt4listIySaIyEE11_M_transferESt14_List_iteratorIyES3_S3_
FNDA:0,_ZNSt4listISt6vectorI10CoordinateSaIS1_EESaIS3_EE9_M_insertESt14_List_iteratorIS3_ERKS3_
FNDA:0,_ZNSt4listIySaIyEE9_M_insertESt14_List_iteratorIyERKy
FNDA:0,_ZNSt4listIN4sigc9slot_baseESaIS1_EE8_M_eraseESt14_List_iteratorIS1_E
FNDA:0,_ZNSt4listISt6vectorI10CoordinateSaIS1_EESaIS3_EE8_M_eraseESt14_List_iteratorIS3_E
FNDA:0,_ZNSt4listIySaIyEE8_M_eraseESt14_List_iteratorIyE
FNDA:0,_ZNSt4listISt6vectorI10CoordinateSaIS1_EESaIS3_EE25_M_check_equal_allocatorsERS5_
FNDA:0,_ZNSt4listIySaIyEE25_M_check_equal_allocatorsERS1_
FNF:90
FNH:0
DA:124,0
DA:125,0
DA:128,0
DA:129,0
DA:133,0
DA:134,0
DA:141,0
DA:143,0
DA:144,0
DA:175,0
DA:176,0
DA:204,0
DA:205,0
DA:207,0
DA:208,0
DA:213,0
DA:214,0
DA:217,0
DA:218,0
DA:221,0
DA:223,0
DA:224,0
DA:251,0
DA:252,0
DA:255,0
DA:256,0
DA:300,0
DA:307,0
DA:308,0
DA:309,0
DA:315,0
DA:316,0
DA:319,0
DA:320,0
DA:326,0
DA:327,0
DA:330,0
DA:331,0
DA:334,0
DA:335,0
DA:345,0
DA:346,0
DA:347,0
DA:359,0
DA:360,0
DA:366,0
DA:368,0
DA:369,0
DA:370,0
DA:418,0
DA:459,0
DA:461,0
DA:464,0
DA:466,0
DA:468,0
DA:469,0
DA:471,0
DA:571,0
DA:573,0
DA:577,0
DA:578,0
DA:689,0
DA:690,0
DA:698,0
DA:699,0
DA:707,0
DA:708,0
DA:716,0
DA:717,0
DA:799,0
DA:800,0
DA:919,0
DA:920,0
DA:1048,0
DA:1051,0
DA:1052,0
DA:1053,0
DA:1092,0
DA:1094,0
DA:1095,0
DA:1096,0
DA:1152,0
DA:1155,0
DA:1157,0
DA:1159,0
DA:1161,0
DA:1357,0
DA:1360,0
DA:1361,0
DA:1362,0
DA:1399,0
DA:1400,0
DA:1405,0
DA:1407,0
DA:1408,0
DA:1409,0
DA:1422,0
DA:1424,0
DA:1425,0
DA:1429,0
DA:1431,0
DA:1432,0
DA:1436,0
DA:1438,0
DA:1440,0
DA:1441,0
BA:1094,0
BA:1094,0
BA:1094,0
BA:1094,0
BA:1155,0
BA:1155,0
BA:1155,0
BA:1155,0
BA:1360,0
BA:1360,0
BA:1360,0
BA:1360,0
BA:1438,0
BA:1438,0
BA:1438,0
BA:1438,0
LF:106
LH:0
end_of_record
SF:/usr/include/c++/4.4/bits/stl_uninitialized.h
FN:67,_ZNSt20__uninitialized_copyILb0EE18uninitialized_copyIN9__gnu_cxx17__normal_iteratorIPK10CoordinateSt6vectorIS4_SaIS4_EEEEPS4_EET0_T_SD_SC_
FN:107,_ZSt18uninitialized_copyIN9__gnu_cxx17__normal_iteratorIPK10CoordinateSt6vectorIS2_SaIS2_EEEEPS2_ET0_T_SB_SA_
FN:255,_ZSt22__uninitialized_copy_aIN9__gnu_cxx17__normal_iteratorIPK10CoordinateSt6vectorIS2_SaIS2_EEEEPS2_S2_ET0_T_SB_SA_RSaIT1_E
FN:67,_ZNSt20__uninitialized_copyILb0EE18uninitialized_copyIP10CoordinateS3_EET0_T_S5_S4_
FN:107,_ZSt18uninitialized_copyIP10CoordinateS1_ET0_T_S3_S2_
FN:255,_ZSt22__uninitialized_copy_aIP10CoordinateS1_S0_ET0_T_S3_S2_RSaIT1_E
FNDA:0,_ZNSt20__uninitialized_copyILb0EE18uninitialized_copyIN9__gnu_cxx17__normal_iteratorIPK10CoordinateSt6vectorIS4_SaIS4_EEEEPS4_EET0_T_SD_SC_
FNDA:0,_ZNSt20__uninitialized_copyILb0EE18uninitialized_copyIP10CoordinateS3_EET0_T_S5_S4_
FNDA:0,_ZSt18uninitialized_copyIN9__gnu_cxx17__normal_iteratorIPK10CoordinateSt6vectorIS2_SaIS2_EEEEPS2_ET0_T_SB_SA_
FNDA:0,_ZSt18uninitialized_copyIP10CoordinateS1_ET0_T_S3_S2_
FNDA:0,_ZSt22__uninitialized_copy_aIN9__gnu_cxx17__normal_iteratorIPK10CoordinateSt6vectorIS2_SaIS2_EEEEPS2_S2_ET0_T_SB_SA_RSaIT1_E
FNDA:0,_ZSt22__uninitialized_copy_aIP10CoordinateS1_S0_ET0_T_S3_S2_RSaIT1_E
FNF:6
FNH:0
DA:67,0
DA:70,0
DA:73,0
DA:74,0
DA:76,0
DA:78,0
DA:80,0
DA:81,0
DA:107,0
DA:117,0
DA:255,0
DA:257,0
BA:73,0
BA:73,0
BA:73,0
BA:73,0
BA:74,0
BA:74,0
BA:74,0
BA:74,0
LF:12
LH:0
end_of_record
SF:/usr/include/c++/4.4/bits/stl_vector.h
FN:532,_ZNKSt6vectorI10CoordinateSaIS0_EE4sizeEv
FN:625,_ZNKSt6vectorI10CoordinateSaIS0_EEixEj
FN:565,_ZNKSt6vectorI10CoordinateSaIS0_EE8capacityEv
FN:93,_ZNSt12_Vector_baseI10CoordinateSaIS0_EE19_M_get_Tp_allocatorEv
FN:452,_ZNKSt6vectorI10CoordinateSaIS0_EE3endEv
FN:434,_ZNKSt6vectorI10CoordinateSaIS0_EE5beginEv
FN:443,_ZNSt6vectorI10CoordinateSaIS0_EE3endEv
FN:425,_ZNSt6vectorI10CoordinateSaIS0_EE5beginEv
FN:97,_ZNKSt12_Vector_baseI10CoordinateSaIS0_EE19_M_get_Tp_allocatorEv
FN:75,_ZNSt12_Vector_baseI10CoordinateSaIS0_EE12_Vector_implD1Ev
FN:84,_ZNSt12_Vector_baseI10CoordinateSaIS0_EE12_Vector_implC1ERKS1_
FN:139,_ZNSt12_Vector_baseI10CoordinateSaIS0_EE11_M_allocateEj
FN:110,_ZNSt12_Vector_baseI10CoordinateSaIS0_EEC2EjRKS1_
FN:143,_ZNSt12_Vector_baseI10CoordinateSaIS0_EE13_M_deallocateEPS0_j
FN:960,_ZNSt6vectorI10CoordinateSaIS0_EE20_M_allocate_and_copyIN9__gnu_cxx17__normal_iteratorIPKS0_S2_EEEEPS0_jT_SA_
FN:131,_ZNSt12_Vector_baseI10CoordinateSaIS0_EED2Ev
FN:312,_ZNSt6vectorI10CoordinateSaIS0_EED1Ev
FN:241,_ZNSt6vectorI10CoordinateSaIS0_EEC1ERKS2_
FNDA:0,_ZNSt12_Vector_baseI10CoordinateSaIS0_EE12_Vector_implD1Ev
FNDA:0,_ZNSt12_Vector_baseI10CoordinateSaIS0_EE12_Vector_implC1ERKS1_
FNDA:0,_ZNSt12_Vector_baseI10CoordinateSaIS0_EE19_M_get_Tp_allocatorEv
FNDA:0,_ZNKSt12_Vector_baseI10CoordinateSaIS0_EE19_M_get_Tp_allocatorEv
FNDA:0,_ZNSt12_Vector_baseI10CoordinateSaIS0_EEC2EjRKS1_
FNDA:0,_ZNSt12_Vector_baseI10CoordinateSaIS0_EED2Ev
FNDA:0,_ZNSt12_Vector_baseI10CoordinateSaIS0_EE11_M_allocateEj
FNDA:0,_ZNSt12_Vector_baseI10CoordinateSaIS0_EE13_M_deallocateEPS0_j
FNDA:0,_ZNSt6vectorI10CoordinateSaIS0_EEC1ERKS2_
FNDA:0,_ZNSt6vectorI10CoordinateSaIS0_EED1Ev
FNDA:0,_ZNSt6vectorI10CoordinateSaIS0_EE5beginEv
FNDA:0,_ZNKSt6vectorI10CoordinateSaIS0_EE5beginEv
FNDA:0,_ZNSt6vectorI10CoordinateSaIS0_EE3endEv
FNDA:0,_ZNKSt6vectorI10CoordinateSaIS0_EE3endEv
FNDA:0,_ZNKSt6vectorI10CoordinateSaIS0_EE4sizeEv
FNDA:0,_ZNKSt6vectorI10CoordinateSaIS0_EE8capacityEv
FNDA:0,_ZNKSt6vectorI10CoordinateSaIS0_EEixEj
FNDA:0,_ZNSt6vectorI10CoordinateSaIS0_EE20_M_allocate_and_copyIN9__gnu_cxx17__normal_iteratorIPKS0_S2_EEEEPS0_jT_SA_
FNF:18
FNH:0
DA:75,0
DA:84,0
DA:85,0
DA:86,0
DA:93,0
DA:94,0
DA:97,0
DA:98,0
DA:110,0
DA:111,0
DA:113,0
DA:114,0
DA:115,0
DA:116,0
DA:131,0
DA:132,0
DA:133,0
DA:139,0
DA:140,0
DA:143,0
DA:145,0
DA:146,0
DA:147,0
DA:241,0
DA:242,0
DA:243,0
DA:247,0
DA:312,0
DA:313,0
DA:314,0
DA:425,0
DA:426,0
DA:434,0
DA:435,0
DA:443,0
DA:444,0
DA:452,0
DA:453,0
DA:532,0
DA:533,0
DA:565,0
DA:567,0
DA:625,0
DA:626,0
DA:960,0
DA:963,0
DA:966,0
DA:968,0
DA:970,0
DA:972,0
DA:973,0
BA:140,0
BA:140,0
BA:145,0
BA:145,0
LF:51
LH:0
end_of_record
SF:/usr/include/c++/4.4/bits/vector.tcc
FN:156,_ZNSt6vectorI10CoordinateSaIS0_EEaSERKS2_
FNDA:0,_ZNSt6vectorI10CoordinateSaIS0_EEaSERKS2_
FNF:1
FNH:0
DA:156,0
DA:159,0
DA:161,0
DA:162,0
DA:165,0
DA:166,0
DA:168,0
DA:171,0
DA:172,0
DA:174,0
DA:176,0
DA:181,0
DA:183,0
DA:188,0
DA:190,0
BA:159,0
BA:159,0
BA:162,0
BA:162,0
BA:174,0
BA:174,0
LF:15
LH:0
end_of_record
SF:/usr/include/c++/4.4/ext/atomicity.h
FN:62,_ZN9__gnu_cxxL25__exchange_and_add_singleEPii
FN:45,_ZN9__gnu_cxxL18__exchange_and_addEPVii
FN:75,_ZN9__gnu_cxxL27__exchange_and_add_dispatchEPii
FNDA:0,_ZN9__gnu_cxxL18__exchange_and_addEPVii
FNDA:0,_ZN9__gnu_cxxL25__exchange_and_add_singleEPii
FNDA:0,_ZN9__gnu_cxxL27__exchange_and_add_dispatchEPii
FNF:3
FNH:0
DA:45,0
DA:46,0
DA:62,0
DA:64,0
DA:65,0
DA:66,0
DA:75,0
DA:78,0
DA:79,0
DA:81,0
BA:78,0
BA:78,0
LF:10
LH:0
end_of_record
SF:/usr/include/c++/4.4/ext/new_allocator.h
FN:66,_ZN9__gnu_cxx13new_allocatorIcEC2Ev
FN:73,_ZN9__gnu_cxx13new_allocatorIcED2Ev
FN:73,_ZN9__gnu_cxx13new_allocatorISt10_List_nodeIN4sigc9slot_baseEEED2Ev
FN:68,_ZN9__gnu_cxx13new_allocatorIcEC2ERKS1_
FN:73,_ZN9__gnu_cxx13new_allocatorIN4sigc9slot_baseEED2Ev
FN:66,_ZN9__gnu_cxx13new_allocatorISt6vectorI10CoordinateSaIS2_EEEC2Ev
FN:73,_ZN9__gnu_cxx13new_allocatorISt6vectorI10CoordinateSaIS2_EEED2Ev
FN:66,_ZN9__gnu_cxx13new_allocatorIyEC2Ev
FN:73,_ZN9__gnu_cxx13new_allocatorIyED2Ev
FN:66,_ZN9__gnu_cxx13new_allocatorIN4sigc9slot_baseEEC2Ev
FN:98,_ZNK9__gnu_cxx13new_allocatorISt10_List_nodeIN4sigc9slot_baseEEE8max_sizeEv
FN:98,_ZNK9__gnu_cxx13new_allocatorI10CoordinateE8max_sizeEv
FN:73,_ZN9__gnu_cxx13new_allocatorISt10_List_nodeISt6vectorI10CoordinateSaIS3_EEEED2Ev
FN:115,_ZN9__gnu_cxx13new_allocatorIyE7destroyEPy
FN:73,_ZN9__gnu_cxx13new_allocatorISt10_List_nodeIyEED2Ev
FN:66,_ZN9__gnu_cxx13new_allocatorISt10_List_nodeISt6vectorI10CoordinateSaIS3_EEEEC2Ev
FN:66,_ZN9__gnu_cxx13new_allocatorISt10_List_nodeIyEEC2Ev
FN:68,_ZN9__gnu_cxx13new_allocatorISt10_List_nodeISt6vectorI10CoordinateSaIS3_EEEEC2ERKS7_
FN:68,_ZN9__gnu_cxx13new_allocatorISt10_List_nodeIyEEC2ERKS3_
FN:104,_ZN9__gnu_cxx13new_allocatorIyE9constructEPyRKy
FN:73,_ZN9__gnu_cxx13new_allocatorI10CoordinateED2Ev
FN:98,_ZNK9__gnu_cxx13new_allocatorISt10_List_nodeISt6vectorI10CoordinateSaIS3_EEEE8max_sizeEv
FN:98,_ZNK9__gnu_cxx13new_allocatorISt10_List_nodeIyEE8max_sizeEv
FN:68,_ZN9__gnu_cxx13new_allocatorI10CoordinateEC2ERKS2_
FN:115,_ZN9__gnu_cxx13new_allocatorIN4sigc9slot_baseEE7destroyEPS2_
FN:84,_ZN9__gnu_cxx13new_allocatorISt10_List_nodeIN4sigc9slot_baseEEE8allocateEjPKv
FN:84,_ZN9__gnu_cxx13new_allocatorI10CoordinateE8allocateEjPKv
FN:84,_ZN9__gnu_cxx13new_allocatorISt10_List_nodeISt6vectorI10CoordinateSaIS3_EEEE8allocateEjPKv
FN:84,_ZN9__gnu_cxx13new_allocatorISt10_List_nodeIyEE8allocateEjPKv
FN:104,_ZN9__gnu_cxx13new_allocatorIN4sigc9slot_baseEE9constructEPS2_RKS2_
FN:94,_ZN9__gnu_cxx13new_allocatorISt10_List_nodeIN4sigc9slot_baseEEE10deallocateEPS4_j
FN:94,_ZN9__gnu_cxx13new_allocatorI10CoordinateE10deallocateEPS1_j
FN:115,_ZN9__gnu_cxx13new_allocatorISt6vectorI10CoordinateSaIS2_EEE7destroyEPS4_
FN:104,_ZN9__gnu_cxx13new_allocatorISt6vectorI10CoordinateSaIS2_EEE9constructEPS4_RKS4_
FN:94,_ZN9__gnu_cxx13new_allocatorISt10_List_nodeISt6vectorI10CoordinateSaIS3_EEEE10deallocateEPS6_j
FN:94,_ZN9__gnu_cxx13new_allocatorISt10_List_nodeIyEE10deallocateEPS2_j
FNDA:0,_ZN9__gnu_cxx13new_allocatorIcEC2Ev
FNDA:0,_ZN9__gnu_cxx13new_allocatorISt6vectorI10CoordinateSaIS2_EEEC2Ev
FNDA:0,_ZN9__gnu_cxx13new_allocatorIyEC2Ev
FNDA:0,_ZN9__gnu_cxx13new_allocatorIN4sigc9slot_baseEEC2Ev
FNDA:0,_ZN9__gnu_cxx13new_allocatorISt10_List_nodeISt6vectorI10CoordinateSaIS3_EEEEC2Ev
FNDA:0,_ZN9__gnu_cxx13new_allocatorISt10_List_nodeIyEEC2Ev
FNDA:0,_ZN9__gnu_cxx13new_allocatorIcEC2ERKS1_
FNDA:0,_ZN9__gnu_cxx13new_allocatorISt10_List_nodeISt6vectorI10CoordinateSaIS3_EEEEC2ERKS7_
FNDA:0,_ZN9__gnu_cxx13new_allocatorISt10_List_nodeIyEEC2ERKS3_
FNDA:0,_ZN9__gnu_cxx13new_allocatorI10CoordinateEC2ERKS2_
FNDA:0,_ZN9__gnu_cxx13new_allocatorIcED2Ev
FNDA:0,_ZN9__gnu_cxx13new_allocatorISt10_List_nodeIN4sigc9slot_baseEEED2Ev
FNDA:0,_ZN9__gnu_cxx13new_allocatorIN4sigc9slot_baseEED2Ev
FNDA:0,_ZN9__gnu_cxx13new_allocatorISt6vectorI10CoordinateSaIS2_EEED2Ev
FNDA:0,_ZN9__gnu_cxx13new_allocatorIyED2Ev
FNDA:0,_ZN9__gnu_cxx13new_allocatorISt10_List_nodeISt6vectorI10CoordinateSaIS3_EEEED2Ev
FNDA:0,_ZN9__gnu_cxx13new_allocatorISt10_List_nodeIyEED2Ev
FNDA:0,_ZN9__gnu_cxx13new_allocatorI10CoordinateED2Ev
FNDA:0,_ZN9__gnu_cxx13new_allocatorISt10_List_nodeIN4sigc9slot_baseEEE8allocateEjPKv
FNDA:0,_ZN9__gnu_cxx13new_allocatorI10CoordinateE8allocateEjPKv
FNDA:0,_ZN9__gnu_cxx13new_allocatorISt10_List_nodeISt6vectorI10CoordinateSaIS3_EEEE8allocateEjPKv
FNDA:0,_ZN9__gnu_cxx13new_allocatorISt10_List_nodeIyEE8allocateEjPKv
FNDA:0,_ZN9__gnu_cxx13new_allocatorISt10_List_nodeIN4sigc9slot_baseEEE10deallocateEPS4_j
FNDA:0,_ZN9__gnu_cxx13new_allocatorI10CoordinateE10deallocateEPS1_j
FNDA:0,_ZN9__gnu_cxx13new_allocatorISt10_List_nodeISt6vectorI10CoordinateSaIS3_EEEE10deallocateEPS6_j
FNDA:0,_ZN9__gnu_cxx13new_allocatorISt10_List_nodeIyEE10deallocateEPS2_j
FNDA:0,_ZNK9__gnu_cxx13new_allocatorISt10_List_nodeIN4sigc9slot_baseEEE8max_sizeEv
FNDA:0,_ZNK9__gnu_cxx13new_allocatorI10CoordinateE8max_sizeEv
FNDA:0,_ZNK9__gnu_cxx13new_allocatorISt10_List_nodeISt6vectorI10CoordinateSaIS3_EEEE8max_sizeEv
FNDA:0,_ZNK9__gnu_cxx13new_allocatorISt10_List_nodeIyEE8max_sizeEv
FNDA:0,_ZN9__gnu_cxx13new_allocatorIyE9constructEPyRKy
FNDA:0,_ZN9__gnu_cxx13new_allocatorIN4sigc9slot_baseEE9constructEPS2_RKS2_
FNDA:0,_ZN9__gnu_cxx13new_allocatorISt6vectorI10CoordinateSaIS2_EEE9constructEPS4_RKS4_
FNDA:0,_ZN9__gnu_cxx13new_allocatorIyE7destroyEPy
FNDA:0,_ZN9__gnu_cxx13new_allocatorIN4sigc9slot_baseEE7destroyEPS2_
FNDA:0,_ZN9__gnu_cxx13new_allocatorISt6vectorI10CoordinateSaIS2_EEE7destroyEPS4_
FNF:36
FNH:0
DA:66,0
DA:68,0
DA:73,0
DA:84,0
DA:86,0
DA:87,0
DA:89,0
DA:94,0
DA:95,0
DA:98,0
DA:99,0
DA:104,0
DA:105,0
DA:115,0
BA:86,0
BA:86,0
BA:86,0
BA:86,0
BA:86,0
BA:86,0
BA:86,0
BA:86,0
BA:105,0
BA:105,0
BA:105,0
BA:105,0
BA:105,0
BA:105,0
LF:14
LH:0
end_of_record
SF:/usr/include/c++/4.4/i486-linux-gnu/bits/gthr-default.h
FN:238,_ZL18__gthread_active_pv
FNDA:0,_ZL18__gthread_active_pv
FNF:1
FNH:0
DA:238,0
DA:242,0
LF:2
LH:0
end_of_record
SF:/usr/include/c++/4.4/new
FN:101,_ZnwjPv
FN:105,_ZdlPvS_
FNDA:0,_ZnwjPv
FNDA:0,_ZdlPvS_
FNF:2
FNH:0
DA:101,0
DA:105,0
LF:2
LH:0
end_of_record
SF:/usr/include/cairomm-1.0/cairomm/refptr.h
FN:180,_ZNK5Cairo6RefPtrINS_7ContextEEptEv
FN:199,_ZN5Cairo6RefPtrINS_7ContextEE5unrefEv
FN:193,_ZN5Cairo6RefPtrINS_7ContextEED1Ev
FNDA:0,_ZNK5Cairo6RefPtrINS_7ContextEEptEv
FNDA:0,_ZN5Cairo6RefPtrINS_7ContextEED1Ev
FNDA:0,_ZN5Cairo6RefPtrINS_7ContextEE5unrefEv
FNF:3
FNH:0
DA:180,0
DA:182,0
DA:193,0
DA:195,0
DA:196,0
DA:199,0
DA:201,0
DA:203,0
DA:205,0
DA:207,0
DA:209,0
DA:210,0
DA:213,0
DA:214,0
DA:217,0
BA:201,0
BA:201,0
BA:205,0
BA:205,0
BA:207,0
BA:207,0
BA:209,0
BA:209,0
LF:15
LH:0
end_of_record
SF:/usr/include/glibmm-2.4/glibmm/refptr.h
FN:194,_ZN4Glib6RefPtrIN3Gtk7BuilderEEC1ERKS3_
FN:181,_ZN4Glib6RefPtrIN3Gtk7BuilderEED1Ev
FN:169,_ZNK4Glib6RefPtrIN3Gtk7BuilderEEptEv
FN:181,_ZN4Glib6RefPtrIN3Gdk6WindowEED1Ev
FN:282,_ZNK4Glib6RefPtrIN3Gdk6WindowEEcvbEv
FN:169,_ZNK4Glib6RefPtrIN3Gdk6WindowEEptEv
FNDA:0,_ZNK4Glib6RefPtrIN3Gtk7BuilderEEptEv
FNDA:0,_ZNK4Glib6RefPtrIN3Gdk6WindowEEptEv
FNDA:0,_ZN4Glib6RefPtrIN3Gtk7BuilderEED1Ev
FNDA:0,_ZN4Glib6RefPtrIN3Gdk6WindowEED1Ev
FNDA:0,_ZN4Glib6RefPtrIN3Gtk7BuilderEEC1ERKS3_
FNDA:0,_ZNK4Glib6RefPtrIN3Gdk6WindowEEcvbEv
FNF:6
FNH:0
DA:169,0
DA:171,0
DA:181,0
DA:183,0
DA:184,0
DA:185,0
DA:194,0
DA:196,0
DA:198,0
DA:199,0
DA:200,0
DA:282,0
DA:284,0
BA:183,0
BA:183,0
BA:183,0
BA:183,0
BA:198,0
BA:198,0
LF:13
LH:0
end_of_record
SF:/usr/include/glibmm-2.4/glibmm/signalproxy.h
FN:183,_ZN4Glib12SignalProxy1IbP15_GdkEventExposeE7connectERKN4sigc4slotIbS2_NS4_3nilES6_S6_S6_S6_S6_EEb
FN:145,_ZN4Glib12SignalProxy0IvE7connectERKN4sigc4slotIvNS2_3nilES4_S4_S4_S4_S4_S4_EEb
FN:169,_ZN4Glib12SignalProxy1IbP15_GdkEventExposeED1Ev
FN:131,_ZN4Glib12SignalProxy0IvED1Ev
FNDA:0,_ZN4Glib12SignalProxy0IvED1Ev
FNDA:0,_ZN4Glib12SignalProxy0IvE7connectERKN4sigc4slotIvNS2_3nilES4_S4_S4_S4_S4_S4_EEb
FNDA:0,_ZN4Glib12SignalProxy1IbP15_GdkEventExposeED1Ev
FNDA:0,_ZN4Glib12SignalProxy1IbP15_GdkEventExposeE7connectERKN4sigc4slotIbS2_NS4_3nilES6_S6_S6_S6_S6_EEb
FNF:4
FNH:0
DA:131,0
DA:145,0
DA:146,0
DA:169,0
DA:183,0
DA:184,0
LF:6
LH:0
end_of_record
SF:/usr/include/gtkmm-2.4/gtkmm/builder.h
FN:489,_ZN3Gtk7Builder10get_widgetINS_11DrawingAreaEEEvRKN4Glib7ustringERPT_
FN:489,_ZN3Gtk7Builder10get_widgetINS_5LabelEEEvRKN4Glib7ustringERPT_
FN:489,_ZN3Gtk7Builder10get_widgetINS_6ButtonEEEvRKN4Glib7ustringERPT_
FNDA:0,_ZN3Gtk7Builder10get_widgetINS_11DrawingAreaEEEvRKN4Glib7ustringERPT_
FNDA:0,_ZN3Gtk7Builder10get_widgetINS_5LabelEEEvRKN4Glib7ustringERPT_
FNDA:0,_ZN3Gtk7Builder10get_widgetINS_6ButtonEEEvRKN4Glib7ustringERPT_
FNF:3
FNH:0
DA:489,0
DA:492,0
DA:495,0
DA:497,0
DA:498,0
DA:499,0
BA:495,0
BA:495,0
BA:495,0
BA:495,0
BA:495,0
BA:495,0
BA:497,0
BA:497,0
BA:497,0
BA:497,0
BA:497,0
BA:497,0
LF:6
LH:0
end_of_record
SF:/usr/include/gtkmm-2.4/gtkmm/papersize.h
DA:37,17
DA:38,17
DA:39,17
DA:40,17
DA:41,17
DA:42,17
DA:43,17
LF:7
LH:7
end_of_record
SF:/usr/include/sigc++-2.0/sigc++/adaptors/adaptor_trait.h
FN:60,_ZN4sigc15adaptor_functorINS_18bound_mem_functor1Ib14TableEditPieceP15_GdkEventExposeEEED1Ev
FN:231,_ZN4sigc15adaptor_functorINS_18bound_mem_functor1Ib14TableEditPieceP15_GdkEventExposeEEEC1ERKS5_
FN:60,_ZN4sigc15adaptor_functorINS_18bound_mem_functor0Iv14TableEditPieceEEED1Ev
FN:231,_ZN4sigc15adaptor_functorINS_18bound_mem_functor0Iv14TableEditPieceEEEC1ERKS3_
FN:83,_ZNK4sigc15adaptor_functorINS_18bound_mem_functor1Ib14TableEditPieceP15_GdkEventExposeEEEclIRKS4_EENS6_18deduce_result_typeIT_vvvvvvE4typeESB_
FN:250,_ZNK4sigc15adaptor_functorINS_18bound_mem_functor0Iv14TableEditPieceEEEclEv
FN:262,_ZN4sigc10visit_eachINS_8internal20limit_derived_targetIPNS_9trackableENS1_12slot_do_bindEEENS_18bound_mem_functor1Ib14TableEditPieceP15_GdkEventExposeEEEEvRKT_RKNS_15adaptor_functorIT0_EE
FN:262,_ZN4sigc10visit_eachINS_8internal20limit_derived_targetIPNS_9trackableENS1_12slot_do_bindEEENS_18bound_mem_functor0Iv14TableEditPieceEEEEvRKT_RKNS_15adaptor_functorIT0_EE
FN:262,_ZN4sigc10visit_eachINS_8internal20limit_derived_targetIPNS_9trackableENS1_14slot_do_unbindEEENS_18bound_mem_functor1Ib14TableEditPieceP15_GdkEventExposeEEEEvRKT_RKNS_15adaptor_functorIT0_EE
FN:262,_ZN4sigc10visit_eachINS_8internal20limit_derived_targetIPNS_9trackableENS1_14slot_do_unbindEEENS_18bound_mem_functor0Iv14TableEditPieceEEEEvRKT_RKNS_15adaptor_functorIT0_EE
FNDA:0,_ZN4sigc15adaptor_functorINS_18bound_mem_functor1Ib14TableEditPieceP15_GdkEventExposeEEED1Ev
FNDA:0,_ZN4sigc15adaptor_functorINS_18bound_mem_functor0Iv14TableEditPieceEEED1Ev
FNDA:0,_ZNK4sigc15adaptor_functorINS_18bound_mem_functor1Ib14TableEditPieceP15_GdkEventExposeEEEclIRKS4_EENS6_18deduce_result_typeIT_vvvvvvE4typeESB_
FNDA:0,_ZN4sigc15adaptor_functorINS_18bound_mem_functor1Ib14TableEditPieceP15_GdkEventExposeEEEC1ERKS5_
FNDA:0,_ZN4sigc15adaptor_functorINS_18bound_mem_functor0Iv14TableEditPieceEEEC1ERKS3_
FNDA:0,_ZNK4sigc15adaptor_functorINS_18bound_mem_functor0Iv14TableEditPieceEEEclEv
FNDA:0,_ZN4sigc10visit_eachINS_8internal20limit_derived_targetIPNS_9trackableENS1_12slot_do_bindEEENS_18bound_mem_functor1Ib14TableEditPieceP15_GdkEventExposeEEEEvRKT_RKNS_15adaptor_functorIT0_EE
FNDA:0,_ZN4sigc10visit_eachINS_8internal20limit_derived_targetIPNS_9trackableENS1_12slot_do_bindEEENS_18bound_mem_functor0Iv14TableEditPieceEEEEvRKT_RKNS_15adaptor_functorIT0_EE
FNDA:0,_ZN4sigc10visit_eachINS_8internal20limit_derived_targetIPNS_9trackableENS1_14slot_do_unbindEEENS_18bound_mem_functor1Ib14TableEditPieceP15_GdkEventExposeEEEEvRKT_RKNS_15adaptor_functorIT0_EE
FNDA:0,_ZN4sigc10visit_eachINS_8internal20limit_derived_targetIPNS_9trackableENS1_14slot_do_unbindEEENS_18bound_mem_functor0Iv14TableEditPieceEEEEvRKT_RKNS_15adaptor_functorIT0_EE
FNF:10
FNH:0
DA:60,0
DA:83,0
DA:84,0
DA:231,0
DA:232,0
DA:233,0
DA:250,0
DA:251,0
DA:262,0
DA:267,0
DA:268,0
LF:11
LH:0
end_of_record
SF:/usr/include/sigc++-2.0/sigc++/adaptors/deduce_result_type.h
FN:28,_ZN4sigc12adaptor_baseC2Ev
FNDA:0,_ZN4sigc12adaptor_baseC2Ev
FNF:1
FNH:0
DA:28,0
LF:1
LH:0
end_of_record
SF:/usr/include/sigc++-2.0/sigc++/functors/functor_trait.h
FN:64,_ZN4sigc12functor_baseC2Ev
FNDA:0,_ZN4sigc12functor_baseC2Ev
FNF:1
FNH:0
DA:64,0
LF:1
LH:0
end_of_record
SF:/usr/include/sigc++-2.0/sigc++/functors/mem_fun.h
FN:132,_ZN4sigc12mem_functor1Ib14TableEditPieceP15_GdkEventExposeEC2EMS1_FbS3_E
FN:1841,_ZN4sigc18bound_mem_functor1Ib14TableEditPieceP15_GdkEventExposeEC1ERS1_MS1_FbS3_E
FN:5476,_ZN4sigc7mem_funIP15_GdkEventExposeb14TableEditPieceS3_EENS_18bound_mem_functor1IT0_T1_T_EERS6_MT2_FS5_S7_E
FN:89,_ZN4sigc12mem_functor0Iv14TableEditPieceEC2EMS1_FvvE
FN:1778,_ZN4sigc18bound_mem_functor0Iv14TableEditPieceEC1ERS1_MS1_FvvE
FN:5452,_ZN4sigc7mem_funIv14TableEditPieceS1_EENS_18bound_mem_functor0IT_T0_EERS4_MT1_FS3_vE
FN:1850,_ZNK4sigc18bound_mem_functor1Ib14TableEditPieceP15_GdkEventExposeEclERKS3_
FN:1786,_ZNK4sigc18bound_mem_functor0Iv14TableEditPieceEclEv
FN:1867,_ZN4sigc10visit_eachINS_8internal20limit_derived_targetIPNS_9trackableENS1_12slot_do_bindEEEb14TableEditPieceP15_GdkEventExposeEEvRKT_RKNS_18bound_mem_functor1IT0_T1_T2_EE
FN:1803,_ZN4sigc10visit_eachINS_8internal20limit_derived_targetIPNS_9trackableENS1_12slot_do_bindEEEv14TableEditPieceEEvRKT_RKNS_18bound_mem_functor0IT0_T1_EE
FN:1867,_ZN4sigc10visit_eachINS_8internal20limit_derived_targetIPNS_9trackableENS1_14slot_do_unbindEEEb14TableEditPieceP15_GdkEventExposeEEvRKT_RKNS_18bound_mem_functor1IT0_T1_T2_EE
FN:1803,_ZN4sigc10visit_eachINS_8internal20limit_derived_targetIPNS_9trackableENS1_14slot_do_unbindEEEv14TableEditPieceEEvRKT_RKNS_18bound_mem_functor0IT0_T1_EE
FNDA:0,_ZN4sigc12mem_functor0Iv14TableEditPieceEC2EMS1_FvvE
FNDA:0,_ZN4sigc12mem_functor1Ib14TableEditPieceP15_GdkEventExposeEC2EMS1_FbS3_E
FNDA:0,_ZN4sigc18bound_mem_functor0Iv14TableEditPieceEC1ERS1_MS1_FvvE
FNDA:0,_ZNK4sigc18bound_mem_functor0Iv14TableEditPieceEclEv
FNDA:0,_ZN4sigc10visit_eachINS_8internal20limit_derived_targetIPNS_9trackableENS1_12slot_do_bindEEEv14TableEditPieceEEvRKT_RKNS_18bound_mem_functor0IT0_T1_EE
FNDA:0,_ZN4sigc10visit_eachINS_8internal20limit_derived_targetIPNS_9trackableENS1_14slot_do_unbindEEEv14TableEditPieceEEvRKT_RKNS_18bound_mem_functor0IT0_T1_EE
FNDA:0,_ZN4sigc18bound_mem_functor1Ib14TableEditPieceP15_GdkEventExposeEC1ERS1_MS1_FbS3_E
FNDA:0,_ZNK4sigc18bound_mem_functor1Ib14TableEditPieceP15_GdkEventExposeEclERKS3_
FNDA:0,_ZN4sigc10visit_eachINS_8internal20limit_derived_targetIPNS_9trackableENS1_12slot_do_bindEEEb14TableEditPieceP15_GdkEventExposeEEvRKT_RKNS_18bound_mem_functor1IT0_T1_T2_EE
FNDA:0,_ZN4sigc10visit_eachINS_8internal20limit_derived_targetIPNS_9trackableENS1_14slot_do_unbindEEEb14TableEditPieceP15_GdkEventExposeEEvRKT_RKNS_18bound_mem_functor1IT0_T1_T2_EE
FNDA:0,_ZN4sigc7mem_funIv14TableEditPieceS1_EENS_18bound_mem_functor0IT_T0_EERS4_MT1_FS3_vE
FNDA:0,_ZN4sigc7mem_funIP15_GdkEventExposeb14TableEditPieceS3_EENS_18bound_mem_functor1IT0_T1_T_EERS6_MT2_FS5_S7_E
FNF:12
FNH:0
DA:89,0
DA:132,0
DA:1778,0
DA:1780,0
DA:1781,0
DA:1786,0
DA:1787,0
DA:1803,0
DA:1806,0
DA:1807,0
DA:1841,0
DA:1843,0
DA:1844,0
DA:1850,0
DA:1851,0
DA:1867,0
DA:1870,0
DA:1871,0
DA:5452,0
DA:5453,0
DA:5476,0
DA:5477,0
BA:1787,0
BA:1787,0
BA:1851,0
BA:1851,0
LF:22
LH:0
end_of_record
SF:/usr/include/sigc++-2.0/sigc++/functors/slot.h
FN:143,_ZN4sigc8internal10slot_call1INS_18bound_mem_functor1Ib14TableEditPieceP15_GdkEventExposeEEbS5_E7addressEv
FN:109,_ZN4sigc8internal10slot_call0INS_18bound_mem_functor0Iv14TableEditPieceEEvE7addressEv
FN:132,_ZN4sigc8internal10slot_call1INS_18bound_mem_functor1Ib14TableEditPieceP15_GdkEventExposeEEbS5_E7call_itEPNS0_8slot_repERKS5_
FN:99,_ZN4sigc8internal10slot_call0INS_18bound_mem_functor0Iv14TableEditPieceEEvE7call_itEPNS0_8slot_repE
FN:495,_ZN4sigc5slot1IbP15_GdkEventExposeED2Ev
FN:1091,_ZN4sigc4slotIbP15_GdkEventExposeNS_3nilES3_S3_S3_S3_S3_ED1Ev
FN:422,_ZN4sigc5slot0IvED2Ev
FN:1091,_ZN4sigc4slotIvNS_3nilES1_S1_S1_S1_S1_S1_ED1Ev
FN:37,_ZN4sigc8internal14typed_slot_repINS_18bound_mem_functor1Ib14TableEditPieceP15_GdkEventExposeEEEC1ERKS6_
FN:525,_ZN4sigc5slot1IbP15_GdkEventExposeEC2INS_18bound_mem_functor1Ib14TableEditPieceS2_EEEERKT_
FN:1156,_ZN4sigc4slotIbP15_GdkEventExposeNS_3nilES3_S3_S3_S3_S3_EC1INS_18bound_mem_functor1Ib14TableEditPieceS2_EEEERKT_
FN:41,_ZN4sigc8internal14typed_slot_repINS_18bound_mem_functor1Ib14TableEditPieceP15_GdkEventExposeEEEC1ERKS7_
FN:74,_ZN4sigc8internal14typed_slot_repINS_18bound_mem_functor1Ib14TableEditPieceP15_GdkEventExposeEEE3dupEPv
FN:37,_ZN4sigc8internal14typed_slot_repINS_18bound_mem_functor0Iv14TableEditPieceEEEC1ERKS4_
FN:450,_ZN4sigc5slot0IvEC2INS_18bound_mem_functor0Iv14TableEditPieceEEEERKT_
FN:1129,_ZN4sigc4slotIvNS_3nilES1_S1_S1_S1_S1_S1_EC1INS_18bound_mem_functor0Iv14TableEditPieceEEEERKT_
FN:41,_ZN4sigc8internal14typed_slot_repINS_18bound_mem_functor0Iv14TableEditPieceEEEC1ERKS5_
FN:74,_ZN4sigc8internal14typed_slot_repINS_18bound_mem_functor0Iv14TableEditPieceEEE3dupEPv
FN:55,_ZN4sigc8internal14typed_slot_repINS_18bound_mem_functor1Ib14TableEditPieceP15_GdkEventExposeEEE7destroyEPv
FN:55,_ZN4sigc8internal14typed_slot_repINS_18bound_mem_functor0Iv14TableEditPieceEEE7destroyEPv
FNDA:0,_ZN4sigc8internal14typed_slot_repINS_18bound_mem_functor1Ib14TableEditPieceP15_GdkEventExposeEEEC1ERKS6_
FNDA:0,_ZN4sigc8internal14typed_slot_repINS_18bound_mem_functor0Iv14TableEditPieceEEEC1ERKS4_
FNDA:0,_ZN4sigc8internal14typed_slot_repINS_18bound_mem_functor1Ib14TableEditPieceP15_GdkEventExposeEEEC1ERKS7_
FNDA:0,_ZN4sigc8internal14typed_slot_repINS_18bound_mem_functor0Iv14TableEditPieceEEEC1ERKS5_
FNDA:0,_ZN4sigc8internal14typed_slot_repINS_18bound_mem_functor1Ib14TableEditPieceP15_GdkEventExposeEEE7destroyEPv
FNDA:0,_ZN4sigc8internal14typed_slot_repINS_18bound_mem_functor0Iv14TableEditPieceEEE7destroyEPv
FNDA:0,_ZN4sigc8internal14typed_slot_repINS_18bound_mem_functor1Ib14TableEditPieceP15_GdkEventExposeEEE3dupEPv
FNDA:0,_ZN4sigc8internal14typed_slot_repINS_18bound_mem_functor0Iv14TableEditPieceEEE3dupEPv
FNDA:0,_ZN4sigc8internal10slot_call0INS_18bound_mem_functor0Iv14TableEditPieceEEvE7call_itEPNS0_8slot_repE
FNDA:0,_ZN4sigc8internal10slot_call0INS_18bound_mem_functor0Iv14TableEditPieceEEvE7addressEv
FNDA:0,_ZN4sigc8internal10slot_call1INS_18bound_mem_functor1Ib14TableEditPieceP15_GdkEventExposeEEbS5_E7call_itEPNS0_8slot_repERKS5_
FNDA:0,_ZN4sigc8internal10slot_call1INS_18bound_mem_functor1Ib14TableEditPieceP15_GdkEventExposeEEbS5_E7addressEv
FNDA:0,_ZN4sigc5slot0IvED2Ev
FNDA:0,_ZN4sigc5slot0IvEC2INS_18bound_mem_functor0Iv14TableEditPieceEEEERKT_
FNDA:0,_ZN4sigc5slot1IbP15_GdkEventExposeED2Ev
FNDA:0,_ZN4sigc5slot1IbP15_GdkEventExposeEC2INS_18bound_mem_functor1Ib14TableEditPieceS2_EEEERKT_
FNDA:0,_ZN4sigc4slotIbP15_GdkEventExposeNS_3nilES3_S3_S3_S3_S3_ED1Ev
FNDA:0,_ZN4sigc4slotIvNS_3nilES1_S1_S1_S1_S1_S1_ED1Ev
FNDA:0,_ZN4sigc4slotIvNS_3nilES1_S1_S1_S1_S1_S1_EC1INS_18bound_mem_functor0Iv14TableEditPieceEEEERKT_
FNDA:0,_ZN4sigc4slotIbP15_GdkEventExposeNS_3nilES3_S3_S3_S3_S3_EC1INS_18bound_mem_functor1Ib14TableEditPieceS2_EEEERKT_
FNF:20
FNH:0
DA:37,0
DA:38,0
DA:39,0
DA:41,0
DA:42,0
DA:43,0
DA:55,0
DA:57,0
DA:58,0
DA:59,0
DA:60,0
DA:61,0
DA:66,0
DA:74,0
DA:76,0
DA:77,0
DA:99,0
DA:102,0
DA:103,0
DA:109,0
DA:110,0
DA:132,0
DA:135,0
DA:137,0
DA:143,0
DA:144,0
DA:422,0
DA:450,0
DA:451,0
DA:454,0
DA:455,0
DA:495,0
DA:525,0
DA:526,0
DA:529,0
DA:530,0
DA:1091,0
DA:1129,0
DA:1130,0
DA:1156,0
DA:1157,0
LF:41
LH:0
end_of_record
SF:/usr/include/sigc++-2.0/sigc++/functors/slot_base.h
FN:97,_ZN4sigc8internal8slot_rep7destroyEv
FN:142,_ZN4sigc8internal12slot_do_bindC1EPNS0_8slot_repE
FN:160,_ZN4sigc8internal14slot_do_unbindC1EPNS0_8slot_repE
FN:272,_ZNK4sigc9slot_base5emptyEv
FN:278,_ZNK4sigc9slot_base7blockedEv
FN:86,_ZN4sigc8internal8slot_repD2Ev
FN:83,_ZN4sigc8internal8slot_repC2EPFPvS2_ES4_S4_
FN:147,_ZNK4sigc8internal12slot_do_bindclEPKNS_9trackableE
FN:165,_ZNK4sigc8internal14slot_do_unbindclEPKNS_9trackableE
FNDA:0,_ZN4sigc8internal8slot_repC2EPFPvS2_ES4_S4_
FNDA:0,_ZN4sigc8internal8slot_repD2Ev
FNDA:0,_ZN4sigc8internal8slot_rep7destroyEv
FNDA:0,_ZN4sigc8internal12slot_do_bindC1EPNS0_8slot_repE
FNDA:0,_ZNK4sigc8internal12slot_do_bindclEPKNS_9trackableE
FNDA:0,_ZN4sigc8internal14slot_do_unbindC1EPNS0_8slot_repE
FNDA:0,_ZNK4sigc8internal14slot_do_unbindclEPKNS_9trackableE
FNDA:0,_ZNK4sigc9slot_base5emptyEv
FNDA:0,_ZNK4sigc9slot_base7blockedEv
FNF:9
FNH:0
DA:83,0
DA:84,0
DA:86,0
DA:87,0
DA:97,0
DA:98,0
DA:142,0
DA:147,0
DA:148,0
DA:160,0
DA:165,0
DA:166,0
DA:272,0
DA:273,0
DA:278,0
DA:279,0
BA:98,0
BA:98,0
BA:273,0
BA:273,0
BA:273,0
BA:273,0
LF:16
LH:0
end_of_record
SF:/usr/include/sigc++-2.0/sigc++/limit_reference.h
FN:79,_ZN4sigc15limit_referenceI14TableEditPieceLb1EEC1ERS1_
FN:95,_ZNK4sigc15limit_referenceI14TableEditPieceLb1EE6invokeEv
FN:88,_ZNK4sigc15limit_referenceI14TableEditPieceLb1EE5visitEv
FN:118,_ZN4sigc10visit_eachINS_8internal20limit_derived_targetIPNS_9trackableENS1_12slot_do_bindEEE14TableEditPieceLb1EEEvRKT_RKNS_15limit_referenceIT0_XT1_EEE
FN:118,_ZN4sigc10visit_eachINS_8internal20limit_derived_targetIPNS_9trackableENS1_14slot_do_unbindEEE14TableEditPieceLb1EEEvRKT_RKNS_15limit_referenceIT0_XT1_EEE
FNDA:0,_ZN4sigc15limit_referenceI14TableEditPieceLb1EEC1ERS1_
FNDA:0,_ZNK4sigc15limit_referenceI14TableEditPieceLb1EE5visitEv
FNDA:0,_ZNK4sigc15limit_referenceI14TableEditPieceLb1EE6invokeEv
FNDA:0,_ZN4sigc10visit_eachINS_8internal20limit_derived_targetIPNS_9trackableENS1_12slot_do_bindEEE14TableEditPieceLb1EEEvRKT_RKNS_15limit_referenceIT0_XT1_EEE
FNDA:0,_ZN4sigc10visit_eachINS_8internal20limit_derived_targetIPNS_9trackableENS1_14slot_do_unbindEEE14TableEditPieceLb1EEEvRKT_RKNS_15limit_referenceIT0_XT1_EEE
FNF:5
FNH:0
DA:79,0
DA:81,0
DA:82,0
DA:88,0
DA:89,0
DA:95,0
DA:96,0
DA:118,0
DA:121,0
DA:122,0
LF:10
LH:0
end_of_record
SF:/usr/include/sigc++-2.0/sigc++/signal.h
FN:680,_ZN4sigc8internal12signal_emit1IvRK5PieceNS_3nilEE4emitEPNS0_11signal_implES4_
FN:1815,_ZNK4sigc7signal1IvRK5PieceNS_3nilEE4emitES3_
FN:1772,_ZN4sigc7signal1IvRK5PieceNS_3nilEED2Ev
FN:2600,_ZN4sigc6signalIvRK5PieceNS_3nilES4_S4_S4_S4_S4_ED1Ev
FN:1846,_ZN4sigc7signal1IvRK5PieceNS_3nilEEC2Ev
FN:2722,_ZN4sigc6signalIvRK5PieceNS_3nilES4_S4_S4_S4_S4_EC1Ev
FNDA:0,_ZN4sigc8internal12signal_emit1IvRK5PieceNS_3nilEE4emitEPNS0_11signal_implES4_
FNDA:0,_ZN4sigc7signal1IvRK5PieceNS_3nilEED2Ev
FNDA:0,_ZNK4sigc7signal1IvRK5PieceNS_3nilEE4emitES3_
FNDA:0,_ZN4sigc7signal1IvRK5PieceNS_3nilEEC2Ev
FNDA:0,_ZN4sigc6signalIvRK5PieceNS_3nilES4_S4_S4_S4_S4_ED1Ev
FNDA:0,_ZN4sigc6signalIvRK5PieceNS_3nilES4_S4_S4_S4_S4_EC1Ev
FNF:6
FNH:0
DA:680,0
DA:682,0
DA:683,0
DA:684,0
DA:686,0
DA:688,0
DA:689,0
DA:690,0
DA:1772,0
DA:1815,0
DA:1816,0
DA:1846,0
DA:2600,0
DA:2722,0
BA:682,0
BA:682,0
BA:682,0
BA:682,0
BA:682,0
BA:682,0
BA:686,0
BA:686,0
BA:688,0
BA:688,0
BA:688,0
BA:688,0
BA:688,0
BA:688,0
LF:14
LH:0
end_of_record
SF:/usr/include/sigc++-2.0/sigc++/signal_base.h
FN:64,_ZN4sigc8internal11signal_impl14reference_execEv
FN:155,_ZN4sigc8internal11signal_execC1EPKNS0_11signal_implE
FN:189,_ZN4sigc8internal14temp_slot_list3endEv
FN:188,_ZN4sigc8internal14temp_slot_list5beginEv
FN:178,_ZN4sigc8internal14temp_slot_listC1ERSt4listINS_9slot_baseESaIS3_EE
FN:45,_ZN4sigc8internal11signal_implD1Ev
FN:183,_ZN4sigc8internal14temp_slot_listD1Ev
FN:77,_ZN4sigc8internal11signal_impl16unreference_execEv
FN:160,_ZN4sigc8internal11signal_execD1Ev
FNDA:0,_ZN4sigc8internal11signal_implD1Ev
FNDA:0,_ZN4sigc8internal11signal_impl14reference_execEv
FNDA:0,_ZN4sigc8internal11signal_impl16unreference_execEv
FNDA:0,_ZN4sigc8internal11signal_execC1EPKNS0_11signal_implE
FNDA:0,_ZN4sigc8internal11signal_execD1Ev
FNDA:0,_ZN4sigc8internal14temp_slot_listC1ERSt4listINS_9slot_baseESaIS3_EE
FNDA:0,_ZN4sigc8internal14temp_slot_listD1Ev
FNDA:0,_ZN4sigc8internal14temp_slot_list5beginEv
FNDA:0,_ZN4sigc8internal14temp_slot_list3endEv
FNF:9
FNH:0
DA:45,0
DA:64,0
DA:65,0
DA:77,0
DA:79,0
DA:80,0
DA:81,0
DA:155,0
DA:156,0
DA:157,0
DA:160,0
DA:161,0
DA:178,0
DA:180,0
DA:181,0
DA:183,0
DA:185,0
DA:186,0
DA:188,0
DA:189,0
BA:79,0
BA:79,0
BA:79,0
BA:79,0
BA:80,0
BA:80,0
BA:80,0
BA:80,0
BA:80,0
BA:80,0
LF:20
LH:0
end_of_record
SF:/usr/include/sigc++-2.0/sigc++/visit_each.h
FN:103,_ZN4sigc8internal20limit_derived_targetIPNS_9trackableENS0_12slot_do_bindEEC1ERKS4_
FN:103,_ZN4sigc8internal20limit_derived_targetIPNS_9trackableENS0_14slot_do_unbindEEC1ERKS4_
FN:87,_ZN4sigc8internal17with_type_pointerILb1ENS_9trackableENS0_20limit_derived_targetIPS2_NS0_12slot_do_bindEEEE8execute_ERKS2_RKS6_
FN:98,_ZNK4sigc8internal20limit_derived_targetIPNS_9trackableENS0_12slot_do_bindEEclIS2_EEvRKT_
FN:143,_ZN4sigc10visit_eachINS_8internal20limit_derived_targetIPNS_9trackableENS1_12slot_do_bindEEES3_EEvRKT_RKT0_
FN:152,_ZN4sigc15visit_each_typeIPNS_9trackableENS_8internal12slot_do_bindENS_15adaptor_functorINS_18bound_mem_functor1Ib14TableEditPieceP15_GdkEventExposeEEEEEEvRKT0_RKT1_
FN:152,_ZN4sigc15visit_each_typeIPNS_9trackableENS_8internal12slot_do_bindENS_15adaptor_functorINS_18bound_mem_functor0Iv14TableEditPieceEEEEEEvRKT0_RKT1_
FN:87,_ZN4sigc8internal17with_type_pointerILb1ENS_9trackableENS0_20limit_derived_targetIPS2_NS0_14slot_do_unbindEEEE8execute_ERKS2_RKS6_
FN:98,_ZNK4sigc8internal20limit_derived_targetIPNS_9trackableENS0_14slot_do_unbindEEclIS2_EEvRKT_
FN:143,_ZN4sigc10visit_eachINS_8internal20limit_derived_targetIPNS_9trackableENS1_14slot_do_unbindEEES3_EEvRKT_RKT0_
FN:152,_ZN4sigc15visit_each_typeIPNS_9trackableENS_8internal14slot_do_unbindENS_15adaptor_functorINS_18bound_mem_functor1Ib14TableEditPieceP15_GdkEventExposeEEEEEEvRKT0_RKT1_
FN:152,_ZN4sigc15visit_each_typeIPNS_9trackableENS_8internal14slot_do_unbindENS_15adaptor_functorINS_18bound_mem_functor0Iv14TableEditPieceEEEEEEvRKT0_RKT1_
FNDA:0,_ZN4sigc8internal17with_type_pointerILb1ENS_9trackableENS0_20limit_derived_targetIPS2_NS0_12slot_do_bindEEEE8execute_ERKS2_RKS6_
FNDA:0,_ZN4sigc8internal17with_type_pointerILb1ENS_9trackableENS0_20limit_derived_targetIPS2_NS0_14slot_do_unbindEEEE8execute_ERKS2_RKS6_
FNDA:0,_ZNK4sigc8internal20limit_derived_targetIPNS_9trackableENS0_12slot_do_bindEEclIS2_EEvRKT_
FNDA:0,_ZNK4sigc8internal20limit_derived_targetIPNS_9trackableENS0_14slot_do_unbindEEclIS2_EEvRKT_
FNDA:0,_ZN4sigc8internal20limit_derived_targetIPNS_9trackableENS0_12slot_do_bindEEC1ERKS4_
FNDA:0,_ZN4sigc8internal20limit_derived_targetIPNS_9trackableENS0_14slot_do_unbindEEC1ERKS4_
FNDA:0,_ZN4sigc10visit_eachINS_8internal20limit_derived_targetIPNS_9trackableENS1_12slot_do_bindEEES3_EEvRKT_RKT0_
FNDA:0,_ZN4sigc10visit_eachINS_8internal20limit_derived_targetIPNS_9trackableENS1_14slot_do_unbindEEES3_EEvRKT_RKT0_
FNDA:0,_ZN4sigc15visit_each_typeIPNS_9trackableENS_8internal12slot_do_bindENS_15adaptor_functorINS_18bound_mem_functor1Ib14TableEditPieceP15_GdkEventExposeEEEEEEvRKT0_RKT1_
FNDA:0,_ZN4sigc15visit_each_typeIPNS_9trackableENS_8internal12slot_do_bindENS_15adaptor_functorINS_18bound_mem_functor0Iv14TableEditPieceEEEEEEvRKT0_RKT1_
FNDA:0,_ZN4sigc15visit_each_typeIPNS_9trackableENS_8internal14slot_do_unbindENS_15adaptor_functorINS_18bound_mem_functor1Ib14TableEditPieceP15_GdkEventExposeEEEEEEvRKT0_RKT1_
FNDA:0,_ZN4sigc15visit_each_typeIPNS_9trackableENS_8internal14slot_do_unbindENS_15adaptor_functorINS_18bound_mem_functor0Iv14TableEditPieceEEEEEEvRKT0_RKT1_
FNF:12
FNH:0
DA:87,0
DA:88,0
DA:98,0
DA:100,0
DA:101,0
DA:103,0
DA:104,0
DA:105,0
DA:143,0
DA:144,0
DA:152,0
DA:156,0
DA:170,0
DA:171,0
LF:14
LH:0
end_of_record
SF:/home/frechilla/workspace/headless/blockem_sourceforge/src/coordinate.h
FN:47,_ZN10CoordinateaSERKS_
FN:47,_ZN10CoordinateC1ERKS_
FN:57,_ZN10CoordinateD0Ev
FN:57,_ZN10CoordinateD1Ev
FNDA:0,_ZN10CoordinateaSERKS_
FNDA:0,_ZN10CoordinateC1ERKS_
FNDA:0,_ZN10CoordinateD0Ev
FNDA:0,_ZN10CoordinateD1Ev
FNF:4
FNH:0
DA:47,0
DA:57,0
DA:58,0
BA:58,0
BA:58,0
BA:58,0
BA:58,0
LF:3
LH:0
end_of_record
SF:/home/frechilla/workspace/headless/blockem_sourceforge/src/gui_exception.h
FN:47,_ZNK12GUIException4whatEv
FN:39,_ZN12GUIExceptionC1ERKSs
FN:44,_ZN12GUIExceptionD0Ev
FN:44,_ZN12GUIExceptionD1Ev
FNDA:0,_ZN12GUIExceptionC1ERKSs
FNDA:0,_ZN12GUIExceptionD0Ev
FNDA:0,_ZN12GUIExceptionD1Ev
FNDA:0,_ZNK12GUIException4whatEv
FNF:4
FNH:0
DA:39,0
DA:41,0
DA:42,0
DA:44,0
DA:45,0
DA:47,0
DA:48,0
DA:49,0
BA:45,0
BA:45,0
BA:45,0
BA:45,0
LF:8
LH:0
end_of_record
SF:/home/frechilla/workspace/headless/blockem_sourceforge/src/gui_glade_defs.h
DA:97,17
DA:98,34
DA:99,34
DA:100,34
LF:4
LH:4
end_of_record
SF:/home/frechilla/workspace/headless/blockem_sourceforge/src/gui_table_edit_piece.cpp
FN:333,_Z41__static_initialization_and_destruction_0ii
FN:333,_GLOBAL__I__ZN14TableEditPieceC2EP9_GtkTableRKN4Glib6RefPtrIN3Gtk7BuilderEEE
FN:316,_ZN14TableEditPiece30InvalidateEditPieceDrawingAreaEv
FN:136,_ZN14TableEditPiece11SetPieceRGBEfff
FN:300,_ZN14TableEditPiece31MirrorXAxisButton_ButtonPressedEv
FN:284,_ZN14TableEditPiece31MirrorYAxisButton_ButtonPressedEv
FN:268,_ZN14TableEditPiece30RotateLeftButton_ButtonPressedEv
FN:252,_ZN14TableEditPiece31RotateRightButton_ButtonPressedEv
FN:184,_ZN14TableEditPiece32EditPieceDrawingArea_ExposeEventEP15_GdkEventExpose
FN:146,_ZN14TableEditPiece8SetPieceE12ePieceType_t
FN:125,_ZN14TableEditPiece13set_sensitiveEi
FN:121,_ZN14TableEditPieceD0Ev
FN:121,_ZN14TableEditPieceD1Ev
FN:121,_ZN14TableEditPieceD2Ev
FN:46,_ZN14TableEditPieceC1EP9_GtkTableRKN4Glib6RefPtrIN3Gtk7BuilderEEE
FN:46,_ZN14TableEditPieceC2EP9_GtkTableRKN4Glib6RefPtrIN3Gtk7BuilderEEE
FNDA:0,_ZN14TableEditPieceC1EP9_GtkTableRKN4Glib6RefPtrIN3Gtk7BuilderEEE
FNDA:0,_ZN14TableEditPieceC2EP9_GtkTableRKN4Glib6RefPtrIN3Gtk7BuilderEEE
FNDA:0,_ZN14TableEditPieceD0Ev
FNDA:0,_ZN14TableEditPieceD1Ev
FNDA:0,_ZN14TableEditPieceD2Ev
FNDA:0,_ZN14TableEditPiece13set_sensitiveEi
FNDA:0,_ZN14TableEditPiece11SetPieceRGBEfff
FNDA:0,_ZN14TableEditPiece8SetPieceE12ePieceType_t
FNDA:0,_ZN14TableEditPiece32EditPieceDrawingArea_ExposeEventEP15_GdkEventExpose
FNDA:0,_ZN14TableEditPiece31RotateRightButton_ButtonPressedEv
FNDA:0,_ZN14TableEditPiece30RotateLeftButton_ButtonPressedEv
FNDA:0,_ZN14TableEditPiece31MirrorYAxisButton_ButtonPressedEv
FNDA:0,_ZN14TableEditPiece31MirrorXAxisButton_ButtonPressedEv
FNDA:0,_ZN14TableEditPiece30InvalidateEditPieceDrawingAreaEv
FNDA:17,_Z41__static_initialization_and_destruction_0ii
FNDA:17,_GLOBAL__I__ZN14TableEditPieceC2EP9_GtkTableRKN4Glib6RefPtrIN3Gtk7BuilderEEE
FNF:16
FNH:2
DA:46,0
DA:47,0
DA:53,0
DA:56,0
DA:57,0
DA:59,0
DA:62,0
DA:63,0
DA:65,0
DA:68,0
DA:69,0
DA:71,0
DA:74,0
DA:75,0
DA:77,0
DA:80,0
DA:81,0
DA:83,0
DA:86,0
DA:87,0
DA:89,0
DA:92,0
DA:93,0
DA:95,0
DA:100,0
DA:103,0
DA:105,0
DA:107,0
DA:109,0
DA:113,0
DA:114,0
DA:115,0
DA:116,0
DA:117,0
DA:118,0
DA:119,0
DA:121,0
DA:123,0
DA:125,0
DA:127,0
DA:129,0
DA:133,0
DA:134,0
DA:136,0
DA:138,0
DA:139,0
DA:140,0
DA:143,0
DA:144,0
DA:146,0
DA:150,0
DA:153,0
DA:156,0
DA:158,0
DA:160,0
DA:161,0
DA:162,0
DA:163,0
DA:164,0
DA:165,0
DA:169,0
DA:170,0
DA:171,0
DA:172,0
DA:173,0
DA:174,0
DA:178,0
DA:181,0
DA:184,0
DA:187,0
DA:188,0
DA:190,0
DA:192,0
DA:193,0
DA:194,0
DA:196,0
DA:197,0
DA:200,0
DA:201,0
DA:204,0
DA:209,0
DA:210,0
DA:213,0
DA:217,0
DA:223,0
DA:225,0
DA:228,0
DA:233,0
DA:236,0
DA:242,0
DA:244,0
DA:246,0
DA:249,0
DA:252,0
DA:255,0
DA:257,0
DA:260,0
DA:263,0
DA:265,0
DA:268,0
DA:271,0
DA:273,0
DA:276,0
DA:279,0
DA:281,0
DA:284,0
DA:287,0
DA:289,0
DA:292,0
DA:295,0
DA:297,0
DA:300,0
DA:303,0
DA:305,0
DA:308,0
DA:311,0
DA:313,0
DA:316,0
DA:319,0
DA:320,0
DA:326,0
DA:328,0
DA:329,0
DA:332,0
DA:333,51
BA:57,0
BA:57,0
BA:57,0
BA:57,0
BA:63,0
BA:63,0
BA:63,0
BA:63,0
BA:69,0
BA:69,0
BA:69,0
BA:69,0
BA:75,0
BA:75,0
BA:75,0
BA:75,0
BA:81,0
BA:81,0
BA:81,0
BA:81,0
BA:87,0
BA:87,0
BA:87,0
BA:87,0
BA:93,0
BA:93,0
BA:93,0
BA:93,0
BA:123,0
BA:123,0
BA:123,0
BA:123,0
BA:123,0
BA:123,0
BA:123,0
BA:123,0
BA:123,0
BA:123,0
BA:123,0
BA:123,0
BA:123,0
BA:123,0
BA:123,0
BA:123,0
BA:123,0
BA:123,0
BA:123,0
BA:123,0
BA:123,0
BA:123,0
BA:123,0
BA:123,0
BA:123,0
BA:123,0
BA:123,0
BA:123,0
BA:123,0
BA:123,0
BA:127,0
BA:127,0
BA:127,0
BA:127,0
BA:127,0
BA:127,0
BA:150,0
BA:150,0
BA:150,0
BA:150,0
BA:150,0
BA:150,0
BA:158,0
BA:158,0
BA:188,0
BA:188,0
BA:228,0
BA:228,0
BA:236,0
BA:236,0
BA:255,0
BA:255,0
BA:255,0
BA:255,0
BA:255,0
BA:255,0
BA:271,0
BA:271,0
BA:271,0
BA:271,0
BA:271,0
BA:271,0
BA:287,0
BA:287,0
BA:287,0
BA:287,0
BA:287,0
BA:287,0
BA:303,0
BA:303,0
BA:303,0
BA:303,0
BA:303,0
BA:303,0
BA:320,0
BA:320,0
BA:333,2
BA:333,1
BA:333,2
BA:333,1
LF:125
LH:1
end_of_record
SF:/home/frechilla/workspace/headless/blockem_sourceforge/src/gui_table_edit_piece.h
FN:68,_ZN14TableEditPiece8GetPieceEv
FNDA:0,_ZN14TableEditPiece8GetPieceEv
FNF:1
FNH:0
DA:68,0
DA:70,0
LF:2
LH:0
end_of_record
SF:/home/frechilla/workspace/headless/blockem_sourceforge/src/piece.h
FN:152,_ZNK5Piece7GetTypeEv
FN:158,_ZNK5Piece11GetNSquaresEv
FN:125,_ZNK5Piece13GetNRotationsEv
FN:134,_ZNK5Piece9CanMirrorEv
FN:202,_ZNK5Piece8GetCoordEi
FN:92,_ZN5PieceaSERKS_
FNDA:0,_ZN5PieceaSERKS_
FNDA:3602,_ZNK5Piece13GetNRotationsEv
FNDA:0,_ZNK5Piece9CanMirrorEv
FNDA:0,_ZNK5Piece7GetTypeEv
FNDA:0,_ZNK5Piece11GetNSquaresEv
FNDA:0,_ZNK5Piece8GetCoordEi
FNF:6
FNH:1
DA:92,0
DA:125,3602
DA:128,3602
DA:130,3602
DA:134,0
DA:137,0
DA:139,0
DA:152,0
DA:154,0
DA:158,0
DA:160,0
DA:202,0
DA:205,0
DA:207,0
BA:128,2
BA:128,1
BA:137,0
BA:137,0
BA:205,0
BA:205,0
LF:14
LH:3
end_of_record
TN:
SF:/usr/include/c++/4.4/bits/allocator.h
FN:167,_ZNSt11__alloc_neqISaISt10_List_nodeISt6vectorI10CoordinateSaIS2_EEEELb1EE8_S_do_itERKS6_S9_
FN:167,_ZNSt11__alloc_neqISaISt10_List_nodeIyEELb1EE8_S_do_itERKS2_S5_
FN:101,_ZNSaIcEC1Ev
FN:103,_ZNSaIcEC2ERKS_
FN:109,_ZNSaIcED1Ev
FN:103,_ZNSaIcEC1ERKS_
FN:109,_ZNSaIcED2Ev
FN:101,_ZNSaI10CoordinateEC1Ev
FN:103,_ZNSaI10CoordinateEC2ERKS0_
FN:109,_ZNSaI10CoordinateED2Ev
FN:109,_ZNSaI10CoordinateED1Ev
FN:107,_ZNSaISt6vectorI10CoordinateSaIS0_EEEC1ISt10_List_nodeIS2_EEERKSaIT_E
FN:109,_ZNSaISt6vectorI10CoordinateSaIS0_EEED1Ev
FN:107,_ZNSaISt10_List_nodeISt6vectorI10CoordinateSaIS1_EEEEC1IS3_EERKSaIT_E
FN:103,_ZNSaISt10_List_nodeISt6vectorI10CoordinateSaIS1_EEEEC2ERKS5_
FN:109,_ZNSaISt10_List_nodeISt6vectorI10CoordinateSaIS1_EEEED1Ev
FN:109,_ZNSaISt10_List_nodeISt6vectorI10CoordinateSaIS1_EEEED2Ev
FN:107,_ZNSaIyEC1ISt10_List_nodeIyEEERKSaIT_E
FN:109,_ZNSaIyED1Ev
FN:107,_ZNSaISt10_List_nodeIyEEC1IyEERKSaIT_E
FN:103,_ZNSaISt10_List_nodeIyEEC2ERKS1_
FN:109,_ZNSaISt10_List_nodeIyEED1Ev
FN:109,_ZNSaISt10_List_nodeIyEED2Ev
FNDA:0,_ZNSaIcEC1Ev
FNDA:28626,_ZNSaI10CoordinateEC1Ev
FNDA:0,_ZNSaIcEC2ERKS_
FNDA:0,_ZNSaIcEC1ERKS_
FNDA:35158,_ZNSaI10CoordinateEC2ERKS0_
FNDA:774,_ZNSaISt10_List_nodeISt6vectorI10CoordinateSaIS1_EEEEC2ERKS5_
FNDA:774,_ZNSaISt10_List_nodeIyEEC2ERKS1_
FNDA:13838,_ZNSaISt6vectorI10CoordinateSaIS0_EEEC1ISt10_List_nodeIS2_EEERKSaIT_E
FNDA:774,_ZNSaISt10_List_nodeISt6vectorI10CoordinateSaIS1_EEEEC1IS3_EERKSaIT_E
FNDA:13838,_ZNSaIyEC1ISt10_List_nodeIyEEERKSaIT_E
FNDA:774,_ZNSaISt10_List_nodeIyEEC1IyEERKSaIT_E
FNDA:0,_ZNSaIcED1Ev
FNDA:0,_ZNSaIcED2Ev
FNDA:35158,_ZNSaI10CoordinateED2Ev
FNDA:29190,_ZNSaI10CoordinateED1Ev
FNDA:13838,_ZNSaISt6vectorI10CoordinateSaIS0_EEED1Ev
FNDA:774,_ZNSaISt10_List_nodeISt6vectorI10CoordinateSaIS1_EEEED1Ev
FNDA:2324,_ZNSaISt10_List_nodeISt6vectorI10CoordinateSaIS1_EEEED2Ev
FNDA:13838,_ZNSaIyED1Ev
FNDA:774,_ZNSaISt10_List_nodeIyEED1Ev
FNDA:2324,_ZNSaISt10_List_nodeIyEED2Ev
FNDA:774,_ZNSt11__alloc_neqISaISt10_List_nodeISt6vectorI10CoordinateSaIS2_EEEELb1EE8_S_do_itERKS6_S9_
FNDA:774,_ZNSt11__alloc_neqISaISt10_List_nodeIyEELb1EE8_S_do_itERKS2_S5_
FNF:23
FNH:18
DA:101,28626
DA:103,36706
DA:104,36706
DA:107,29224
DA:109,98220
DA:167,1548
DA:168,1548
LF:7
LH:7
end_of_record
SF:/usr/include/c++/4.4/bits/basic_ios.h
FN:127,_ZNKSt9basic_iosIcSt11char_traitsIcEE7rdstateEv
FN:191,_ZNKSt9basic_iosIcSt11char_traitsIcEE4failEv
FN:115,_ZNKSt9basic_iosIcSt11char_traitsIcEEntEv
FN:46,_ZSt13__check_facetISt5ctypeIcEERKT_PS3_
FN:439,_ZNKSt9basic_iosIcSt11char_traitsIcEE5widenEc
FN:147,_ZNSt9basic_iosIcSt11char_traitsIcEE8setstateESt12_Ios_Iostate
FNDA:0,_ZSt13__check_facetISt5ctypeIcEERKT_PS3_
FNDA:0,_ZNKSt9basic_iosIcSt11char_traitsIcEEntEv
FNDA:0,_ZNKSt9basic_iosIcSt11char_traitsIcEE7rdstateEv
FNDA:0,_ZNSt9basic_iosIcSt11char_traitsIcEE8setstateESt12_Ios_Iostate
FNDA:0,_ZNKSt9basic_iosIcSt11char_traitsIcEE4failEv
FNDA:0,_ZNKSt9basic_iosIcSt11char_traitsIcEE5widenEc
FNF:6
FNH:0
DA:46,0
DA:48,0
DA:49,0
DA:50,0
DA:115,0
DA:116,0
DA:127,0
DA:128,0
DA:147,0
DA:148,0
DA:191,0
DA:192,0
DA:439,0
DA:440,0
BA:48,0
BA:48,0
LF:14
LH:0
end_of_record
SF:/usr/include/c++/4.4/bits/basic_string.h
FN:209,_ZNSs4_Rep10_M_refdataEv
FN:272,_ZNKSs7_M_dataEv
FN:280,_ZNKSs6_M_repEv
FN:623,_ZNKSs4sizeEv
FN:173,_ZNSs4_Rep12_S_empty_repEv
FN:406,_ZNSs12_S_empty_repEv
FN:183,_ZNKSs4_Rep12_M_is_leakedEv
FN:254,_ZNSs12_Alloc_hiderC1EPcRKSaIcE
FN:2147,_ZNSsC1Ev
FN:1632,_ZNKSs13get_allocatorEv
FN:253,_ZNSs12_Alloc_hiderD1Ev
FN:2541,_ZSt7getlineIcSt11char_traitsIcESaIcEERSt13basic_istreamIT_T0_ES7_RSbIS4_S5_T1_E
FN:294,_ZNSs7_M_leakEv
FN:775,_ZNSs2atEj
FN:224,_ZNSs4_Rep10_M_disposeERKSaIcE
FN:497,_ZNSsD1Ev
FNDA:0,_ZNSs4_Rep12_S_empty_repEv
FNDA:0,_ZNKSs4_Rep12_M_is_leakedEv
FNDA:0,_ZNSs4_Rep10_M_refdataEv
FNDA:0,_ZNSs4_Rep10_M_disposeERKSaIcE
FNDA:0,_ZNSs12_Alloc_hiderD1Ev
FNDA:0,_ZNSs12_Alloc_hiderC1EPcRKSaIcE
FNDA:0,_ZNKSs7_M_dataEv
FNDA:0,_ZNKSs6_M_repEv
FNDA:0,_ZNSs7_M_leakEv
FNDA:0,_ZNSs12_S_empty_repEv
FNDA:0,_ZNSsD1Ev
FNDA:0,_ZNKSs4sizeEv
FNDA:0,_ZNSs2atEj
FNDA:0,_ZNKSs13get_allocatorEv
FNDA:0,_ZNSsC1Ev
FNDA:0,_ZSt7getlineIcSt11char_traitsIcESaIcEERSt13basic_istreamIT_T0_ES7_RSbIS4_S5_T1_E
FNF:16
FNH:0
DA:173,0
DA:178,0
DA:179,0
DA:183,0
DA:184,0
DA:209,0
DA:210,0
DA:224,0
DA:227,0
DA:229,0
DA:231,0
DA:232,0
DA:253,0
DA:254,0
DA:255,0
DA:272,0
DA:273,0
DA:280,0
DA:281,0
DA:294,0
DA:296,0
DA:297,0
DA:298,0
DA:406,0
DA:407,0
DA:497,0
DA:498,0
DA:623,0
DA:624,0
DA:775,0
DA:777,0
DA:778,0
DA:779,0
DA:780,0
DA:1632,0
DA:1633,0
DA:2147,0
DA:2150,0
DA:2541,0
DA:2543,0
BA:227,0
BA:227,0
BA:229,0
BA:229,0
BA:296,0
BA:296,0
BA:777,0
BA:777,0
LF:40
LH:0
end_of_record
SF:/usr/include/c++/4.4/bits/char_traits.h
FN:262,_ZNSt11char_traitsIcE6lengthEPKc
FNDA:0,_ZNSt11char_traitsIcE6lengthEPKc
FNF:1
FNH:0
DA:262,0
DA:263,0
LF:2
LH:0
end_of_record
SF:/usr/include/c++/4.4/bits/ios_base.h
FN:162,_ZStanSt12_Ios_IostateS_
FN:166,_ZStorSt12_Ios_IostateS_
FNDA:0,_ZStanSt12_Ios_IostateS_
FNDA:0,_ZStorSt12_Ios_IostateS_
FNF:2
FNH:0
DA:162,0
DA:163,0
DA:166,0
DA:167,0
LF:4
LH:0
end_of_record
SF:/usr/include/c++/4.4/bits/list.tcc
FN:64,_ZNSt10_List_baseISt6vectorI10CoordinateSaIS1_EESaIS3_EE8_M_clearEv
FN:64,_ZNSt10_List_baseIySaIyEE8_M_clearEv
FN:107,_ZNSt4listISt6vectorI10CoordinateSaIS1_EESaIS3_EE5eraseESt14_List_iteratorIS3_E
FN:107,_ZNSt4listIySaIyEE5eraseESt14_List_iteratorIyE
FN:132,_ZNSt4listISt6vectorI10CoordinateSaIS1_EESaIS3_EEaSERKS5_
FN:132,_ZNSt4listIySaIyEEaSERKS1_
FNDA:2324,_ZNSt10_List_baseISt6vectorI10CoordinateSaIS1_EESaIS3_EE8_M_clearEv
FNDA:2324,_ZNSt10_List_baseIySaIyEE8_M_clearEv
FNDA:0,_ZNSt4listISt6vectorI10CoordinateSaIS1_EESaIS3_EE5eraseESt14_List_iteratorIS3_E
FNDA:0,_ZNSt4listIySaIyEE5eraseESt14_List_iteratorIyE
FNDA:831,_ZNSt4listISt6vectorI10CoordinateSaIS1_EESaIS3_EEaSERKS5_
FNDA:831,_ZNSt4listIySaIyEEaSERKS1_
FNF:6
FNH:4
DA:64,4648
DA:68,4648
DA:69,22360
DA:71,13064
DA:72,13064
DA:76,13064
DA:78,13064
DA:80,4648
DA:107,0
DA:110,0
DA:111,0
DA:132,1662
DA:135,1662
DA:137,1662
DA:138,1662
DA:139,1662
DA:140,1662
DA:141,2060
DA:143,398
DA:144,1662
DA:145,114
DA:147,1548
DA:149,1662
BA:69,2
BA:69,2
BA:69,2
BA:69,2
BA:135,2
BA:135,1
BA:135,2
BA:135,1
BA:141,2
BA:141,2
BA:141,2
BA:141,1
BA:141,2
BA:141,2
BA:141,2
BA:141,2
BA:141,2
BA:141,1
BA:141,2
BA:141,2
BA:144,2
BA:144,2
BA:144,2
BA:144,2
LF:23
LH:20
end_of_record
SF:/usr/include/c++/4.4/bits/locale_facets.h
FN:865,_ZNKSt5ctypeIcE5widenEc
FNDA:0,_ZNKSt5ctypeIcE5widenEc
FNF:1
FNH:0
DA:865,0
DA:867,0
DA:868,0
DA:869,0
DA:870,0
BA:867,0
BA:867,0
LF:5
LH:0
end_of_record
SF:/usr/include/c++/4.4/bits/stl_algobase.h
FN:287,_ZNSt12__miter_baseIN9__gnu_cxx17__normal_iteratorIPK10CoordinateSt6vectorIS2_SaIS2_EEEELb0EE3__bES8_
FN:287,_ZNSt12__miter_baseIP10CoordinateLb0EE3__bES1_
FN:277,_ZNSt12__niter_baseIN9__gnu_cxx17__normal_iteratorIPK10CoordinateSt6vectorIS2_SaIS2_EEEELb1EE3__bES8_
FN:269,_ZNSt12__niter_baseIP10CoordinateLb0EE3__bES1_
FN:277,_ZNSt12__niter_baseIN9__gnu_cxx17__normal_iteratorIP10CoordinateSt6vectorIS2_SaIS2_EEEELb1EE3__bES7_
FN:338,_ZNSt11__copy_moveILb0ELb0ESt26random_access_iterator_tagE8__copy_mIPK10CoordinatePS3_EET0_T_S8_S7_
FN:386,_ZSt13__copy_move_aILb0EPK10CoordinatePS0_ET1_T0_S5_S4_
FN:431,_ZSt14__copy_move_a2ILb0EN9__gnu_cxx17__normal_iteratorIPK10CoordinateSt6vectorIS2_SaIS2_EEEENS1_IPS2_S7_EEET1_T0_SC_SB_
FN:458,_ZSt4copyIN9__gnu_cxx17__normal_iteratorIPK10CoordinateSt6vectorIS2_SaIS2_EEEENS1_IPS2_S7_EEET0_T_SC_SB_
FN:338,_ZNSt11__copy_moveILb0ELb0ESt26random_access_iterator_tagE8__copy_mIP10CoordinateS4_EET0_T_S6_S5_
FN:386,_ZSt13__copy_move_aILb0EP10CoordinateS1_ET1_T0_S3_S2_
FN:431,_ZSt14__copy_move_a2ILb0EP10CoordinateS1_ET1_T0_S3_S2_
FN:458,_ZSt4copyIP10CoordinateS1_ET0_T_S3_S2_
FNDA:4626,_ZNSt12__niter_baseIP10CoordinateLb0EE3__bES1_
FNDA:638,_ZNSt12__niter_baseIN9__gnu_cxx17__normal_iteratorIPK10CoordinateSt6vectorIS2_SaIS2_EEEELb1EE3__bES8_
FNDA:319,_ZNSt12__niter_baseIN9__gnu_cxx17__normal_iteratorIP10CoordinateSt6vectorIS2_SaIS2_EEEELb1EE3__bES7_
FNDA:638,_ZNSt12__miter_baseIN9__gnu_cxx17__normal_iteratorIPK10CoordinateSt6vectorIS2_SaIS2_EEEELb0EE3__bES8_
FNDA:3084,_ZNSt12__miter_baseIP10CoordinateLb0EE3__bES1_
FNDA:319,_ZNSt11__copy_moveILb0ELb0ESt26random_access_iterator_tagE8__copy_mIPK10CoordinatePS3_EET0_T_S8_S7_
FNDA:1542,_ZNSt11__copy_moveILb0ELb0ESt26random_access_iterator_tagE8__copy_mIP10CoordinateS4_EET0_T_S6_S5_
FNDA:319,_ZSt13__copy_move_aILb0EPK10CoordinatePS0_ET1_T0_S5_S4_
FNDA:1542,_ZSt13__copy_move_aILb0EP10CoordinateS1_ET1_T0_S3_S2_
FNDA:319,_ZSt14__copy_move_a2ILb0EN9__gnu_cxx17__normal_iteratorIPK10CoordinateSt6vectorIS2_SaIS2_EEEENS1_IPS2_S7_EEET1_T0_SC_SB_
FNDA:1542,_ZSt14__copy_move_a2ILb0EP10CoordinateS1_ET1_T0_S3_S2_
FNDA:319,_ZSt4copyIN9__gnu_cxx17__normal_iteratorIPK10CoordinateSt6vectorIS2_SaIS2_EEEENS1_IPS2_S7_EEET0_T_SC_SB_
FNDA:1542,_ZSt4copyIP10CoordinateS1_ET0_T_S3_S2_
FNF:13
FNH:13
DA:269,4626
DA:270,4626
DA:277,957
DA:278,957
DA:287,3722
DA:288,3722
DA:338,1861
DA:341,3170
DA:343,1309
DA:344,1309
DA:345,1309
DA:347,1861
DA:386,1861
DA:394,1861
DA:397,1861
DA:431,1861
DA:436,1861
DA:458,1861
DA:468,1861
BA:341,2
BA:341,2
BA:341,1
BA:341,2
LF:19
LH:19
end_of_record
SF:/usr/include/c++/4.4/bits/stl_construct.h
FN:82,_ZSt8_DestroyI10CoordinateEvPT_
FN:90,_ZNSt12_Destroy_auxILb0EE9__destroyIP10CoordinateEEvT_S4_
FN:112,_ZSt8_DestroyIP10CoordinateEvT_S2_
FN:139,_ZSt8_DestroyIP10CoordinateS0_EvT_S2_RSaIT0_E
FN:90,_ZNSt12_Destroy_auxILb0EE9__destroyIN9__gnu_cxx17__normal_iteratorIP10CoordinateSt6vectorIS4_SaIS4_EEEEEEvT_SA_
FN:112,_ZSt8_DestroyIN9__gnu_cxx17__normal_iteratorIP10CoordinateSt6vectorIS2_SaIS2_EEEEEvT_S8_
FN:139,_ZSt8_DestroyIN9__gnu_cxx17__normal_iteratorIP10CoordinateSt6vectorIS2_SaIS2_EEEES2_EvT_S8_RSaIT0_E
FN:70,_ZSt10_ConstructI10CoordinateS0_EvPT_RKT0_
FNDA:143130,_ZSt10_ConstructI10CoordinateS0_EvPT_RKT0_
FNDA:179437,_ZSt8_DestroyI10CoordinateEvPT_
FNDA:37416,_ZNSt12_Destroy_auxILb0EE9__destroyIP10CoordinateEEvT_S4_
FNDA:319,_ZNSt12_Destroy_auxILb0EE9__destroyIN9__gnu_cxx17__normal_iteratorIP10CoordinateSt6vectorIS4_SaIS4_EEEEEEvT_SA_
FNDA:37416,_ZSt8_DestroyIP10CoordinateEvT_S2_
FNDA:319,_ZSt8_DestroyIN9__gnu_cxx17__normal_iteratorIP10CoordinateSt6vectorIS2_SaIS2_EEEEEvT_S8_
FNDA:37416,_ZSt8_DestroyIP10CoordinateS0_EvT_S2_RSaIT0_E
FNDA:319,_ZSt8_DestroyIN9__gnu_cxx17__normal_iteratorIP10CoordinateSt6vectorIS2_SaIS2_EEEES2_EvT_S8_RSaIT0_E
FNF:8
FNH:8
DA:70,143130
DA:74,143130
DA:75,143130
DA:82,179437
DA:83,179437
DA:90,37735
DA:92,217172
DA:93,179437
DA:94,37735
DA:112,37735
DA:116,37735
DA:118,37735
DA:139,37735
DA:142,37735
DA:143,37735
BA:74,2
BA:74,1
BA:92,2
BA:92,2
BA:92,1
BA:92,2
LF:15
LH:15
end_of_record
SF:/usr/include/c++/4.4/bits/stl_iterator.h
FN:702,_ZNK9__gnu_cxx17__normal_iteratorIPK10CoordinateSt6vectorIS1_SaIS1_EEEptEv
FN:686,_ZN9__gnu_cxx17__normal_iteratorIPK10CoordinateSt6vectorIS1_SaIS1_EEEC1ERKS3_
FN:713,_ZN9__gnu_cxx17__normal_iteratorIPK10CoordinateSt6vectorIS1_SaIS1_EEEppEi
FN:750,_ZNK9__gnu_cxx17__normal_iteratorIPK10CoordinateSt6vectorIS1_SaIS1_EEE4baseEv
FN:783,_ZN9__gnu_cxxneIPK10CoordinateSt6vectorIS1_SaIS1_EEEEbRKNS_17__normal_iteratorIT_T0_EESC_
FN:686,_ZN9__gnu_cxx17__normal_iteratorIP10CoordinateSt6vectorIS1_SaIS1_EEEC1ERKS2_
FN:750,_ZNK9__gnu_cxx17__normal_iteratorIP10CoordinateSt6vectorIS1_SaIS1_EEE4baseEv
FN:783,_ZN9__gnu_cxxneIP10CoordinateSt6vectorIS1_SaIS1_EEEEbRKNS_17__normal_iteratorIT_T0_EESB_
FN:706,_ZN9__gnu_cxx17__normal_iteratorIP10CoordinateSt6vectorIS1_SaIS1_EEEppEv
FN:698,_ZNK9__gnu_cxx17__normal_iteratorIP10CoordinateSt6vectorIS1_SaIS1_EEEdeEv
FN:706,_ZN9__gnu_cxx17__normal_iteratorIPK10CoordinateSt6vectorIS1_SaIS1_EEEppEv
FN:698,_ZNK9__gnu_cxx17__normal_iteratorIPK10CoordinateSt6vectorIS1_SaIS1_EEEdeEv
FNDA:268973433,_ZN9__gnu_cxx17__normal_iteratorIPK10CoordinateSt6vectorIS1_SaIS1_EEEC1ERKS3_
FNDA:70658,_ZN9__gnu_cxx17__normal_iteratorIP10CoordinateSt6vectorIS1_SaIS1_EEEC1ERKS2_
FNDA:0,_ZNK9__gnu_cxx17__normal_iteratorIP10CoordinateSt6vectorIS1_SaIS1_EEEdeEv
FNDA:29749,_ZNK9__gnu_cxx17__normal_iteratorIPK10CoordinateSt6vectorIS1_SaIS1_EEEdeEv
FNDA:315302402,_ZNK9__gnu_cxx17__normal_iteratorIPK10CoordinateSt6vectorIS1_SaIS1_EEEptEv
FNDA:0,_ZN9__gnu_cxx17__normal_iteratorIP10CoordinateSt6vectorIS1_SaIS1_EEEppEv
FNDA:29749,_ZN9__gnu_cxx17__normal_iteratorIPK10CoordinateSt6vectorIS1_SaIS1_EEEppEv
FNDA:76825061,_ZN9__gnu_cxx17__normal_iteratorIPK10CoordinateSt6vectorIS1_SaIS1_EEEppEi
FNDA:269036117,_ZNK9__gnu_cxx17__normal_iteratorIPK10CoordinateSt6vectorIS1_SaIS1_EEE4baseEv
FNDA:69816,_ZNK9__gnu_cxx17__normal_iteratorIP10CoordinateSt6vectorIS1_SaIS1_EEE4baseEv
FNDA:134508899,_ZN9__gnu_cxxneIPK10CoordinateSt6vectorIS1_SaIS1_EEEEbRKNS_17__normal_iteratorIT_T0_EESC_
FNDA:24315,_ZN9__gnu_cxxneIP10CoordinateSt6vectorIS1_SaIS1_EEEEbRKNS_17__normal_iteratorIT_T0_EESB_
FNF:12
FNH:10
DA:686,269044091
DA:698,29749
DA:699,29749
DA:702,315302402
DA:703,315302402
DA:706,29749
DA:708,29749
DA:709,29749
DA:713,76825061
DA:714,76825061
DA:750,269105933
DA:751,269105933
DA:783,134533214
DA:785,134533214
LF:14
LH:14
end_of_record
SF:/usr/include/c++/4.4/bits/stl_list.h
FN:200,_ZNSt20_List_const_iteratorISt6vectorI10CoordinateSaIS1_EEEC1Ev
FN:255,_ZNKSt20_List_const_iteratorISt6vectorI10CoordinateSaIS1_EEEneERKS4_
FN:228,_ZNSt20_List_const_iteratorISt6vectorI10CoordinateSaIS1_EEEppEi
FN:213,_ZNKSt20_List_const_iteratorISt6vectorI10CoordinateSaIS1_EEEdeEv
FN:175,_ZNKSt14_List_iteratorISt6vectorI10CoordinateSaIS1_EEEneERKS4_
FN:221,_ZNSt20_List_const_iteratorISt6vectorI10CoordinateSaIS1_EEEppEv
FN:141,_ZNSt14_List_iteratorISt6vectorI10CoordinateSaIS1_EEEppEv
FN:133,_ZNKSt14_List_iteratorISt6vectorI10CoordinateSaIS1_EEEdeEv
FN:251,_ZNKSt20_List_const_iteratorISt6vectorI10CoordinateSaIS1_EEEeqERKS4_
FN:255,_ZNKSt20_List_const_iteratorIyEneERKS0_
FN:175,_ZNKSt14_List_iteratorIyEneERKS0_
FN:221,_ZNSt20_List_const_iteratorIyEppEv
FN:141,_ZNSt14_List_iteratorIyEppEv
FN:213,_ZNKSt20_List_const_iteratorIyEdeEv
FN:133,_ZNKSt14_List_iteratorIyEdeEv
FN:251,_ZNKSt20_List_const_iteratorIyEeqERKS0_
FN:204,_ZNSt20_List_const_iteratorISt6vectorI10CoordinateSaIS1_EEEC1EPKSt15_List_node_base
FN:698,_ZNKSt4listISt6vectorI10CoordinateSaIS1_EESaIS3_EE5beginEv
FN:716,_ZNKSt4listISt6vectorI10CoordinateSaIS1_EESaIS3_EE3endEv
FN:128,_ZNSt14_List_iteratorISt6vectorI10CoordinateSaIS1_EEEC1EPSt15_List_node_base
FN:689,_ZNSt4listISt6vectorI10CoordinateSaIS1_EESaIS3_EE5beginEv
FN:707,_ZNSt4listISt6vectorI10CoordinateSaIS1_EESaIS3_EE3endEv
FN:326,_ZNSt10_List_baseISt6vectorI10CoordinateSaIS1_EESaIS3_EE21_M_get_Node_allocatorEv
FN:128,_ZNSt14_List_iteratorIyEC1EPSt15_List_node_base
FN:689,_ZNSt4listIySaIyEE5beginEv
FN:707,_ZNSt4listIySaIyEE3endEv
FN:204,_ZNSt20_List_const_iteratorIyEC1EPKSt15_List_node_base
FN:698,_ZNKSt4listIySaIyEE5beginEv
FN:716,_ZNKSt4listIySaIyEE3endEv
FN:326,_ZNSt10_List_baseIySaIyEE21_M_get_Node_allocatorEv
FN:799,_ZNKSt4listISt6vectorI10CoordinateSaIS1_EESaIS3_EE5emptyEv
FN:799,_ZNKSt4listIySaIyEE5emptyEv
FN:366,_ZNSt10_List_baseISt6vectorI10CoordinateSaIS1_EESaIS3_EE7_M_initEv
FN:366,_ZNSt10_List_baseIySaIyEE7_M_initEv
FN:330,_ZNKSt10_List_baseISt6vectorI10CoordinateSaIS1_EESaIS3_EE21_M_get_Node_allocatorEv
FN:330,_ZNKSt10_List_baseIySaIyEE21_M_get_Node_allocatorEv
FN:319,_ZNSt10_List_baseISt6vectorI10CoordinateSaIS1_EESaIS3_EE11_M_put_nodeEPSt10_List_nodeIS3_E
FN:319,_ZNSt10_List_baseIySaIyEE11_M_put_nodeEPSt10_List_nodeIyE
FN:334,_ZNKSt10_List_baseISt6vectorI10CoordinateSaIS1_EESaIS3_EE19_M_get_Tp_allocatorEv
FN:307,_ZNSt10_List_baseISt6vectorI10CoordinateSaIS1_EESaIS3_EE10_List_implC1ERKSaISt10_List_nodeIS3_EE
FN:300,_ZNSt10_List_baseISt6vectorI10CoordinateSaIS1_EESaIS3_EE10_List_implD1Ev
FN:345,_ZNSt10_List_baseISt6vectorI10CoordinateSaIS1_EESaIS3_EEC2ERKS4_
FN:359,_ZNSt10_List_baseISt6vectorI10CoordinateSaIS1_EESaIS3_EED2Ev
FN:418,_ZNSt4listISt6vectorI10CoordinateSaIS1_EESaIS3_EED1Ev
FN:334,_ZNKSt10_List_baseIySaIyEE19_M_get_Tp_allocatorEv
FN:307,_ZNSt10_List_baseIySaIyEE10_List_implC1ERKSaISt10_List_nodeIyEE
FN:300,_ZNSt10_List_baseIySaIyEE10_List_implD1Ev
FN:345,_ZNSt10_List_baseIySaIyEEC2ERKS0_
FN:359,_ZNSt10_List_baseIySaIyEED2Ev
FN:418,_ZNSt4listIySaIyEED1Ev
FN:315,_ZNSt10_List_baseISt6vectorI10CoordinateSaIS1_EESaIS3_EE11_M_get_nodeEv
FN:315,_ZNSt10_List_baseIySaIyEE11_M_get_nodeEv
FN:459,_ZNSt4listISt6vectorI10CoordinateSaIS1_EESaIS3_EE14_M_create_nodeERKS3_
FN:459,_ZNSt4listIySaIyEE14_M_create_nodeERKy
FN:1422,_ZNSt4listISt6vectorI10CoordinateSaIS1_EESaIS3_EE8_M_eraseESt14_List_iteratorIS3_E
FN:1092,_ZNSt4listISt6vectorI10CoordinateSaIS1_EESaIS3_EE5eraseESt14_List_iteratorIS3_ES7_
FN:1422,_ZNSt4listIySaIyEE8_M_eraseESt14_List_iteratorIyE
FN:1092,_ZNSt4listIySaIyEE5eraseESt14_List_iteratorIyES3_
FN:1405,_ZNSt4listISt6vectorI10CoordinateSaIS1_EESaIS3_EE9_M_insertESt14_List_iteratorIS3_ERKS3_
FN:919,_ZNSt4listISt6vectorI10CoordinateSaIS1_EESaIS3_EE9push_backERKS3_
FN:1357,_ZNSt4listISt6vectorI10CoordinateSaIS1_EESaIS3_EE22_M_initialize_dispatchISt20_List_const_iteratorIS3_EEEvT_S9_St12__false_type
FN:571,_ZNSt4listISt6vectorI10CoordinateSaIS1_EESaIS3_EEC1ISt20_List_const_iteratorIS3_EEET_S9_RKS4_
FN:1405,_ZNSt4listIySaIyEE9_M_insertESt14_List_iteratorIyERKy
FN:919,_ZNSt4listIySaIyEE9push_backERKy
FN:1357,_ZNSt4listIySaIyEE22_M_initialize_dispatchISt20_List_const_iteratorIyEEEvT_S5_St12__false_type
FN:571,_ZNSt4listIySaIyEEC1ISt20_List_const_iteratorIyEEET_S5_RKS0_
FN:1436,_ZNSt4listISt6vectorI10CoordinateSaIS1_EESaIS3_EE25_M_check_equal_allocatorsERS5_
FN:1436,_ZNSt4listIySaIyEE25_M_check_equal_allocatorsERS1_
FN:1399,_ZNSt4listISt6vectorI10CoordinateSaIS1_EESaIS3_EE11_M_transferESt14_List_iteratorIS3_ES7_S7_
FN:1152,_ZNSt4listISt6vectorI10CoordinateSaIS1_EESaIS3_EE6spliceESt14_List_iteratorIS3_ERS5_
FN:1048,_ZNSt4listISt6vectorI10CoordinateSaIS1_EESaIS3_EE6insertISt20_List_const_iteratorIS3_EEEvSt14_List_iteratorIS3_ET_SB_
FN:1399,_ZNSt4listIySaIyEE11_M_transferESt14_List_iteratorIyES3_S3_
FN:1152,_ZNSt4listIySaIyEE6spliceESt14_List_iteratorIyERS1_
FN:1048,_ZNSt4listIySaIyEE6insertISt20_List_const_iteratorIyEEEvSt14_List_iteratorIyET_S7_
FNDA:9742,_ZNSt14_List_iteratorISt6vectorI10CoordinateSaIS1_EEEC1EPSt15_List_node_base
FNDA:9742,_ZNSt14_List_iteratorIyEC1EPSt15_List_node_base
FNDA:199,_ZNKSt14_List_iteratorISt6vectorI10CoordinateSaIS1_EEEdeEv
FNDA:199,_ZNKSt14_List_iteratorIyEdeEv
FNDA:199,_ZNSt14_List_iteratorISt6vectorI10CoordinateSaIS1_EEEppEv
FNDA:199,_ZNSt14_List_iteratorIyEppEv
FNDA:1087,_ZNKSt14_List_iteratorISt6vectorI10CoordinateSaIS1_EEEneERKS4_
FNDA:1087,_ZNKSt14_List_iteratorIyEneERKS0_
FNDA:102958,_ZNSt20_List_const_iteratorISt6vectorI10CoordinateSaIS1_EEEC1Ev
FNDA:600821,_ZNSt20_List_const_iteratorISt6vectorI10CoordinateSaIS1_EEEC1EPKSt15_List_node_base
FNDA:1326,_ZNSt20_List_const_iteratorIyEC1EPKSt15_List_node_base
FNDA:7672254,_ZNKSt20_List_const_iteratorISt6vectorI10CoordinateSaIS1_EEEdeEv
FNDA:2817,_ZNKSt20_List_const_iteratorIyEdeEv
FNDA:3545,_ZNSt20_List_const_iteratorISt6vectorI10CoordinateSaIS1_EEEppEv
FNDA:3545,_ZNSt20_List_const_iteratorIyEppEv
FNDA:393579,_ZNSt20_List_const_iteratorISt6vectorI10CoordinateSaIS1_EEEppEi
FNDA:831,_ZNKSt20_List_const_iteratorISt6vectorI10CoordinateSaIS1_EEEeqERKS4_
FNDA:663,_ZNKSt20_List_const_iteratorIyEeqERKS0_
FNDA:500002,_ZNKSt20_List_const_iteratorISt6vectorI10CoordinateSaIS1_EEEneERKS4_
FNDA:4319,_ZNKSt20_List_const_iteratorIyEneERKS0_
FNDA:2324,_ZNSt10_List_baseISt6vectorI10CoordinateSaIS1_EESaIS3_EE10_List_implD1Ev
FNDA:2324,_ZNSt10_List_baseIySaIyEE10_List_implD1Ev
FNDA:774,_ZNSt10_List_baseISt6vectorI10CoordinateSaIS1_EESaIS3_EE10_List_implC1ERKSaISt10_List_nodeIS3_EE
FNDA:774,_ZNSt10_List_baseIySaIyEE10_List_implC1ERKSaISt10_List_nodeIyEE
FNDA:6532,_ZNSt10_List_baseISt6vectorI10CoordinateSaIS1_EESaIS3_EE11_M_get_nodeEv
FNDA:6532,_ZNSt10_List_baseIySaIyEE11_M_get_nodeEv
FNDA:6532,_ZNSt10_List_baseISt6vectorI10CoordinateSaIS1_EESaIS3_EE11_M_put_nodeEPSt10_List_nodeIS3_E
FNDA:6532,_ZNSt10_List_baseIySaIyEE11_M_put_nodeEPSt10_List_nodeIyE
FNDA:2322,_ZNSt10_List_baseISt6vectorI10CoordinateSaIS1_EESaIS3_EE21_M_get_Node_allocatorEv
FNDA:2322,_ZNSt10_List_baseIySaIyEE21_M_get_Node_allocatorEv
FNDA:13064,_ZNKSt10_List_baseISt6vectorI10CoordinateSaIS1_EESaIS3_EE21_M_get_Node_allocatorEv
FNDA:13064,_ZNKSt10_List_baseIySaIyEE21_M_get_Node_allocatorEv
FNDA:13064,_ZNKSt10_List_baseISt6vectorI10CoordinateSaIS1_EESaIS3_EE19_M_get_Tp_allocatorEv
FNDA:13064,_ZNKSt10_List_baseIySaIyEE19_M_get_Tp_allocatorEv
FNDA:774,_ZNSt10_List_baseISt6vectorI10CoordinateSaIS1_EESaIS3_EEC2ERKS4_
FNDA:774,_ZNSt10_List_baseIySaIyEEC2ERKS0_
FNDA:2324,_ZNSt10_List_baseISt6vectorI10CoordinateSaIS1_EESaIS3_EED2Ev
FNDA:2324,_ZNSt10_List_baseIySaIyEED2Ev
FNDA:2324,_ZNSt10_List_baseISt6vectorI10CoordinateSaIS1_EESaIS3_EE7_M_initEv
FNDA:2324,_ZNSt10_List_baseIySaIyEE7_M_initEv
FNDA:2324,_ZNSt4listISt6vectorI10CoordinateSaIS1_EESaIS3_EED1Ev
FNDA:2324,_ZNSt4listIySaIyEED1Ev
FNDA:6532,_ZNSt4listISt6vectorI10CoordinateSaIS1_EESaIS3_EE14_M_create_nodeERKS3_
FNDA:6532,_ZNSt4listIySaIyEE14_M_create_nodeERKy
FNDA:774,_ZNSt4listISt6vectorI10CoordinateSaIS1_EESaIS3_EEC1ISt20_List_const_iteratorIS3_EEET_S9_RKS4_
FNDA:774,_ZNSt4listIySaIyEEC1ISt20_List_const_iteratorIyEEET_S5_RKS0_
FNDA:1605,_ZNSt4listISt6vectorI10CoordinateSaIS1_EESaIS3_EE5beginEv
FNDA:1605,_ZNSt4listIySaIyEE5beginEv
FNDA:103621,_ZNKSt4listISt6vectorI10CoordinateSaIS1_EESaIS3_EE5beginEv
FNDA:663,_ZNKSt4listIySaIyEE5beginEv
FNDA:8137,_ZNSt4listISt6vectorI10CoordinateSaIS1_EESaIS3_EE3endEv
FNDA:8137,_ZNSt4listIySaIyEE3endEv
FNDA:497200,_ZNKSt4listISt6vectorI10CoordinateSaIS1_EESaIS3_EE3endEv
FNDA:663,_ZNKSt4listIySaIyEE3endEv
FNDA:774,_ZNKSt4listISt6vectorI10CoordinateSaIS1_EESaIS3_EE5emptyEv
FNDA:774,_ZNKSt4listIySaIyEE5emptyEv
FNDA:6532,_ZNSt4listISt6vectorI10CoordinateSaIS1_EESaIS3_EE9push_backERKS3_
FNDA:6532,_ZNSt4listIySaIyEE9push_backERKy
FNDA:774,_ZNSt4listISt6vectorI10CoordinateSaIS1_EESaIS3_EE6insertISt20_List_const_iteratorIS3_EEEvSt14_List_iteratorIS3_ET_SB_
FNDA:774,_ZNSt4listIySaIyEE6insertISt20_List_const_iteratorIyEEEvSt14_List_iteratorIyET_S7_
FNDA:57,_ZNSt4listISt6vectorI10CoordinateSaIS1_EESaIS3_EE5eraseESt14_List_iteratorIS3_ES7_
FNDA:57,_ZNSt4listIySaIyEE5eraseESt14_List_iteratorIyES3_
FNDA:774,_ZNSt4listISt6vectorI10CoordinateSaIS1_EESaIS3_EE6spliceESt14_List_iteratorIS3_ERS5_
FNDA:774,_ZNSt4listIySaIyEE6spliceESt14_List_iteratorIyERS1_
FNDA:774,_ZNSt4listISt6vectorI10CoordinateSaIS1_EESaIS3_EE22_M_initialize_dispatchISt20_List_const_iteratorIS3_EEEvT_S9_St12__false_type
FNDA:774,_ZNSt4listIySaIyEE22_M_initialize_dispatchISt20_List_const_iteratorIyEEEvT_S5_St12__false_type
FNDA:774,_ZNSt4listISt6vectorI10CoordinateSaIS1_EESaIS3_EE11_M_transferESt14_List_iteratorIS3_ES7_S7_
FNDA:774,_ZNSt4listIySaIyEE11_M_transferESt14_List_iteratorIyES3_S3_
FNDA:6532,_ZNSt4listISt6vectorI10CoordinateSaIS1_EESaIS3_EE9_M_insertESt14_List_iteratorIS3_ERKS3_
FNDA:6532,_ZNSt4listIySaIyEE9_M_insertESt14_List_iteratorIyERKy
FNDA:0,_ZNSt4listISt6vectorI10CoordinateSaIS1_EESaIS3_EE8_M_eraseESt14_List_iteratorIS3_E
FNDA:0,_ZNSt4listIySaIyEE8_M_eraseESt14_List_iteratorIyE
FNDA:774,_ZNSt4listISt6vectorI10CoordinateSaIS1_EESaIS3_EE25_M_check_equal_allocatorsERS5_
FNDA:774,_ZNSt4listIySaIyEE25_M_check_equal_allocatorsERS1_
FNF:74
FNH:72
DA:128,19484
DA:129,19484
DA:133,398
DA:134,398
DA:141,398
DA:143,398
DA:144,398
DA:175,2174
DA:176,2174
DA:200,102958
DA:201,102958
DA:204,602147
DA:205,602147
DA:213,7675071
DA:214,7675071
DA:221,7090
DA:223,7090
DA:224,7090
DA:228,393579
DA:230,393579
DA:231,393579
DA:251,1494
DA:252,1494
DA:255,504321
DA:256,504321
DA:300,4648
DA:307,1548
DA:308,1548
DA:309,1548
DA:315,13064
DA:316,13064
DA:319,13064
DA:320,13064
DA:326,4644
DA:327,4644
DA:330,26128
DA:331,26128
DA:334,26128
DA:335,26128
DA:345,1548
DA:346,1548
DA:347,3096
DA:359,4648
DA:360,4648
DA:366,4648
DA:368,4648
DA:369,4648
DA:370,4648
DA:418,4648
DA:459,13064
DA:461,13064
DA:464,13064
DA:466,0
DA:468,0
DA:469,0
DA:471,13064
DA:571,1548
DA:573,1548
DA:577,1548
DA:578,1548
DA:689,3210
DA:690,3210
DA:698,104284
DA:699,104284
DA:707,16274
DA:708,16274
DA:716,497863
DA:717,497863
DA:799,1548
DA:800,1548
DA:919,13064
DA:920,13064
DA:1048,1548
DA:1051,1548
DA:1052,1548
DA:1053,1548
DA:1092,114
DA:1094,228
DA:1095,0
DA:1096,114
DA:1152,1548
DA:1155,1548
DA:1157,1548
DA:1159,1548
DA:1161,1548
DA:1357,1548
DA:1360,8240
DA:1361,6692
DA:1362,1548
DA:1399,1548
DA:1400,1548
DA:1405,13064
DA:1407,13064
DA:1408,13064
DA:1409,13064
DA:1422,0
DA:1424,0
DA:1425,0
DA:1429,0
DA:1431,0
DA:1432,0
DA:1436,1548
DA:1438,1548
DA:1440,0
DA:1441,1548
BA:1094,1
BA:1094,2
BA:1094,1
BA:1094,2
BA:1155,2
BA:1155,1
BA:1155,2
BA:1155,1
BA:1360,2
BA:1360,2
BA:1360,2
BA:1360,2
BA:1438,1
BA:1438,2
BA:1438,1
BA:1438,2
LF:105
LH:94
end_of_record
SF:/usr/include/c++/4.4/bits/stl_uninitialized.h
FN:180,_ZNSt22__uninitialized_fill_nILb0EE20uninitialized_fill_nIP10CoordinatejS2_EEvT_T0_RKT1_
FN:218,_ZSt20uninitialized_fill_nIP10CoordinatejS0_EvT_T0_RKT1_
FN:316,_ZSt24__uninitialized_fill_n_aIP10CoordinatejS0_S0_EvT_T0_RKT1_RSaIT2_E
FN:67,_ZNSt20__uninitialized_copyILb0EE18uninitialized_copyIN9__gnu_cxx17__normal_iteratorIPK10CoordinateSt6vectorIS4_SaIS4_EEEEPS4_EET0_T_SD_SC_
FN:107,_ZSt18uninitialized_copyIN9__gnu_cxx17__normal_iteratorIPK10CoordinateSt6vectorIS2_SaIS2_EEEEPS2_ET0_T_SB_SA_
FN:255,_ZSt22__uninitialized_copy_aIN9__gnu_cxx17__normal_iteratorIPK10CoordinateSt6vectorIS2_SaIS2_EEEEPS2_S2_ET0_T_SB_SA_RSaIT1_E
FN:67,_ZNSt20__uninitialized_copyILb0EE18uninitialized_copyIP10CoordinateS3_EET0_T_S5_S4_
FN:107,_ZSt18uninitialized_copyIP10CoordinateS1_ET0_T_S3_S2_
FN:255,_ZSt22__uninitialized_copy_aIP10CoordinateS1_S0_ET0_T_S3_S2_RSaIT1_E
FNDA:6532,_ZNSt20__uninitialized_copyILb0EE18uninitialized_copyIN9__gnu_cxx17__normal_iteratorIPK10CoordinateSt6vectorIS4_SaIS4_EEEEPS4_EET0_T_SD_SC_
FNDA:1542,_ZNSt20__uninitialized_copyILb0EE18uninitialized_copyIP10CoordinateS3_EET0_T_S5_S4_
FNDA:6532,_ZSt18uninitialized_copyIN9__gnu_cxx17__normal_iteratorIPK10CoordinateSt6vectorIS2_SaIS2_EEEEPS2_ET0_T_SB_SA_
FNDA:1542,_ZSt18uninitialized_copyIP10CoordinateS1_ET0_T_S3_S2_
FNDA:28626,_ZNSt22__uninitialized_fill_nILb0EE20uninitialized_fill_nIP10CoordinatejS2_EEvT_T0_RKT1_
FNDA:28626,_ZSt20uninitialized_fill_nIP10CoordinatejS0_EvT_T0_RKT1_
FNDA:6532,_ZSt22__uninitialized_copy_aIN9__gnu_cxx17__normal_iteratorIPK10CoordinateSt6vectorIS2_SaIS2_EEEEPS2_S2_ET0_T_SB_SA_RSaIT1_E
FNDA:1542,_ZSt22__uninitialized_copy_aIP10CoordinateS1_S0_ET0_T_S3_S2_RSaIT1_E
FNDA:28626,_ZSt24__uninitialized_fill_n_aIP10CoordinatejS0_S0_EvT_T0_RKT1_RSaIT2_E
FNF:9
FNH:9
DA:67,8074
DA:70,8074
DA:73,44381
DA:74,36307
DA:76,8074
DA:78,0
DA:80,0
DA:81,0
DA:107,8074
DA:117,8074
DA:180,28626
DA:183,28626
DA:186,171756
DA:187,143130
DA:189,0
DA:191,0
DA:192,0
DA:194,28626
DA:218,28626
DA:223,28626
DA:225,28626
DA:255,8074
DA:257,8074
DA:316,28626
DA:318,28626
BA:73,2
BA:73,2
BA:73,2
BA:73,2
BA:74,2
BA:74,1
BA:74,2
BA:74,1
BA:186,2
BA:186,2
LF:25
LH:19
end_of_record
SF:/usr/include/c++/4.4/bits/stl_vector.h
FN:532,_ZNKSt6vectorI10CoordinateSaIS0_EE4sizeEv
FN:610,_ZNSt6vectorI10CoordinateSaIS0_EEixEj
FN:625,_ZNKSt6vectorI10CoordinateSaIS0_EEixEj
FN:452,_ZNKSt6vectorI10CoordinateSaIS0_EE3endEv
FN:434,_ZNKSt6vectorI10CoordinateSaIS0_EE5beginEv
FN:565,_ZNKSt6vectorI10CoordinateSaIS0_EE8capacityEv
FN:93,_ZNSt12_Vector_baseI10CoordinateSaIS0_EE19_M_get_Tp_allocatorEv
FN:443,_ZNSt6vectorI10CoordinateSaIS0_EE3endEv
FN:425,_ZNSt6vectorI10CoordinateSaIS0_EE5beginEv
FN:97,_ZNKSt12_Vector_baseI10CoordinateSaIS0_EE19_M_get_Tp_allocatorEv
FN:143,_ZNSt12_Vector_baseI10CoordinateSaIS0_EE13_M_deallocateEPS0_j
FN:84,_ZNSt12_Vector_baseI10CoordinateSaIS0_EE12_Vector_implC1ERKS1_
FN:75,_ZNSt12_Vector_baseI10CoordinateSaIS0_EE12_Vector_implD1Ev
FN:131,_ZNSt12_Vector_baseI10CoordinateSaIS0_EED2Ev
FN:312,_ZNSt6vectorI10CoordinateSaIS0_EED1Ev
FN:139,_ZNSt12_Vector_baseI10CoordinateSaIS0_EE11_M_allocateEj
FN:110,_ZNSt12_Vector_baseI10CoordinateSaIS0_EEC2EjRKS1_
FN:1033,_ZNSt6vectorI10CoordinateSaIS0_EE18_M_fill_initializeEjRKS0_
FN:227,_ZNSt6vectorI10CoordinateSaIS0_EEC1EjRKS0_RKS1_
FN:241,_ZNSt6vectorI10CoordinateSaIS0_EEC1ERKS2_
FN:960,_ZNSt6vectorI10CoordinateSaIS0_EE20_M_allocate_and_copyIN9__gnu_cxx17__normal_iteratorIPKS0_S2_EEEEPS0_jT_SA_
FNDA:35158,_ZNSt12_Vector_baseI10CoordinateSaIS0_EE12_Vector_implD1Ev
FNDA:35158,_ZNSt12_Vector_baseI10CoordinateSaIS0_EE12_Vector_implC1ERKS1_
FNDA:74435,_ZNSt12_Vector_baseI10CoordinateSaIS0_EE19_M_get_Tp_allocatorEv
FNDA:6532,_ZNKSt12_Vector_baseI10CoordinateSaIS0_EE19_M_get_Tp_allocatorEv
FNDA:35158,_ZNSt12_Vector_baseI10CoordinateSaIS0_EEC2EjRKS1_
FNDA:35158,_ZNSt12_Vector_baseI10CoordinateSaIS0_EED2Ev
FNDA:35158,_ZNSt12_Vector_baseI10CoordinateSaIS0_EE11_M_allocateEj
FNDA:35158,_ZNSt12_Vector_baseI10CoordinateSaIS0_EE13_M_deallocateEPS0_j
FNDA:28626,_ZNSt6vectorI10CoordinateSaIS0_EEC1EjRKS0_RKS1_
FNDA:6532,_ZNSt6vectorI10CoordinateSaIS0_EEC1ERKS2_
FNDA:35158,_ZNSt6vectorI10CoordinateSaIS0_EED1Ev
FNDA:7838,_ZNSt6vectorI10CoordinateSaIS0_EE5beginEv
FNDA:57668903,_ZNKSt6vectorI10CoordinateSaIS0_EE5beginEv
FNDA:42838,_ZNSt6vectorI10CoordinateSaIS0_EE3endEv
FNDA:134479469,_ZNKSt6vectorI10CoordinateSaIS0_EE3endEv
FNDA:2215243,_ZNKSt6vectorI10CoordinateSaIS0_EE4sizeEv
FNDA:1861,_ZNKSt6vectorI10CoordinateSaIS0_EE8capacityEv
FNDA:9850576,_ZNSt6vectorI10CoordinateSaIS0_EEixEj
FNDA:215,_ZNKSt6vectorI10CoordinateSaIS0_EEixEj
FNDA:0,_ZNSt6vectorI10CoordinateSaIS0_EE20_M_allocate_and_copyIN9__gnu_cxx17__normal_iteratorIPKS0_S2_EEEEPS0_jT_SA_
FNDA:28626,_ZNSt6vectorI10CoordinateSaIS0_EE18_M_fill_initializeEjRKS0_
FNF:21
FNH:20
DA:75,35158
DA:84,35158
DA:85,35158
DA:86,35158
DA:93,74435
DA:94,74435
DA:97,6532
DA:98,6532
DA:110,35158
DA:111,35158
DA:113,35158
DA:114,35158
DA:115,35158
DA:116,35158
DA:131,35158
DA:132,35158
DA:133,35158
DA:139,35158
DA:140,35158
DA:143,35158
DA:145,35158
DA:146,35158
DA:147,35158
DA:227,28626
DA:229,28626
DA:230,28626
DA:241,6532
DA:242,6532
DA:243,6532
DA:247,6532
DA:312,35158
DA:313,35158
DA:314,35158
DA:425,7838
DA:426,7838
DA:434,57668903
DA:435,57668903
DA:443,42838
DA:444,42838
DA:452,134479469
DA:453,134479469
DA:532,2215243
DA:533,2215243
DA:565,1861
DA:567,1861
DA:610,9850576
DA:611,9850576
DA:625,215
DA:626,215
DA:960,0
DA:963,0
DA:966,0
DA:968,0
DA:970,0
DA:972,0
DA:973,0
DA:1033,28626
DA:1035,28626
DA:1037,28626
DA:1038,28626
BA:140,2
BA:140,1
BA:145,2
BA:145,1
LF:60
LH:53
end_of_record
SF:/usr/include/c++/4.4/bits/vector.tcc
FN:156,_ZNSt6vectorI10CoordinateSaIS0_EEaSERKS2_
FNDA:1861,_ZNSt6vectorI10CoordinateSaIS0_EEaSERKS2_
FNF:1
FNH:1
DA:156,1861
DA:159,1861
DA:161,1861
DA:162,1861
DA:165,0
DA:166,0
DA:168,0
DA:171,0
DA:172,0
DA:174,1861
DA:176,319
DA:181,1542
DA:183,1542
DA:188,1861
DA:190,1861
BA:159,2
BA:159,1
BA:162,1
BA:162,2
BA:174,2
BA:174,2
LF:15
LH:10
end_of_record
SF:/usr/include/c++/4.4/ext/atomicity.h
FN:62,_ZN9__gnu_cxxL25__exchange_and_add_singleEPii
FN:45,_ZN9__gnu_cxxL18__exchange_and_addEPVii
FN:75,_ZN9__gnu_cxxL27__exchange_and_add_dispatchEPii
FNDA:0,_ZN9__gnu_cxxL18__exchange_and_addEPVii
FNDA:0,_ZN9__gnu_cxxL25__exchange_and_add_singleEPii
FNDA:0,_ZN9__gnu_cxxL27__exchange_and_add_dispatchEPii
FNF:3
FNH:0
DA:45,0
DA:46,0
DA:62,0
DA:64,0
DA:65,0
DA:66,0
DA:75,0
DA:78,0
DA:79,0
DA:81,0
BA:78,0
BA:78,0
LF:10
LH:0
end_of_record
SF:/usr/include/c++/4.4/ext/new_allocator.h
FN:66,_ZN9__gnu_cxx13new_allocatorIcEC2Ev
FN:73,_ZN9__gnu_cxx13new_allocatorIcED2Ev
FN:66,_ZN9__gnu_cxx13new_allocatorI10CoordinateEC2Ev
FN:73,_ZN9__gnu_cxx13new_allocatorI10CoordinateED2Ev
FN:68,_ZN9__gnu_cxx13new_allocatorIcEC2ERKS1_
FN:66,_ZN9__gnu_cxx13new_allocatorISt6vectorI10CoordinateSaIS2_EEEC2Ev
FN:73,_ZN9__gnu_cxx13new_allocatorISt6vectorI10CoordinateSaIS2_EEED2Ev
FN:66,_ZN9__gnu_cxx13new_allocatorIyEC2Ev
FN:73,_ZN9__gnu_cxx13new_allocatorIyED2Ev
FN:98,_ZNK9__gnu_cxx13new_allocatorI10CoordinateE8max_sizeEv
FN:73,_ZN9__gnu_cxx13new_allocatorISt10_List_nodeISt6vectorI10CoordinateSaIS3_EEEED2Ev
FN:115,_ZN9__gnu_cxx13new_allocatorIyE7destroyEPy
FN:73,_ZN9__gnu_cxx13new_allocatorISt10_List_nodeIyEED2Ev
FN:68,_ZN9__gnu_cxx13new_allocatorI10CoordinateEC2ERKS2_
FN:66,_ZN9__gnu_cxx13new_allocatorISt10_List_nodeISt6vectorI10CoordinateSaIS3_EEEEC2Ev
FN:66,_ZN9__gnu_cxx13new_allocatorISt10_List_nodeIyEEC2Ev
FN:68,_ZN9__gnu_cxx13new_allocatorISt10_List_nodeISt6vectorI10CoordinateSaIS3_EEEEC2ERKS7_
FN:68,_ZN9__gnu_cxx13new_allocatorISt10_List_nodeIyEEC2ERKS3_
FN:104,_ZN9__gnu_cxx13new_allocatorIyE9constructEPyRKy
FN:98,_ZNK9__gnu_cxx13new_allocatorISt10_List_nodeISt6vectorI10CoordinateSaIS3_EEEE8max_sizeEv
FN:98,_ZNK9__gnu_cxx13new_allocatorISt10_List_nodeIyEE8max_sizeEv
FN:94,_ZN9__gnu_cxx13new_allocatorI10CoordinateE10deallocateEPS1_j
FN:94,_ZN9__gnu_cxx13new_allocatorISt10_List_nodeISt6vectorI10CoordinateSaIS3_EEEE10deallocateEPS6_j
FN:94,_ZN9__gnu_cxx13new_allocatorISt10_List_nodeIyEE10deallocateEPS2_j
FN:115,_ZN9__gnu_cxx13new_allocatorISt6vectorI10CoordinateSaIS2_EEE7destroyEPS4_
FN:84,_ZN9__gnu_cxx13new_allocatorI10CoordinateE8allocateEjPKv
FN:84,_ZN9__gnu_cxx13new_allocatorISt10_List_nodeISt6vectorI10CoordinateSaIS3_EEEE8allocateEjPKv
FN:84,_ZN9__gnu_cxx13new_allocatorISt10_List_nodeIyEE8allocateEjPKv
FN:104,_ZN9__gnu_cxx13new_allocatorISt6vectorI10CoordinateSaIS2_EEE9constructEPS4_RKS4_
FNDA:0,_ZN9__gnu_cxx13new_allocatorIcEC2Ev
FNDA:29190,_ZN9__gnu_cxx13new_allocatorI10CoordinateEC2Ev
FNDA:13838,_ZN9__gnu_cxx13new_allocatorISt6vectorI10CoordinateSaIS2_EEEC2Ev
FNDA:13838,_ZN9__gnu_cxx13new_allocatorIyEC2Ev
FNDA:2324,_ZN9__gnu_cxx13new_allocatorISt10_List_nodeISt6vectorI10CoordinateSaIS3_EEEEC2Ev
FNDA:2324,_ZN9__gnu_cxx13new_allocatorISt10_List_nodeIyEEC2Ev
FNDA:0,_ZN9__gnu_cxx13new_allocatorIcEC2ERKS1_
FNDA:35158,_ZN9__gnu_cxx13new_allocatorI10CoordinateEC2ERKS2_
FNDA:774,_ZN9__gnu_cxx13new_allocatorISt10_List_nodeISt6vectorI10CoordinateSaIS3_EEEEC2ERKS7_
FNDA:774,_ZN9__gnu_cxx13new_allocatorISt10_List_nodeIyEEC2ERKS3_
FNDA:0,_ZN9__gnu_cxx13new_allocatorIcED2Ev
FNDA:64348,_ZN9__gnu_cxx13new_allocatorI10CoordinateED2Ev
FNDA:13838,_ZN9__gnu_cxx13new_allocatorISt6vectorI10CoordinateSaIS2_EEED2Ev
FNDA:13838,_ZN9__gnu_cxx13new_allocatorIyED2Ev
FNDA:3098,_ZN9__gnu_cxx13new_allocatorISt10_List_nodeISt6vectorI10CoordinateSaIS3_EEEED2Ev
FNDA:3098,_ZN9__gnu_cxx13new_allocatorISt10_List_nodeIyEED2Ev
FNDA:35158,_ZN9__gnu_cxx13new_allocatorI10CoordinateE8allocateEjPKv
FNDA:6532,_ZN9__gnu_cxx13new_allocatorISt10_List_nodeISt6vectorI10CoordinateSaIS3_EEEE8allocateEjPKv
FNDA:6532,_ZN9__gnu_cxx13new_allocatorISt10_List_nodeIyEE8allocateEjPKv
FNDA:35158,_ZN9__gnu_cxx13new_allocatorI10CoordinateE10deallocateEPS1_j
FNDA:6532,_ZN9__gnu_cxx13new_allocatorISt10_List_nodeISt6vectorI10CoordinateSaIS3_EEEE10deallocateEPS6_j
FNDA:6532,_ZN9__gnu_cxx13new_allocatorISt10_List_nodeIyEE10deallocateEPS2_j
FNDA:35158,_ZNK9__gnu_cxx13new_allocatorI10CoordinateE8max_sizeEv
FNDA:6532,_ZNK9__gnu_cxx13new_allocatorISt10_List_nodeISt6vectorI10CoordinateSaIS3_EEEE8max_sizeEv
FNDA:6532,_ZNK9__gnu_cxx13new_allocatorISt10_List_nodeIyEE8max_sizeEv
FNDA:6532,_ZN9__gnu_cxx13new_allocatorIyE9constructEPyRKy
FNDA:6532,_ZN9__gnu_cxx13new_allocatorISt6vectorI10CoordinateSaIS2_EEE9constructEPS4_RKS4_
FNDA:6532,_ZN9__gnu_cxx13new_allocatorIyE7destroyEPy
FNDA:6532,_ZN9__gnu_cxx13new_allocatorISt6vectorI10CoordinateSaIS2_EEE7destroyEPS4_
FNF:29
FNH:26
DA:66,61514
DA:68,36706
DA:73,98220
DA:84,48222
DA:86,48222
DA:87,0
DA:89,48222
DA:94,48222
DA:95,48222
DA:98,48222
DA:99,48222
DA:104,13064
DA:105,13064
DA:115,13064
BA:86,1
BA:86,2
BA:86,1
BA:86,2
BA:86,1
BA:86,2
BA:105,2
BA:105,1
BA:105,2
BA:105,1
LF:14
LH:13
end_of_record
SF:/usr/include/c++/4.4/i486-linux-gnu/bits/gthr-default.h
FN:238,_ZL18__gthread_active_pv
FNDA:0,_ZL18__gthread_active_pv
FNF:1
FNH:0
DA:238,0
DA:242,0
LF:2
LH:0
end_of_record
SF:/usr/include/c++/4.4/iostream
DA:72,18
LF:1
LH:1
end_of_record
SF:/usr/include/c++/4.4/new
FN:101,_ZnwjPv
FN:105,_ZdlPvS_
FNDA:192783,_ZnwjPv
FNDA:0,_ZdlPvS_
FNF:2
FNH:1
DA:101,192783
DA:105,0
LF:2
LH:1
end_of_record
SF:/usr/include/c++/4.4/ostream
FN:108,_ZNSolsEPFRSoS_E
FN:559,_ZSt5flushIcSt11char_traitsIcEERSt13basic_ostreamIT_T0_ES6_
FN:538,_ZSt4endlIcSt11char_traitsIcEERSt13basic_ostreamIT_T0_ES6_
FN:505,_ZStlsISt11char_traitsIcEERSt13basic_ostreamIcT_ES5_PKc
FNDA:0,_ZNSolsEPFRSoS_E
FNDA:0,_ZStlsISt11char_traitsIcEERSt13basic_ostreamIcT_ES5_PKc
FNDA:0,_ZSt4endlIcSt11char_traitsIcEERSt13basic_ostreamIT_T0_ES6_
FNDA:0,_ZSt5flushIcSt11char_traitsIcEERSt13basic_ostreamIT_T0_ES6_
FNF:4
FNH:0
DA:108,0
DA:113,0
DA:505,0
DA:507,0
DA:508,0
DA:510,0
DA:512,0
DA:538,0
DA:539,0
DA:559,0
DA:560,0
BA:507,0
BA:507,0
LF:11
LH:0
end_of_record
SF:/home/frechilla/workspace/headless/blockem_sourceforge/src/board.h
FN:103,_ZNK5Board8GetNRowsEv
FN:109,_ZNK5Board11GetNColumnsEv
FN:91,_ZN5Board16SetPlayerInCoordERK10CoordinateRK6Player
FN:67,_ZN5Board10BlankCoordERK10Coordinate
FN:55,_ZNK5Board12IsCoordEmptyERK10Coordinate
FN:79,_ZNK5Board15IsPlayerInCoordERK10CoordinateRK6Player
FNDA:0,_ZNK5Board12IsCoordEmptyERK10Coordinate
FNDA:8491937,_ZN5Board10BlankCoordERK10Coordinate
FNDA:6449173,_ZNK5Board15IsPlayerInCoordERK10CoordinateRK6Player
FNDA:8490006,_ZN5Board16SetPlayerInCoordERK10CoordinateRK6Player
FNDA:0,_ZNK5Board8GetNRowsEv
FNDA:0,_ZNK5Board11GetNColumnsEv
FNF:6
FNH:3
DA:55,0
DA:58,0
DA:59,0
DA:60,0
DA:61,0
DA:63,0
DA:67,8491937
DA:70,8491937
DA:71,8491937
DA:72,8491937
DA:73,8491937
DA:75,8491937
DA:76,8491937
DA:79,6449173
DA:82,6449173
DA:83,6449173
DA:84,6449173
DA:85,6449173
DA:87,6449173
DA:91,8490006
DA:94,8490006
DA:95,8490006
DA:96,8490006
DA:97,8490006
DA:99,8490006
DA:100,8490006
DA:103,0
DA:105,0
DA:109,0
DA:111,0
BA:58,0
BA:58,0
BA:59,0
BA:59,0
BA:60,0
BA:60,0
BA:61,0
BA:61,0
BA:70,1
BA:70,2
BA:71,1
BA:71,2
BA:72,1
BA:72,2
BA:73,1
BA:73,2
BA:82,1
BA:82,2
BA:83,1
BA:83,2
BA:84,1
BA:84,2
BA:85,1
BA:85,2
BA:94,1
BA:94,2
BA:95,1
BA:95,2
BA:96,1
BA:96,2
BA:97,1
BA:97,2
LF:30
LH:20
end_of_record
SF:/home/frechilla/workspace/headless/blockem_sourceforge/src/coordinate.h
FN:49,_ZN10CoordinateC1Ev
FN:53,_ZN10CoordinateC1Eii
FN:47,_ZN10CoordinateaSERKS_
FN:47,_ZN10CoordinateC1ERKS_
FN:57,_ZN10CoordinateD0Ev
FN:57,_ZN10CoordinateD1Ev
FNDA:7613011,_ZN10CoordinateaSERKS_
FNDA:179789,_ZN10CoordinateC1ERKS_
FNDA:2351165,_ZN10CoordinateC1Ev
FNDA:0,_ZN10CoordinateC1Eii
FNDA:0,_ZN10CoordinateD0Ev
FNDA:0,_ZN10CoordinateD1Ev
FNF:6
FNH:3
DA:47,7792800
DA:49,2351165
DA:51,2351165
DA:52,2351165
DA:53,0
DA:55,0
DA:56,0
DA:57,0
DA:58,0
BA:58,0
BA:58,0
BA:58,0
BA:58,0
LF:9
LH:4
end_of_record
SF:/home/frechilla/workspace/headless/blockem_sourceforge/src/coordinate_set.h
FN:56,_ZN13CoordinateSetILi14ELi14EED1Ev
FN:85,_ZN13CoordinateSetILi14ELi14EE5clearEv
FN:52,_ZN13CoordinateSetILi14ELi14EEC1Ev
FN:61,_ZNK13CoordinateSetILi14ELi14EE9isPresentERK10Coordinate
FN:71,_ZN13CoordinateSetILi14ELi14EE6insertERK10Coordinate
FNDA:51008,_ZN13CoordinateSetILi14ELi14EEC1Ev
FNDA:51008,_ZN13CoordinateSetILi14ELi14EED1Ev
FNDA:4181119,_ZNK13CoordinateSetILi14ELi14EE9isPresentERK10Coordinate
FNDA:2252452,_ZN13CoordinateSetILi14ELi14EE6insertERK10Coordinate
FNDA:444587,_ZN13CoordinateSetILi14ELi14EE5clearEv
FNF:5
FNH:5
DA:52,51008
DA:54,51008
DA:55,51008
DA:56,51008
DA:58,51008
DA:61,4181119
DA:64,4181119
DA:65,4181119
DA:67,4181119
DA:71,2252452
DA:74,2252452
DA:75,2252452
DA:77,2252452
DA:79,2252452
DA:80,2252452
DA:82,2252452
DA:85,444587
DA:87,6668805
DA:89,93363270
DA:91,87139052
DA:95,444587
DA:96,444587
BA:64,2
BA:64,1
BA:64,1
BA:64,2
BA:65,2
BA:65,1
BA:65,1
BA:65,2
BA:74,2
BA:74,1
BA:74,1
BA:74,2
BA:75,2
BA:75,1
BA:75,1
BA:75,2
BA:77,2
BA:77,1
BA:87,2
BA:87,2
BA:89,2
BA:89,2
LF:22
LH:22
end_of_record
SF:/home/frechilla/workspace/headless/blockem_sourceforge/src/game1v1.cpp
FN:71,_ZN7Game1v118SetProgressHandlerEPFvfE
FN:1099,_Z41__static_initialization_and_destruction_0ii
FN:1099,_GLOBAL__I__ZN7Game1v1C2ERK10CoordinateS2_
FN:1090,_ZN7Game1v18SaveGameERSo
FN:118,_ZNK7Game1v113GetPlayerTypeERK6Player
FN:97,_ZNK7Game1v111GetOpponentENS_16eGame1v1Player_tE
FN:76,_ZNK7Game1v19GetPlayerENS_16eGame1v1Player_tE
FN:1019,_ZN7Game1v15ResetERK10CoordinateS2_
FN:984,_ZN7Game1v123RecalculateNKInAllBoardERK5BoardR6PlayerS4_
FN:1028,_ZN7Game1v18LoadGameERSi
FN:291,_ZN7Game1v112PutDownPieceER5BoardRK10CoordinateRKSt6vectorIS2_SaIS2_EEiR6PlayerSB_
FN:253,_ZN7Game1v112PutDownPieceERK5PieceRK10CoordinateNS_16eGame1v1Player_tE
FN:203,_ZN7Game1v111RemovePieceER5BoardRK10CoordinateRKSt6vectorIS2_SaIS2_EEiR6PlayerSB_
FN:731,_ZN7Game1v122MinMaxAlphaBetaComputeER5BoardR6PlayerPP13CoordinateSetILi14ELi14EEPP5PieceS3_S7_SA_PFiRKS0_RKS2_SE_EiiiiRVKiRi
FN:595,_ZN7Game1v117ComputeFirstPieceER5BoardR6PlayerS3_RK10CoordinateRK5PieceRS7_RS4_
FN:336,_ZN7Game1v16MinMaxEPFiRK5BoardRK6PlayerS5_EiNS_16eGame1v1Player_tER5PieceR10CoordinateRVKiRKSB_RKS9_
FN:165,_ZN7Game1v111RemovePieceERK5PieceRK10CoordinateNS_16eGame1v1Player_tE
FN:140,_ZN7Game1v115SetPlayerColourENS_16eGame1v1Player_tEhhh
FN:67,_ZN7Game1v1D0Ev
FN:67,_ZN7Game1v1D1Ev
FN:67,_ZN7Game1v1D2Ev
FN:55,_ZN7Game1v1C1ERK10CoordinateS2_
FN:55,_ZN7Game1v1C2ERK10CoordinateS2_
FNDA:15,_ZN7Game1v1C1ERK10CoordinateS2_
FNDA:1,_ZN7Game1v1C2ERK10CoordinateS2_
FNDA:0,_ZN7Game1v1D0Ev
FNDA:15,_ZN7Game1v1D1Ev
FNDA:1,_ZN7Game1v1D2Ev
FNDA:0,_ZN7Game1v118SetProgressHandlerEPFvfE
FNDA:1311,_ZNK7Game1v19GetPlayerENS_16eGame1v1Player_tE
FNDA:0,_ZNK7Game1v111GetOpponentENS_16eGame1v1Player_tE
FNDA:0,_ZNK7Game1v113GetPlayerTypeERK6Player
FNDA:0,_ZN7Game1v115SetPlayerColourENS_16eGame1v1Player_tEhhh
FNDA:91,_ZN7Game1v111RemovePieceERK5PieceRK10CoordinateNS_16eGame1v1Player_tE
FNDA:1904210,_ZN7Game1v111RemovePieceER5BoardRK10CoordinateRKSt6vectorIS2_SaIS2_EEiR6PlayerSB_
FNDA:115,_ZN7Game1v112PutDownPieceERK5PieceRK10CoordinateNS_16eGame1v1Player_tE
FNDA:1904234,_ZN7Game1v112PutDownPieceER5BoardRK10CoordinateRKSt6vectorIS2_SaIS2_EEiR6PlayerSB_
FNDA:15,_ZN7Game1v16MinMaxEPFiRK5BoardRK6PlayerS5_EiNS_16eGame1v1Player_tER5PieceR10CoordinateRVKiRKSB_RKS9_
FNDA:1,_ZN7Game1v117ComputeFirstPieceER5BoardR6PlayerS3_RK10CoordinateRK5PieceRS7_RS4_
FNDA:1904129,_ZN7Game1v122MinMaxAlphaBetaComputeER5BoardR6PlayerPP13CoordinateSetILi14ELi14EEPP5PieceS3_S7_SA_PFiRKS0_RKS2_SE_EiiiiRVKiRi
FNDA:31,_ZN7Game1v123RecalculateNKInAllBoardERK5BoardR6PlayerS4_
FNDA:3,_ZN7Game1v15ResetERK10CoordinateS2_
FNDA:15,_ZN7Game1v18LoadGameERSi
FNDA:30,_ZN7Game1v18SaveGameERSo
FNDA:18,_Z41__static_initialization_and_destruction_0ii
FNDA:18,_GLOBAL__I__ZN7Game1v1C2ERK10CoordinateS2_
FNF:23
FNH:18
DA:55,16
DA:61,16
DA:64,16
DA:65,16
DA:67,16
DA:69,16
DA:71,0
DA:73,0
DA:74,0
DA:76,1311
DA:78,1311
DA:82,1311
DA:86,0
DA:91,0
DA:97,0
DA:99,0
DA:103,0
DA:107,0
DA:112,0
DA:118,0
DA:120,0
DA:122,0
DA:124,0
DA:126,0
DA:128,0
DA:133,0
DA:137,0
DA:140,0
DA:146,0
DA:150,0
DA:151,0
DA:155,0
DA:156,0
DA:160,0
DA:163,0
DA:165,91
DA:170,91
DA:180,91
DA:181,91
DA:182,91
DA:192,0
DA:193,0
DA:194,0
DA:198,0
DA:201,91
DA:203,1904210
DA:212,1904210
DA:213,1904210
DA:215,1904210
DA:216,1904210
DA:219,10394088
DA:224,8489878
DA:227,8489878
DA:229,8489878
DA:233,8489878
DA:236,8489878
DA:240,8489878
DA:245,453277
DA:250,1904210
DA:251,1904210
DA:253,115
DA:258,115
DA:268,96
DA:269,96
DA:270,96
DA:280,19
DA:281,19
DA:282,19
DA:286,0
DA:289,115
DA:291,1904234
DA:300,1904234
DA:301,1904234
DA:303,1904234
DA:304,1904234
DA:307,10394220
DA:312,8489986
DA:316,8489986
DA:318,8489986
DA:320,8489986
DA:325,8489986
DA:329,8489986
DA:333,1904234
DA:334,1904234
DA:336,15
DA:346,15
DA:347,15
DA:349,15
DA:353,15
DA:354,15
DA:355,15
DA:359,0
DA:360,0
DA:361,0
DA:365,0
DA:370,15
DA:379,1
DA:382,14
DA:384,14
DA:385,14
DA:388,14
DA:389,28
DA:393,14
DA:397,14
DA:398,14
DA:407,308
DA:409,294
DA:410,294
DA:411,294
DA:412,294
DA:417,14
DA:426,14
DA:427,14
DA:430,14
DA:433,0
DA:437,14
DA:441,14
DA:446,14
DA:448,308
DA:450,294
DA:452,0
DA:455,294
DA:456,294
DA:457,294
DA:459,14
DA:463,544
DA:464,250
DA:471,149
DA:474,145
DA:477,145
DA:478,145
DA:480,145
DA:485,756
DA:488,756
DA:489,11337
DA:497,9825
DA:498,9825
DA:500,16287
DA:502,6462
DA:504,5924
DA:510,5924
DA:512,5924
DA:515,5924
DA:518,5924
DA:537,5924
DA:539,5924
DA:541,43
DA:543,18
DA:545,43
DA:547,43
DA:548,43
DA:550,43
DA:557,5924
DA:559,5924
DA:561,5924
DA:569,0
DA:573,5924
DA:578,9825
DA:581,756
DA:584,145
DA:589,14
DA:592,14
DA:595,1
DA:605,1
DA:612,0
DA:613,0
DA:614,0
DA:616,0
DA:617,0
DA:627,1
DA:629,1
DA:630,2
DA:632,1
DA:634,0
DA:636,0
DA:640,0
DA:643,1
DA:647,1
DA:656,0
DA:657,0
DA:659,0
DA:662,0
DA:664,0
DA:667,0
DA:670,0
DA:674,0
DA:675,0
DA:676,0
DA:685,0
DA:686,0
DA:688,0
DA:694,0
DA:696,0
DA:701,0
DA:703,0
DA:706,0
DA:707,0
DA:709,0
DA:711,0
DA:712,0
DA:719,0
DA:721,0
DA:725,0
DA:728,1
DA:731,1904129
DA:751,1904129
DA:754,1904129
DA:762,1878639
DA:766,25490
DA:768,25490
DA:772,25490
DA:773,25490
DA:778,25490
DA:783,25490
DA:785,196982
DA:787,326351
DA:788,136307
DA:795,87231
DA:798,102813
DA:801,102813
DA:802,102813
DA:804,102813
DA:809,411375
DA:812,411375
DA:813,6349604
DA:822,9359391
DA:831,11016120
DA:832,5508060
DA:834,2127878
DA:836,1694075
DA:837,1694075
DA:842,5545406
DA:845,1694075
DA:854,3851331
DA:855,3851331
DA:857,5879558
DA:859,2046779
DA:861,1898195
DA:867,1898195
DA:869,1898195
DA:872,1898195
DA:875,1898195
DA:894,1898195
DA:896,1898195
DA:898,24013
DA:905,1898195
DA:907,1898195
DA:909,1898195
DA:917,0
DA:920,1898195
DA:924,18552
DA:925,18552
DA:930,3832779
DA:933,392823
DA:936,84261
DA:939,6938
DA:943,10
DA:961,10
DA:963,10
DA:971,0
DA:974,10
DA:976,0
DA:980,6938
DA:984,31
DA:989,31
DA:990,465
DA:994,6510
DA:998,6076
DA:1000,182
DA:1004,5894
DA:1007,6076
DA:1009,130
DA:1013,5946
DA:1016,31
DA:1017,31
DA:1019,3
DA:1023,3
DA:1024,3
DA:1025,3
DA:1026,3
DA:1028,15
DA:1030,15
DA:1032,15
DA:1034,0
DA:1037,15
DA:1038,225
DA:1040,210
DA:1041,210
DA:1043,210
DA:1044,3150
DA:1046,2940
DA:1049,2473
DA:1050,2473
DA:1052,214
DA:1053,214
DA:1055,253
DA:1056,253
DA:1058,0
DA:1060,0
DA:1063,2940
DA:1066,15
DA:1068,15
DA:1069,330
DA:1071,315
DA:1073,44
DA:1076,15
DA:1077,330
DA:1079,315
DA:1081,51
DA:1085,15
DA:1087,15
DA:1090,30
DA:1092,30
DA:1093,30
DA:1094,30
DA:1096,30
DA:1098,30
DA:1099,54
BA:69,0
BA:69,0
BA:69,1
BA:69,2
BA:69,1
BA:69,2
BA:78,2
BA:78,1
BA:78,1
BA:99,0
BA:99,0
BA:99,0
BA:122,0
BA:122,0
BA:126,0
BA:126,0
BA:146,0
BA:146,0
BA:146,0
BA:170,2
BA:170,1
BA:170,1
BA:212,1
BA:212,2
BA:213,1
BA:213,2
BA:215,1
BA:215,2
BA:216,1
BA:216,2
BA:219,2
BA:219,2
BA:227,2
BA:227,1
BA:227,1
BA:227,2
BA:229,2
BA:229,1
BA:229,1
BA:229,2
BA:233,2
BA:233,1
BA:240,2
BA:240,2
BA:258,2
BA:258,2
BA:258,1
BA:300,1
BA:300,2
BA:301,1
BA:301,2
BA:303,1
BA:303,2
BA:304,1
BA:304,2
BA:307,2
BA:307,2
BA:316,2
BA:316,1
BA:316,1
BA:316,2
BA:318,2
BA:318,1
BA:318,1
BA:318,2
BA:320,2
BA:320,1
BA:349,2
BA:349,1
BA:349,1
BA:370,2
BA:370,2
BA:407,2
BA:407,2
BA:430,1
BA:430,2
BA:448,2
BA:448,2
BA:450,1
BA:450,2
BA:457,2
BA:457,2
BA:463,2
BA:463,2
BA:463,2
BA:463,2
BA:463,2
BA:463,2
BA:463,2
BA:463,1
BA:463,2
BA:463,2
BA:480,1
BA:480,2
BA:480,2
BA:480,2
BA:489,2
BA:489,2
BA:500,2
BA:500,2
BA:502,2
BA:502,2
BA:539,2
BA:539,2
BA:541,2
BA:541,2
BA:561,1
BA:561,2
BA:573,1
BA:573,2
BA:605,2
BA:605,1
BA:605,1
BA:605,2
BA:605,0
BA:605,0
BA:605,0
BA:605,0
BA:605,1
BA:605,2
BA:630,2
BA:630,1
BA:634,0
BA:634,0
BA:647,1
BA:647,2
BA:664,0
BA:664,0
BA:667,0
BA:667,0
BA:676,0
BA:676,0
BA:688,0
BA:688,0
BA:703,0
BA:703,0
BA:707,0
BA:707,0
BA:754,2
BA:754,2
BA:754,1
BA:754,2
BA:754,2
BA:754,2
BA:785,2
BA:785,2
BA:787,2
BA:787,2
BA:787,2
BA:787,2
BA:787,2
BA:787,2
BA:787,2
BA:787,2
BA:787,2
BA:787,2
BA:804,2
BA:804,2
BA:804,2
BA:804,2
BA:813,2
BA:813,2
BA:822,2
BA:822,2
BA:831,2
BA:831,1
BA:831,2
BA:831,2
BA:831,2
BA:831,2
BA:834,2
BA:834,2
BA:842,2
BA:842,2
BA:857,2
BA:857,2
BA:859,2
BA:859,2
BA:896,2
BA:896,2
BA:909,1
BA:909,2
BA:920,2
BA:920,2
BA:939,2
BA:939,2
BA:963,1
BA:963,2
BA:974,1
BA:974,2
BA:990,2
BA:990,2
BA:994,2
BA:994,2
BA:998,2
BA:998,2
BA:1007,2
BA:1007,2
BA:1032,1
BA:1032,2
BA:1038,2
BA:1038,2
BA:1044,2
BA:1044,2
BA:1046,2
BA:1046,2
BA:1046,2
BA:1046,1
BA:1069,2
BA:1069,2
BA:1071,2
BA:1071,2
BA:1077,2
BA:1077,2
BA:1079,2
BA:1079,2
BA:1099,2
BA:1099,1
BA:1099,2
BA:1099,1
LF:318
LH:241
end_of_record
SF:/home/frechilla/workspace/headless/blockem_sourceforge/src/game1v1.h
DA:53,18
DA:56,18
LF:2
LH:2
end_of_record
SF:/home/frechilla/workspace/headless/blockem_sourceforge/src/piece.h
FN:152,_ZNK5Piece7GetTypeEv
FN:167,_ZNK5Piece9GetRadiusEv
FN:173,_ZNK5Piece21GetPrecalculatedConfsEv
FN:195,_ZNK5Piece23GetCurrentConfigurationEv
FN:158,_ZNK5Piece11GetNSquaresEv
FN:187,_ZN5Piece23SetCurrentConfigurationERKSt6vectorI10CoordinateSaIS1_EE
FN:92,_ZN5PieceaSERKS_
FNDA:831,_ZN5PieceaSERKS_
FNDA:5509404,_ZNK5Piece7GetTypeEv
FNDA:141731,_ZNK5Piece11GetNSquaresEv
FNDA:7669777,_ZNK5Piece9GetRadiusEv
FNDA:102958,_ZNK5Piece21GetPrecalculatedConfsEv
FNDA:43,_ZN5Piece23SetCurrentConfigurationERKSt6vectorI10CoordinateSaIS1_EE
FNDA:207,_ZNK5Piece23GetCurrentConfigurationEv
FNF:7
FNH:7
DA:92,831
DA:152,5509404
DA:154,5509404
DA:158,141731
DA:160,141731
DA:167,7669777
DA:169,7669777
DA:173,102958
DA:175,102958
DA:187,43
DA:189,258
DA:191,215
DA:193,43
DA:195,207
DA:197,207
BA:189,2
BA:189,2
LF:15
LH:15
end_of_record
SF:/home/frechilla/workspace/headless/blockem_sourceforge/src/player.h
FN:80,_ZNK6Player16PresentationCharEv
FN:98,_ZNK6Player21GetStartingCoordinateEv
FN:109,_ZNK6Player23NumberOfPiecesAvailableEv
FN:114,_ZNK6Player24NumberOfNucleationPointsEv
FN:120,_ZN6Player10UnsetPieceE12ePieceType_t
FN:161,_ZN6Player18SetNucleationPointERK10Coordinate
FN:178,_ZN6Player20UnsetNucleationPointERK10Coordinate
FN:151,_ZNK6Player17IsNucleationPointERK10Coordinate
FN:142,_ZNK6Player16IsPieceAvailableE12ePieceType_t
FN:214,_ZNK6Player22GetAllNucleationPointsILi14ELi14EEEiR13CoordinateSetIXT_EXT0_EE
FN:131,_ZN6Player8SetPieceE12ePieceType_t
FNDA:0,_ZNK6Player16PresentationCharEv
FNDA:2,_ZNK6Player21GetStartingCoordinateEv
FNDA:1964052,_ZNK6Player23NumberOfPiecesAvailableEv
FNDA:14,_ZNK6Player24NumberOfNucleationPointsEv
FNDA:103190,_ZN6Player10UnsetPieceE12ePieceType_t
FNDA:103054,_ZN6Player8SetPieceE12ePieceType_t
FNDA:190338,_ZNK6Player16IsPieceAvailableE12ePieceType_t
FNDA:689551246,_ZNK6Player17IsNucleationPointERK10Coordinate
FNDA:11962984,_ZN6Player18SetNucleationPointERK10Coordinate
FNDA:97053344,_ZN6Player20UnsetNucleationPointERK10Coordinate
FNDA:25504,_ZNK6Player22GetAllNucleationPointsILi14ELi14EEEiR13CoordinateSetIXT_EXT0_EE
FNF:11
FNH:10
DA:80,0
DA:82,0
DA:98,2
DA:100,2
DA:109,1964052
DA:111,1964052
DA:114,14
DA:116,14
DA:120,103190
DA:123,103190
DA:124,103190
DA:126,103190
DA:127,103190
DA:128,103190
DA:131,103054
DA:134,103054
DA:135,103054
DA:137,103054
DA:138,103054
DA:139,103054
DA:142,190338
DA:145,190338
DA:147,190338
DA:151,689551246
DA:154,689551246
DA:155,689551246
DA:157,689551246
DA:161,11962984
DA:164,11962984
DA:165,11962984
DA:167,11962984
DA:170,8288680
DA:172,8288680
DA:173,8288680
DA:175,11962984
DA:178,97053344
DA:181,97053344
DA:182,97053344
DA:184,97053344
DA:187,8288333
DA:189,8288333
DA:190,8288333
DA:192,97053344
DA:214,25504
DA:218,25504
DA:219,25504
DA:221,25504
DA:222,25504
DA:224,382560
DA:226,5355840
DA:228,4998784
DA:230,348333
DA:232,348333
DA:237,25504
BA:123,2
BA:123,1
BA:123,1
BA:123,2
BA:124,2
BA:124,1
BA:134,2
BA:134,1
BA:134,1
BA:134,2
BA:135,1
BA:135,2
BA:145,2
BA:145,1
BA:145,1
BA:145,2
BA:154,2
BA:154,1
BA:154,1
BA:154,2
BA:155,2
BA:155,1
BA:155,1
BA:155,2
BA:164,2
BA:164,1
BA:164,1
BA:164,2
BA:165,2
BA:165,1
BA:165,1
BA:165,2
BA:167,2
BA:167,2
BA:170,1
BA:170,2
BA:181,2
BA:181,1
BA:181,1
BA:181,2
BA:182,2
BA:182,1
BA:182,1
BA:182,2
BA:184,2
BA:184,2
BA:187,1
BA:187,2
BA:218,1
BA:218,2
BA:219,1
BA:219,2
BA:224,2
BA:224,2
BA:226,2
BA:226,2
BA:228,2
BA:228,2
LF:54
LH:52
end_of_record
TN:
SF:/usr/include/c++/4.4/bits/stl_list.h
FN:200,_ZNSt20_List_const_iteratorISt6vectorI10CoordinateSaIS1_EEEC1Ev
FN:255,_ZNKSt20_List_const_iteratorISt6vectorI10CoordinateSaIS1_EEEneERKS4_
FN:228,_ZNSt20_List_const_iteratorISt6vectorI10CoordinateSaIS1_EEEppEi
FN:213,_ZNKSt20_List_const_iteratorIyEdeEv
FN:213,_ZNKSt20_List_const_iteratorISt6vectorI10CoordinateSaIS1_EEEdeEv
FN:228,_ZNSt20_List_const_iteratorIyEppEi
FN:251,_ZNKSt20_List_const_iteratorIyEeqERKS0_
FN:204,_ZNSt20_List_const_iteratorIyEC1EPKSt15_List_node_base
FN:698,_ZNKSt4listIySaIyEE5beginEv
FN:716,_ZNKSt4listIySaIyEE3endEv
FN:204,_ZNSt20_List_const_iteratorISt6vectorI10CoordinateSaIS1_EEEC1EPKSt15_List_node_base
FN:698,_ZNKSt4listISt6vectorI10CoordinateSaIS1_EESaIS3_EE5beginEv
FN:716,_ZNKSt4listISt6vectorI10CoordinateSaIS1_EESaIS3_EE3endEv
FNDA:140,_ZNSt20_List_const_iteratorISt6vectorI10CoordinateSaIS1_EEEC1Ev
FNDA:530,_ZNSt20_List_const_iteratorIyEC1EPKSt15_List_node_base
FNDA:1139,_ZNSt20_List_const_iteratorISt6vectorI10CoordinateSaIS1_EEEC1EPKSt15_List_node_base
FNDA:1157,_ZNKSt20_List_const_iteratorIyEdeEv
FNDA:84989,_ZNKSt20_List_const_iteratorISt6vectorI10CoordinateSaIS1_EEEdeEv
FNDA:523,_ZNSt20_List_const_iteratorISt6vectorI10CoordinateSaIS1_EEEppEi
FNDA:429,_ZNSt20_List_const_iteratorIyEppEi
FNDA:265,_ZNKSt20_List_const_iteratorIyEeqERKS0_
FNDA:1517,_ZNKSt20_List_const_iteratorISt6vectorI10CoordinateSaIS1_EEEneERKS4_
FNDA:265,_ZNKSt4listIySaIyEE5beginEv
FNDA:308,_ZNKSt4listISt6vectorI10CoordinateSaIS1_EESaIS3_EE5beginEv
FNDA:265,_ZNKSt4listIySaIyEE3endEv
FNDA:831,_ZNKSt4listISt6vectorI10CoordinateSaIS1_EESaIS3_EE3endEv
FNF:13
FNH:13
DA:200,140
DA:201,140
DA:204,1669
DA:205,1669
DA:213,86146
DA:214,86146
DA:228,952
DA:230,952
DA:231,952
DA:251,265
DA:252,265
DA:255,1517
DA:256,1517
DA:698,573
DA:699,573
DA:716,1096
DA:717,1096
LF:17
LH:17
end_of_record
SF:/home/frechilla/workspace/headless/blockem_sourceforge/src/bitwise.h
FN:136,_ZN7bitwise17IsPieceDeployableEyyy
DA:136,84084
DA:139,84084
DA:145,52364
DA:151,47249
DA:156,2815
DA:161,81269
LF:6
LH:6
end_of_record
SF:/home/frechilla/workspace/headless/blockem_sourceforge/src/board.h
FN:103,_ZNK5Board8GetNRowsEv
FN:109,_ZNK5Board11GetNColumnsEv
FN:55,_ZNK5Board12IsCoordEmptyERK10Coordinate
DA:55,3972145
DA:58,3972145
DA:59,3972145
DA:60,3972145
DA:61,3972145
DA:63,3972145
DA:67,415
DA:70,415
DA:71,415
DA:72,415
DA:73,415
DA:75,415
DA:76,415
DA:91,537
DA:94,537
DA:95,537
DA:96,537
DA:97,537
DA:99,537
DA:100,537
DA:103,2610014
DA:105,2610014
DA:109,5690642
DA:111,5690642
LF:24
LH:24
end_of_record
SF:/home/frechilla/workspace/headless/blockem_sourceforge/src/coordinate.h
FN:53,_ZN10CoordinateC1Eii
FN:57,_ZN10CoordinateD0Ev
FN:57,_ZN10CoordinateD1Ev
DA:53,998871
DA:55,998871
DA:56,998871
DA:57,1008592
DA:58,1008592
LF:5
LH:5
end_of_record
SF:/home/frechilla/workspace/headless/blockem_sourceforge/src/game1v1.h
FN:91,_ZNK7Game1v18GetBoardEv
DA:53,2
DA:56,2
DA:91,828
DA:93,828
LF:4
LH:4
end_of_record
SF:/home/frechilla/workspace/headless/blockem_sourceforge/src/tests/game1v1_test.cpp
FN:3543,_Z41__static_initialization_and_destruction_0ii
FN:3543,_GLOBAL__I__ZN11Game1v1TestC2Ev
FN:3261,_ZN11Game1v1Test22TestPiece_5TheUltimateEv
FN:2977,_ZN11Game1v1Test22TestPiece_5BoringPieceEv
FN:2712,_ZN11Game1v1Test22TestPiece_5SquareAppenEv
FN:2568,_ZN11Game1v1Test14TestPiece_5MrTEv
FN:2300,_ZN11Game1v1Test15TestPiece_5BigLEv
FN:2164,_ZN11Game1v1Test21TestPiece_5HalfSquareEv
FN:2118,_ZN11Game1v1Test16TestPiece_5CrossEv
FN:2050,_ZN11Game1v1Test19TestPiece_5BigPenisEv
FN:1917,_ZN11Game1v1Test20TestPiece_5CuntPieceEv
FN:1763,_ZN11Game1v1Test17TestPiece_5WPieceEv
FN:1463,_ZN11Game1v1Test19TestPiece_5SafPieceEv
FN:1316,_ZN11Game1v1Test15TestPiece_5BigSEv
FN:1281,_ZN11Game1v1Test21TestPiece_4FullSquareEv
FN:1034,_ZN11Game1v1Test18TestPiece_4littleLEv
FN:900,_ZN11Game1v1Test18TestPiece_4LittleTEv
FN:760,_ZN11Game1v1Test18TestPiece_4LittleSEv
FN:697,_ZN11Game1v1Test20TestPiece_4LongPieceEv
FN:577,_ZN11Game1v1Test19TestPiece_3TriangleEv
FN:517,_ZN11Game1v1Test20TestPiece_3LongPieceEv
FN:461,_ZN11Game1v1Test19TestPiece_2TwoPieceEv
FN:430,_ZN11Game1v1Test20TestPiece_1BabyPieceEv
FN:362,_ZN11Game1v1Test10TestPiecesEv
FN:43,_ZN11Game1v1Test29TestBitwiseCheckConfigurationERK10CoordinateRKSt6vectorIS0_SaIS0_EEyyy
FN:83,_ZN11Game1v1Test25TestBoardAndPiecesBitwiseEi12ePieceType_t
FN:215,_ZN11Game1v1Test11TestBitwiseEv
FN:39,_ZN11Game1v1TestD0Ev
FN:39,_ZN11Game1v1TestD1Ev
FN:39,_ZN11Game1v1TestD2Ev
FN:34,_ZN11Game1v1TestC1Ev
FN:34,_ZN11Game1v1TestC2Ev
FNDA:1,_ZN11Game1v1TestC1Ev
FNDA:0,_ZN11Game1v1TestC2Ev
FNDA:0,_ZN11Game1v1TestD0Ev
FNDA:1,_ZN11Game1v1TestD1Ev
FNDA:0,_ZN11Game1v1TestD2Ev
FNDA:84084,_ZN11Game1v1Test29TestBitwiseCheckConfigurationERK10CoordinateRKSt6vectorIS0_SaIS0_EEyyy
FNDA:5,_ZN11Game1v1Test25TestBoardAndPiecesBitwiseEi12ePieceType_t
FNDA:1,_ZN11Game1v1Test11TestBitwiseEv
FNDA:1,_ZN11Game1v1Test10TestPiecesEv
FNDA:1,_ZN11Game1v1Test20TestPiece_1BabyPieceEv
FNDA:1,_ZN11Game1v1Test19TestPiece_2TwoPieceEv
FNDA:1,_ZN11Game1v1Test20TestPiece_3LongPieceEv
FNDA:1,_ZN11Game1v1Test19TestPiece_3TriangleEv
FNDA:1,_ZN11Game1v1Test20TestPiece_4LongPieceEv
FNDA:1,_ZN11Game1v1Test18TestPiece_4LittleSEv
FNDA:1,_ZN11Game1v1Test18TestPiece_4LittleTEv
FNDA:1,_ZN11Game1v1Test18TestPiece_4littleLEv
FNDA:1,_ZN11Game1v1Test21TestPiece_4FullSquareEv
FNDA:1,_ZN11Game1v1Test15TestPiece_5BigSEv
FNDA:1,_ZN11Game1v1Test19TestPiece_5SafPieceEv
FNDA:1,_ZN11Game1v1Test17TestPiece_5WPieceEv
FNDA:1,_ZN11Game1v1Test20TestPiece_5CuntPieceEv
FNDA:1,_ZN11Game1v1Test19TestPiece_5BigPenisEv
FNDA:1,_ZN11Game1v1Test16TestPiece_5CrossEv
FNDA:1,_ZN11Game1v1Test21TestPiece_5HalfSquareEv
FNDA:1,_ZN11Game1v1Test15TestPiece_5BigLEv
FNDA:1,_ZN11Game1v1Test14TestPiece_5MrTEv
FNDA:1,_ZN11Game1v1Test22TestPiece_5SquareAppenEv
FNDA:1,_ZN11Game1v1Test22TestPiece_5BoringPieceEv
FNDA:1,_ZN11Game1v1Test22TestPiece_5TheUltimateEv
FNDA:1,_Z41__static_initialization_and_destruction_0ii
FNDA:1,_GLOBAL__I__ZN11Game1v1TestC2Ev
FNF:32
FNH:29
DA:34,1
DA:35,1
DA:37,1
DA:39,1
DA:41,1
DA:43,84084
DA:59,84084
DA:60,84084
DA:61,84084
DA:70,84084
DA:76,84084
DA:80,84084
DA:81,84084
DA:83,5
DA:86,5
DA:88,3
DA:91,5
DA:93,110
DA:95,105
DA:98,8
DA:100,3
DA:102,8
DA:103,8
DA:106,97
DA:107,97
DA:111,97
DA:112,97
DA:114,526
DA:119,429
DA:125,429
DA:127,429
DA:132,2574
DA:134,42042
DA:144,39039
DA:146,39039
DA:155,3003
DA:157,3003
DA:159,0
DA:163,3003
DA:164,3003
DA:167,42042
DA:177,39039
DA:179,39039
DA:188,3003
DA:190,3003
DA:192,429
DA:196,2574
DA:197,2574
DA:203,429
DA:208,97
DA:213,5
DA:214,5
DA:215,1
DA:218,1
DA:237,1
DA:238,2
DA:242,1
DA:245,1
DA:264,2
DA:265,2
DA:268,1
DA:271,1
DA:294,1
DA:295,2
DA:296,1
DA:297,2
DA:300,1
DA:325,2
DA:326,1
DA:327,1
DA:328,2
DA:331,1
DA:356,2
DA:359,1
DA:360,1
DA:362,1
DA:364,1
DA:366,22
DA:368,29
DA:370,29
DA:371,149
DA:373,91
DA:374,91
DA:375,91
DA:378,29
DA:379,29
DA:381,21
DA:385,1
DA:388,1
DA:389,22
DA:393,21
DA:394,21
DA:396,112
DA:400,91
DA:405,1
DA:407,1
DA:408,1
DA:409,1
DA:410,1
DA:411,1
DA:412,1
DA:413,1
DA:414,1
DA:415,1
DA:416,1
DA:417,1
DA:418,1
DA:419,1
DA:420,1
DA:421,1
DA:422,1
DA:423,1
DA:424,1
DA:425,1
DA:426,1
DA:427,1
DA:428,1
DA:430,1
DA:433,1
DA:434,1
DA:436,1
DA:437,1
DA:438,1
DA:439,1
DA:440,2
DA:441,2
DA:442,2
DA:444,1
DA:445,2
DA:446,1
DA:447,1
DA:448,2
DA:449,2
DA:450,2
DA:453,1
DA:454,1
DA:455,1
DA:456,1
DA:458,1
DA:459,1
DA:461,1
DA:464,1
DA:465,1
DA:467,1
DA:468,1
DA:469,2
DA:470,1
DA:471,1
DA:472,2
DA:473,2
DA:474,2
DA:476,1
DA:477,2
DA:478,2
DA:479,1
DA:480,1
DA:481,2
DA:482,2
DA:483,2
DA:485,1
DA:486,1
DA:487,1
DA:491,1
DA:492,1
DA:493,2
DA:494,1
DA:495,1
DA:496,2
DA:497,2
DA:498,2
DA:500,1
DA:501,2
DA:502,2
DA:503,1
DA:504,1
DA:505,2
DA:506,2
DA:507,2
DA:509,1
DA:510,1
DA:511,1
DA:512,1
DA:514,1
DA:515,1
DA:517,1
DA:520,1
DA:521,1
DA:523,1
DA:524,1
DA:525,2
DA:526,2
DA:527,1
DA:528,1
DA:529,2
DA:530,2
DA:531,2
DA:533,1
DA:534,2
DA:535,2
DA:536,2
DA:537,1
DA:538,1
DA:539,2
DA:540,2
DA:541,2
DA:543,1
DA:544,1
DA:545,1
DA:550,1
DA:551,1
DA:552,2
DA:553,2
DA:554,1
DA:555,1
DA:556,2
DA:557,2
DA:558,2
DA:560,1
DA:561,2
DA:562,2
DA:563,2
DA:564,1
DA:565,1
DA:566,2
DA:567,2
DA:568,2
DA:570,1
DA:571,1
DA:572,1
DA:573,1
DA:575,1
DA:576,1
DA:577,1
DA:579,1
DA:580,1
DA:584,1
DA:585,1
DA:586,2
DA:587,2
DA:588,1
DA:589,1
DA:590,2
DA:591,2
DA:592,2
DA:593,2
DA:595,1
DA:596,2
DA:597,2
DA:598,2
DA:599,1
DA:600,1
DA:601,2
DA:602,2
DA:603,2
DA:604,2
DA:606,1
DA:607,1
DA:608,1
DA:612,1
DA:613,1
DA:614,2
DA:615,2
DA:616,1
DA:617,1
DA:618,2
DA:619,2
DA:620,2
DA:621,2
DA:623,1
DA:624,2
DA:625,2
DA:626,2
DA:627,1
DA:628,1
DA:629,2
DA:630,2
DA:631,2
DA:632,2
DA:634,1
DA:635,1
DA:636,1
DA:640,1
DA:641,1
DA:642,2
DA:643,2
DA:644,1
DA:645,1
DA:646,2
DA:647,2
DA:648,2
DA:649,2
DA:651,1
DA:652,2
DA:653,2
DA:654,2
DA:655,1
DA:656,1
DA:657,2
DA:658,2
DA:659,2
DA:660,2
DA:662,1
DA:663,1
DA:664,1
DA:668,1
DA:669,1
DA:670,2
DA:671,2
DA:672,1
DA:673,1
DA:674,2
DA:675,2
DA:676,2
DA:677,2
DA:679,1
DA:680,2
DA:681,2
DA:682,2
DA:683,1
DA:684,1
DA:685,2
DA:686,2
DA:687,2
DA:688,2
DA:690,1
DA:691,1
DA:692,1
DA:693,1
DA:695,1
DA:696,1
DA:697,1
DA:700,1
DA:701,1
DA:703,1
DA:704,1
DA:705,2
DA:706,2
DA:707,2
DA:708,1
DA:709,1
DA:710,2
DA:711,2
DA:712,2
DA:714,1
DA:715,2
DA:716,2
DA:717,2
DA:718,2
DA:719,1
DA:720,1
DA:721,2
DA:722,2
DA:723,2
DA:725,1
DA:726,1
DA:732,1
DA:733,1
DA:734,2
DA:735,2
DA:736,2
DA:737,1
DA:738,1
DA:739,2
DA:740,2
DA:741,2
DA:743,1
DA:744,2
DA:745,2
DA:746,2
DA:747,2
DA:748,1
DA:749,1
DA:750,2
DA:751,2
DA:752,2
DA:754,1
DA:755,1
DA:756,1
DA:758,1
DA:759,1
DA:760,1
DA:762,1
DA:763,1
DA:767,1
DA:768,1
DA:769,2
DA:770,2
DA:771,2
DA:772,1
DA:773,1
DA:774,2
DA:775,2
DA:776,2
DA:777,2
DA:778,2
DA:780,1
DA:781,2
DA:782,2
DA:783,2
DA:784,2
DA:785,1
DA:786,1
DA:787,2
DA:788,2
DA:789,2
DA:790,2
DA:791,2
DA:793,1
DA:794,1
DA:799,1
DA:800,1
DA:801,2
DA:802,2
DA:803,2
DA:804,1
DA:805,1
DA:806,2
DA:807,2
DA:808,2
DA:809,2
DA:810,2
DA:812,1
DA:813,2
DA:814,2
DA:815,2
DA:816,2
DA:817,1
DA:818,1
DA:819,2
DA:820,2
DA:821,2
DA:822,2
DA:823,2
DA:825,1
DA:826,1
DA:827,1
DA:828,1
DA:830,1
DA:831,1
DA:835,1
DA:836,2
DA:837,2
DA:838,2
DA:839,2
DA:840,1
DA:841,1
DA:842,2
DA:843,2
DA:844,2
DA:845,2
DA:846,2
DA:848,1
DA:849,2
DA:850,2
DA:851,2
DA:852,2
DA:853,1
DA:854,1
DA:855,2
DA:856,2
DA:857,2
DA:858,2
DA:859,2
DA:861,1
DA:862,1
DA:863,1
DA:868,1
DA:869,1
DA:870,2
DA:871,2
DA:872,2
DA:873,1
DA:874,1
DA:875,2
DA:876,2
DA:877,2
DA:878,2
DA:879,2
DA:881,1
DA:882,2
DA:883,2
DA:884,2
DA:885,2
DA:886,1
DA:887,1
DA:888,2
DA:889,2
DA:890,2
DA:891,2
DA:892,2
DA:894,1
DA:895,1
DA:896,1
DA:898,1
DA:899,1
DA:900,1
DA:904,1
DA:905,1
DA:907,1
DA:908,1
DA:909,2
DA:910,2
DA:911,2
DA:912,1
DA:913,1
DA:914,2
DA:915,2
DA:916,2
DA:917,2
DA:918,2
DA:920,1
DA:921,2
DA:922,2
DA:923,2
DA:924,2
DA:925,1
DA:926,1
DA:927,2
DA:928,2
DA:929,2
DA:930,2
DA:931,2
DA:933,1
DA:934,1
DA:939,1
DA:940,1
DA:941,2
DA:942,2
DA:943,2
DA:944,1
DA:945,1
DA:946,2
DA:947,2
DA:948,2
DA:949,2
DA:950,2
DA:952,1
DA:953,2
DA:954,2
DA:955,2
DA:956,2
DA:957,1
DA:958,1
DA:959,2
DA:960,2
DA:961,2
DA:962,2
DA:963,2
DA:965,1
DA:966,1
DA:970,1
DA:971,1
DA:972,2
DA:973,2
DA:974,2
DA:975,1
DA:976,1
DA:977,2
DA:978,2
DA:979,2
DA:980,2
DA:981,2
DA:983,1
DA:984,2
DA:985,2
DA:986,2
DA:987,2
DA:988,1
DA:989,1
DA:990,2
DA:991,2
DA:992,2
DA:993,2
DA:994,2
DA:996,1
DA:997,1
DA:1002,1
DA:1003,1
DA:1004,2
DA:1005,2
DA:1006,2
DA:1007,1
DA:1008,1
DA:1009,2
DA:1010,2
DA:1011,2
DA:1012,2
DA:1013,2
DA:1015,1
DA:1016,2
DA:1017,2
DA:1018,2
DA:1019,2
DA:1020,1
DA:1021,1
DA:1022,2
DA:1023,2
DA:1024,2
DA:1025,2
DA:1026,2
DA:1028,1
DA:1029,1
DA:1030,1
DA:1032,1
DA:1033,1
DA:1034,1
DA:1038,1
DA:1039,1
DA:1041,1
DA:1042,1
DA:1043,2
DA:1044,2
DA:1045,2
DA:1046,1
DA:1047,1
DA:1048,2
DA:1049,2
DA:1050,2
DA:1051,2
DA:1053,1
DA:1054,2
DA:1055,2
DA:1056,2
DA:1057,2
DA:1058,1
DA:1059,1
DA:1060,2
DA:1061,2
DA:1062,2
DA:1063,2
DA:1065,1
DA:1066,1
DA:1071,1
DA:1072,1
DA:1073,2
DA:1074,2
DA:1075,2
DA:1076,1
DA:1077,1
DA:1078,2
DA:1079,2
DA:1080,2
DA:1081,2
DA:1083,1
DA:1084,2
DA:1085,2
DA:1086,2
DA:1087,2
DA:1088,1
DA:1089,1
DA:1090,2
DA:1091,2
DA:1092,2
DA:1093,2
DA:1095,1
DA:1096,1
DA:1100,1
DA:1101,1
DA:1102,2
DA:1103,2
DA:1104,2
DA:1105,1
DA:1106,1
DA:1107,2
DA:1108,2
DA:1109,2
DA:1110,2
DA:1112,1
DA:1113,2
DA:1114,2
DA:1115,2
DA:1116,2
DA:1117,1
DA:1118,1
DA:1119,2
DA:1120,2
DA:1121,2
DA:1122,2
DA:1124,1
DA:1125,1
DA:1130,1
DA:1131,1
DA:1132,2
DA:1133,2
DA:1134,2
DA:1135,1
DA:1136,1
DA:1137,2
DA:1138,2
DA:1139,2
DA:1140,2
DA:1142,1
DA:1143,2
DA:1144,2
DA:1145,2
DA:1146,2
DA:1147,1
DA:1148,1
DA:1149,2
DA:1150,2
DA:1151,2
DA:1152,2
DA:1154,1
DA:1155,1
DA:1156,1
DA:1158,1
DA:1162,1
DA:1163,2
DA:1164,2
DA:1165,2
DA:1166,2
DA:1167,1
DA:1168,1
DA:1169,2
DA:1170,2
DA:1171,2
DA:1172,2
DA:1174,1
DA:1175,2
DA:1176,2
DA:1177,2
DA:1178,2
DA:1179,1
DA:1180,1
DA:1181,2
DA:1182,2
DA:1183,2
DA:1184,2
DA:1186,1
DA:1187,1
DA:1192,1
DA:1193,1
DA:1194,2
DA:1195,2
DA:1196,2
DA:1197,1
DA:1198,1
DA:1199,2
DA:1200,2
DA:1201,2
DA:1202,2
DA:1204,1
DA:1205,2
DA:1206,2
DA:1207,2
DA:1208,2
DA:1209,1
DA:1210,1
DA:1211,2
DA:1212,2
DA:1213,2
DA:1214,2
DA:1216,1
DA:1217,1
DA:1221,1
DA:1222,1
DA:1223,2
DA:1224,2
DA:1225,2
DA:1226,1
DA:1227,1
DA:1228,2
DA:1229,2
DA:1230,2
DA:1231,2
DA:1233,1
DA:1234,2
DA:1235,2
DA:1236,2
DA:1237,2
DA:1238,1
DA:1239,1
DA:1240,2
DA:1241,2
DA:1242,2
DA:1243,2
DA:1245,1
DA:1246,1
DA:1251,1
DA:1252,1
DA:1253,2
DA:1254,2
DA:1255,2
DA:1256,1
DA:1257,1
DA:1258,2
DA:1259,2
DA:1260,2
DA:1261,2
DA:1263,1
DA:1264,2
DA:1265,2
DA:1266,2
DA:1267,2
DA:1268,1
DA:1269,1
DA:1270,2
DA:1271,2
DA:1272,2
DA:1273,2
DA:1275,1
DA:1276,1
DA:1277,1
DA:1279,1
DA:1280,1
DA:1281,1
DA:1285,1
DA:1286,1
DA:1288,1
DA:1289,1
DA:1290,2
DA:1291,2
DA:1292,2
DA:1293,1
DA:1294,1
DA:1295,2
DA:1296,2
DA:1297,2
DA:1299,1
DA:1300,2
DA:1301,2
DA:1302,2
DA:1303,2
DA:1304,1
DA:1305,1
DA:1306,2
DA:1307,2
DA:1308,2
DA:1310,1
DA:1311,1
DA:1312,1
DA:1314,1
DA:1315,1
DA:1316,1
DA:1321,1
DA:1322,1
DA:1324,1
DA:1325,1
DA:1326,2
DA:1327,2
DA:1328,2
DA:1329,2
DA:1330,1
DA:1331,1
DA:1332,2
DA:1333,2
DA:1334,2
DA:1335,2
DA:1336,2
DA:1338,1
DA:1339,2
DA:1340,2
DA:1341,2
DA:1342,2
DA:1343,2
DA:1344,1
DA:1345,1
DA:1346,2
DA:1347,2
DA:1348,2
DA:1349,2
DA:1350,2
DA:1352,1
DA:1353,1
DA:1358,1
DA:1359,1
DA:1360,2
DA:1361,2
DA:1362,2
DA:1363,2
DA:1364,1
DA:1365,1
DA:1366,2
DA:1367,2
DA:1368,2
DA:1369,2
DA:1370,2
DA:1372,1
DA:1373,2
DA:1374,2
DA:1375,2
DA:1376,2
DA:1377,2
DA:1378,1
DA:1379,1
DA:1380,2
DA:1381,2
DA:1382,2
DA:1383,2
DA:1384,2
DA:1386,1
DA:1387,1
DA:1388,1
DA:1390,1
DA:1395,1
DA:1396,2
DA:1397,2
DA:1398,2
DA:1399,2
DA:1400,2
DA:1401,1
DA:1402,1
DA:1403,2
DA:1404,2
DA:1405,2
DA:1406,2
DA:1407,2
DA:1409,1
DA:1410,2
DA:1411,2
DA:1412,2
DA:1413,2
DA:1414,2
DA:1415,1
DA:1416,1
DA:1417,2
DA:1418,2
DA:1419,2
DA:1420,2
DA:1421,2
DA:1423,1
DA:1424,1
DA:1429,1
DA:1430,1
DA:1431,2
DA:1432,2
DA:1433,2
DA:1434,2
DA:1435,1
DA:1436,1
DA:1437,2
DA:1438,2
DA:1439,2
DA:1440,2
DA:1441,2
DA:1443,1
DA:1444,2
DA:1445,2
DA:1446,2
DA:1447,2
DA:1448,2
DA:1449,1
DA:1450,1
DA:1451,2
DA:1452,2
DA:1453,2
DA:1454,2
DA:1455,2
DA:1457,1
DA:1458,1
DA:1459,1
DA:1461,1
DA:1462,1
DA:1463,1
DA:1468,1
DA:1469,1
DA:1471,1
DA:1472,1
DA:1473,2
DA:1474,2
DA:1475,2
DA:1476,2
DA:1477,1
DA:1478,1
DA:1479,2
DA:1480,2
DA:1481,2
DA:1482,2
DA:1483,2
DA:1484,2
DA:1486,1
DA:1487,2
DA:1488,2
DA:1489,2
DA:1490,2
DA:1491,2
DA:1492,1
DA:1493,1
DA:1494,2
DA:1495,2
DA:1496,2
DA:1497,2
DA:1498,2
DA:1499,2
DA:1501,1
DA:1502,1
DA:1507,1
DA:1508,1
DA:1509,2
DA:1510,2
DA:1511,2
DA:1512,2
DA:1513,1
DA:1514,1
DA:1515,2
DA:1516,2
DA:1517,2
DA:1518,2
DA:1519,2
DA:1520,2
DA:1522,1
DA:1523,2
DA:1524,2
DA:1525,2
DA:1526,2
DA:1527,2
DA:1528,1
DA:1529,1
DA:1530,2
DA:1531,2
DA:1532,2
DA:1533,2
DA:1534,2
DA:1535,2
DA:1537,1
DA:1538,1
DA:1543,1
DA:1544,1
DA:1545,2
DA:1546,2
DA:1547,2
DA:1548,2
DA:1549,1
DA:1550,1
DA:1551,2
DA:1552,2
DA:1553,2
DA:1554,2
DA:1555,2
DA:1556,2
DA:1558,1
DA:1559,2
DA:1560,2
DA:1561,2
DA:1562,2
DA:1563,2
DA:1564,1
DA:1565,1
DA:1566,2
DA:1567,2
DA:1568,2
DA:1569,2
DA:1570,2
DA:1571,2
DA:1573,1
DA:1574,1
DA:1579,1
DA:1580,1
DA:1581,2
DA:1582,2
DA:1583,2
DA:1584,2
DA:1585,1
DA:1586,1
DA:1587,2
DA:1588,2
DA:1589,2
DA:1590,2
DA:1591,2
DA:1592,2
DA:1594,1
DA:1595,2
DA:1596,2
DA:1597,2
DA:1598,2
DA:1599,2
DA:1600,1
DA:1601,1
DA:1602,2
DA:1603,2
DA:1604,2
DA:1605,2
DA:1606,2
DA:1607,2
DA:1609,1
DA:1610,1
DA:1611,1
DA:1612,1
DA:1614,1
DA:1619,1
DA:1620,2
DA:1621,2
DA:1622,2
DA:1623,2
DA:1624,2
DA:1625,1
DA:1626,1
DA:1627,2
DA:1628,2
DA:1629,2
DA:1630,2
DA:1631,2
DA:1632,2
DA:1634,1
DA:1635,2
DA:1636,2
DA:1637,2
DA:1638,2
DA:1639,2
DA:1640,1
DA:1641,1
DA:1642,2
DA:1643,2
DA:1644,2
DA:1645,2
DA:1646,2
DA:1647,2
DA:1649,1
DA:1650,1
DA:1655,1
DA:1656,1
DA:1657,2
DA:1658,2
DA:1659,2
DA:1660,2
DA:1661,1
DA:1662,1
DA:1663,2
DA:1664,2
DA:1665,2
DA:1666,2
DA:1667,2
DA:1668,2
DA:1670,1
DA:1671,2
DA:1672,2
DA:1673,2
DA:1674,2
DA:1675,2
DA:1676,1
DA:1677,1
DA:1678,2
DA:1679,2
DA:1680,2
DA:1681,2
DA:1682,2
DA:1683,2
DA:1685,1
DA:1686,1
DA:1691,1
DA:1692,1
DA:1693,2
DA:1694,2
DA:1695,2
DA:1696,2
DA:1697,1
DA:1698,1
DA:1699,2
DA:1700,2
DA:1701,2
DA:1702,2
DA:1703,2
DA:1704,2
DA:1706,1
DA:1707,2
DA:1708,2
DA:1709,2
DA:1710,2
DA:1711,2
DA:1712,1
DA:1713,1
DA:1714,2
DA:1715,2
DA:1716,2
DA:1717,2
DA:1718,2
DA:1719,2
DA:1721,1
DA:1722,1
DA:1727,1
DA:1728,1
DA:1729,2
DA:1730,2
DA:1731,2
DA:1732,2
DA:1733,1
DA:1734,1
DA:1735,2
DA:1736,2
DA:1737,2
DA:1738,2
DA:1739,2
DA:1740,2
DA:1742,1
DA:1743,2
DA:1744,2
DA:1745,2
DA:1746,2
DA:1747,2
DA:1748,1
DA:1749,1
DA:1750,2
DA:1751,2
DA:1752,2
DA:1753,2
DA:1754,2
DA:1755,2
DA:1757,1
DA:1758,1
DA:1759,1
DA:1761,1
DA:1762,1
DA:1763,1
DA:1768,1
DA:1769,1
DA:1771,1
DA:1772,1
DA:1773,2
DA:1774,2
DA:1775,2
DA:1776,2
DA:1777,1
DA:1778,1
DA:1779,2
DA:1780,2
DA:1781,2
DA:1782,2
DA:1783,2
DA:1784,2
DA:1786,1
DA:1787,2
DA:1788,2
DA:1789,2
DA:1790,2
DA:1791,2
DA:1792,1
DA:1793,1
DA:1794,2
DA:1795,2
DA:1796,2
DA:1797,2
DA:1798,2
DA:1799,2
DA:1801,1
DA:1802,1
DA:1807,1
DA:1808,1
DA:1809,2
DA:1810,2
DA:1811,2
DA:1812,2
DA:1813,1
DA:1814,1
DA:1815,2
DA:1816,2
DA:1817,2
DA:1818,2
DA:1819,2
DA:1820,2
DA:1822,1
DA:1823,2
DA:1824,2
DA:1825,2
DA:1826,2
DA:1827,2
DA:1828,1
DA:1829,1
DA:1830,2
DA:1831,2
DA:1832,2
DA:1833,2
DA:1834,2
DA:1835,2
DA:1837,1
DA:1838,1
DA:1843,1
DA:1844,1
DA:1845,2
DA:1846,2
DA:1847,2
DA:1848,2
DA:1849,1
DA:1850,1
DA:1851,2
DA:1852,2
DA:1853,2
DA:1854,2
DA:1855,2
DA:1856,2
DA:1858,1
DA:1859,2
DA:1860,2
DA:1861,2
DA:1862,2
DA:1863,2
DA:1864,1
DA:1865,1
DA:1866,2
DA:1867,2
DA:1868,2
DA:1869,2
DA:1870,2
DA:1871,2
DA:1873,1
DA:1874,1
DA:1879,1
DA:1880,1
DA:1881,2
DA:1882,2
DA:1883,2
DA:1884,2
DA:1885,1
DA:1886,1
DA:1887,2
DA:1888,2
DA:1889,2
DA:1890,2
DA:1891,2
DA:1892,2
DA:1894,1
DA:1895,2
DA:1896,2
DA:1897,2
DA:1898,2
DA:1899,2
DA:1900,1
DA:1901,1
DA:1902,2
DA:1903,2
DA:1904,2
DA:1905,2
DA:1906,2
DA:1907,2
DA:1909,1
DA:1910,1
DA:1911,1
DA:1913,1
DA:1914,1
DA:1917,1
DA:1921,1
DA:1922,1
DA:1924,1
DA:1925,1
DA:1926,2
DA:1927,2
DA:1928,2
DA:1929,2
DA:1930,1
DA:1931,1
DA:1932,2
DA:1933,2
DA:1934,2
DA:1935,2
DA:1937,1
DA:1938,2
DA:1939,2
DA:1940,2
DA:1941,2
DA:1942,2
DA:1943,1
DA:1944,1
DA:1945,2
DA:1946,2
DA:1947,2
DA:1948,2
DA:1950,1
DA:1951,1
DA:1956,1
DA:1957,1
DA:1958,2
DA:1959,2
DA:1960,2
DA:1961,2
DA:1962,1
DA:1963,1
DA:1964,2
DA:1965,2
DA:1966,2
DA:1967,2
DA:1969,1
DA:1970,2
DA:1971,2
DA:1972,2
DA:1973,2
DA:1974,2
DA:1975,1
DA:1976,1
DA:1977,2
DA:1978,2
DA:1979,2
DA:1980,2
DA:1982,1
DA:1983,1
DA:1987,1
DA:1988,1
DA:1989,2
DA:1990,2
DA:1991,2
DA:1992,2
DA:1993,1
DA:1994,1
DA:1995,2
DA:1996,2
DA:1997,2
DA:1998,2
DA:2000,1
DA:2001,2
DA:2002,2
DA:2003,2
DA:2004,2
DA:2005,2
DA:2006,1
DA:2007,1
DA:2008,2
DA:2009,2
DA:2010,2
DA:2011,2
DA:2013,1
DA:2014,1
DA:2019,1
DA:2020,1
DA:2021,2
DA:2022,2
DA:2023,2
DA:2024,2
DA:2025,1
DA:2026,1
DA:2027,2
DA:2028,2
DA:2029,2
DA:2030,2
DA:2032,1
DA:2033,2
DA:2034,2
DA:2035,2
DA:2036,2
DA:2037,2
DA:2038,1
DA:2039,1
DA:2040,2
DA:2041,2
DA:2042,2
DA:2043,2
DA:2045,1
DA:2046,1
DA:2048,1
DA:2049,1
DA:2050,1
DA:2057,1
DA:2058,1
DA:2060,1
DA:2061,1
DA:2062,2
DA:2063,2
DA:2064,2
DA:2065,2
DA:2066,1
DA:2067,1
DA:2068,2
DA:2069,2
DA:2070,2
DA:2072,1
DA:2073,2
DA:2074,2
DA:2075,2
DA:2076,2
DA:2077,2
DA:2078,1
DA:2079,1
DA:2080,2
DA:2081,2
DA:2082,2
DA:2084,1
DA:2085,1
DA:2088,1
DA:2089,1
DA:2090,2
DA:2091,2
DA:2092,2
DA:2093,2
DA:2094,1
DA:2095,1
DA:2096,2
DA:2097,2
DA:2098,2
DA:2100,1
DA:2101,2
DA:2102,2
DA:2103,2
DA:2104,2
DA:2105,2
DA:2106,1
DA:2107,1
DA:2108,2
DA:2109,2
DA:2110,2
DA:2112,1
DA:2113,1
DA:2114,1
DA:2116,1
DA:2117,1
DA:2118,1
DA:2123,1
DA:2124,1
DA:2126,1
DA:2127,1
DA:2128,2
DA:2129,2
DA:2130,2
DA:2131,2
DA:2132,1
DA:2133,1
DA:2134,2
DA:2135,2
DA:2136,2
DA:2137,2
DA:2138,2
DA:2139,2
DA:2140,2
DA:2142,1
DA:2143,2
DA:2144,2
DA:2145,2
DA:2146,2
DA:2147,2
DA:2148,1
DA:2149,1
DA:2150,2
DA:2151,2
DA:2152,2
DA:2153,2
DA:2154,2
DA:2155,2
DA:2156,2
DA:2158,1
DA:2159,1
DA:2160,1
DA:2162,1
DA:2163,1
DA:2164,1
DA:2169,1
DA:2170,1
DA:2172,1
DA:2173,1
DA:2174,2
DA:2175,2
DA:2176,2
DA:2177,2
DA:2178,1
DA:2179,1
DA:2180,2
DA:2181,2
DA:2182,2
DA:2183,2
DA:2185,1
DA:2186,2
DA:2187,2
DA:2188,2
DA:2189,2
DA:2190,2
DA:2191,1
DA:2192,1
DA:2193,2
DA:2194,2
DA:2195,2
DA:2196,2
DA:2198,1
DA:2199,1
DA:2204,1
DA:2205,1
DA:2206,2
DA:2207,2
DA:2208,2
DA:2209,2
DA:2210,1
DA:2211,1
DA:2212,2
DA:2213,2
DA:2214,2
DA:2215,2
DA:2217,1
DA:2218,2
DA:2219,2
DA:2220,2
DA:2221,2
DA:2222,2
DA:2223,1
DA:2224,1
DA:2225,2
DA:2226,2
DA:2227,2
DA:2228,2
DA:2230,1
DA:2231,1
DA:2236,1
DA:2237,1
DA:2238,2
DA:2239,2
DA:2240,2
DA:2241,2
DA:2242,1
DA:2243,1
DA:2244,2
DA:2245,2
DA:2246,2
DA:2247,2
DA:2249,1
DA:2250,2
DA:2251,2
DA:2252,2
DA:2253,2
DA:2254,2
DA:2255,1
DA:2256,1
DA:2257,2
DA:2258,2
DA:2259,2
DA:2260,2
DA:2262,1
DA:2263,1
DA:2268,1
DA:2269,1
DA:2270,2
DA:2271,2
DA:2272,2
DA:2273,2
DA:2274,1
DA:2275,1
DA:2276,2
DA:2277,2
DA:2278,2
DA:2279,2
DA:2281,1
DA:2282,2
DA:2283,2
DA:2284,2
DA:2285,2
DA:2286,2
DA:2287,1
DA:2288,1
DA:2289,2
DA:2290,2
DA:2291,2
DA:2292,2
DA:2294,1
DA:2295,1
DA:2296,1
DA:2298,1
DA:2299,1
DA:2300,1
DA:2306,1
DA:2307,1
DA:2309,1
DA:2310,1
DA:2311,2
DA:2312,2
DA:2313,2
DA:2314,2
DA:2315,1
DA:2316,1
DA:2317,2
DA:2318,2
DA:2319,2
DA:2320,2
DA:2322,1
DA:2323,2
DA:2324,2
DA:2325,2
DA:2326,2
DA:2327,2
DA:2328,1
DA:2329,1
DA:2330,2
DA:2331,2
DA:2332,2
DA:2333,2
DA:2335,1
DA:2336,1
DA:2340,1
DA:2341,1
DA:2342,2
DA:2343,2
DA:2344,2
DA:2345,2
DA:2346,1
DA:2347,1
DA:2348,2
DA:2349,2
DA:2350,2
DA:2351,2
DA:2353,1
DA:2354,2
DA:2355,2
DA:2356,2
DA:2357,2
DA:2358,2
DA:2359,1
DA:2360,1
DA:2361,2
DA:2362,2
DA:2363,2
DA:2364,2
DA:2366,1
DA:2367,1
DA:2373,1
DA:2374,1
DA:2375,2
DA:2376,2
DA:2377,2
DA:2378,2
DA:2379,1
DA:2380,1
DA:2381,2
DA:2382,2
DA:2383,2
DA:2384,2
DA:2386,1
DA:2387,2
DA:2388,2
DA:2389,2
DA:2390,2
DA:2391,2
DA:2392,1
DA:2393,1
DA:2394,2
DA:2395,2
DA:2396,2
DA:2397,2
DA:2399,1
DA:2400,1
DA:2404,1
DA:2405,1
DA:2406,2
DA:2407,2
DA:2408,2
DA:2409,2
DA:2410,1
DA:2411,1
DA:2412,2
DA:2413,2
DA:2414,2
DA:2415,2
DA:2417,1
DA:2418,2
DA:2419,2
DA:2420,2
DA:2421,2
DA:2422,2
DA:2423,1
DA:2424,1
DA:2425,2
DA:2426,2
DA:2427,2
DA:2428,2
DA:2430,1
DA:2431,1
DA:2432,1
DA:2433,1
DA:2435,1
DA:2441,1
DA:2442,2
DA:2443,2
DA:2444,2
DA:2445,2
DA:2446,2
DA:2447,1
DA:2448,1
DA:2449,2
DA:2450,2
DA:2451,2
DA:2452,2
DA:2454,1
DA:2455,2
DA:2456,2
DA:2457,2
DA:2458,2
DA:2459,2
DA:2460,1
DA:2461,1
DA:2462,2
DA:2463,2
DA:2464,2
DA:2465,2
DA:2467,1
DA:2468,1
DA:2472,1
DA:2473,1
DA:2474,2
DA:2475,2
DA:2476,2
DA:2477,2
DA:2478,1
DA:2479,1
DA:2480,2
DA:2481,2
DA:2482,2
DA:2483,2
DA:2485,1
DA:2486,2
DA:2487,2
DA:2488,2
DA:2489,2
DA:2490,2
DA:2491,1
DA:2492,1
DA:2493,2
DA:2494,2
DA:2495,2
DA:2496,2
DA:2498,1
DA:2499,1
DA:2505,1
DA:2506,1
DA:2507,2
DA:2508,2
DA:2509,2
DA:2510,2
DA:2511,1
DA:2512,1
DA:2513,2
DA:2514,2
DA:2515,2
DA:2516,2
DA:2518,1
DA:2519,2
DA:2520,2
DA:2521,2
DA:2522,2
DA:2523,2
DA:2524,1
DA:2525,1
DA:2526,2
DA:2527,2
DA:2528,2
DA:2529,2
DA:2531,1
DA:2532,1
DA:2536,1
DA:2537,1
DA:2538,2
DA:2539,2
DA:2540,2
DA:2541,2
DA:2542,1
DA:2543,1
DA:2544,2
DA:2545,2
DA:2546,2
DA:2547,2
DA:2549,1
DA:2550,2
DA:2551,2
DA:2552,2
DA:2553,2
DA:2554,2
DA:2555,1
DA:2556,1
DA:2557,2
DA:2558,2
DA:2559,2
DA:2560,2
DA:2562,1
DA:2563,1
DA:2564,1
DA:2566,1
DA:2567,1
DA:2568,1
DA:2573,1
DA:2574,1
DA:2576,1
DA:2577,1
DA:2578,2
DA:2579,2
DA:2580,2
DA:2581,2
DA:2582,1
DA:2583,1
DA:2584,2
DA:2585,2
DA:2586,2
DA:2587,2
DA:2588,2
DA:2590,1
DA:2591,2
DA:2592,2
DA:2593,2
DA:2594,2
DA:2595,2
DA:2596,1
DA:2597,1
DA:2598,2
DA:2599,2
DA:2600,2
DA:2601,2
DA:2602,2
DA:2604,1
DA:2605,1
DA:2610,1
DA:2611,1
DA:2612,2
DA:2613,2
DA:2614,2
DA:2615,2
DA:2616,1
DA:2617,1
DA:2618,2
DA:2619,2
DA:2620,2
DA:2621,2
DA:2622,2
DA:2624,1
DA:2625,2
DA:2626,2
DA:2627,2
DA:2628,2
DA:2629,2
DA:2630,1
DA:2631,1
DA:2632,2
DA:2633,2
DA:2634,2
DA:2635,2
DA:2636,2
DA:2638,1
DA:2639,1
DA:2644,1
DA:2645,1
DA:2646,2
DA:2647,2
DA:2648,2
DA:2649,2
DA:2650,1
DA:2651,1
DA:2652,2
DA:2653,2
DA:2654,2
DA:2655,2
DA:2656,2
DA:2658,1
DA:2659,2
DA:2660,2
DA:2661,2
DA:2662,2
DA:2663,2
DA:2664,1
DA:2665,1
DA:2666,2
DA:2667,2
DA:2668,2
DA:2669,2
DA:2670,2
DA:2672,1
DA:2673,1
DA:2678,1
DA:2679,1
DA:2680,2
DA:2681,2
DA:2682,2
DA:2683,2
DA:2684,1
DA:2685,1
DA:2686,2
DA:2687,2
DA:2688,2
DA:2689,2
DA:2690,2
DA:2692,1
DA:2693,2
DA:2694,2
DA:2695,2
DA:2696,2
DA:2697,2
DA:2698,1
DA:2699,1
DA:2700,2
DA:2701,2
DA:2702,2
DA:2703,2
DA:2704,2
DA:2706,1
DA:2707,1
DA:2708,1
DA:2710,1
DA:2711,1
DA:2712,1
DA:2717,1
DA:2718,1
DA:2720,1
DA:2721,1
DA:2722,2
DA:2723,2
DA:2724,2
DA:2725,2
DA:2726,1
DA:2727,1
DA:2728,2
DA:2729,2
DA:2730,2
DA:2731,2
DA:2733,1
DA:2734,2
DA:2735,2
DA:2736,2
DA:2737,2
DA:2738,2
DA:2739,1
DA:2740,1
DA:2741,2
DA:2742,2
DA:2743,2
DA:2744,2
DA:2746,1
DA:2747,1
DA:2751,1
DA:2752,1
DA:2753,2
DA:2754,2
DA:2755,2
DA:2756,2
DA:2757,1
DA:2758,1
DA:2759,2
DA:2760,2
DA:2761,2
DA:2762,2
DA:2764,1
DA:2765,2
DA:2766,2
DA:2767,2
DA:2768,2
DA:2769,2
DA:2770,1
DA:2771,1
DA:2772,2
DA:2773,2
DA:2774,2
DA:2775,2
DA:2777,1
DA:2778,1
DA:2783,1
DA:2784,1
DA:2785,2
DA:2786,2
DA:2787,2
DA:2788,2
DA:2789,1
DA:2790,1
DA:2791,2
DA:2792,2
DA:2793,2
DA:2794,2
DA:2796,1
DA:2797,2
DA:2798,2
DA:2799,2
DA:2800,2
DA:2801,2
DA:2802,1
DA:2803,1
DA:2804,2
DA:2805,2
DA:2806,2
DA:2807,2
DA:2809,1
DA:2810,1
DA:2814,1
DA:2815,1
DA:2816,2
DA:2817,2
DA:2818,2
DA:2819,2
DA:2820,1
DA:2821,1
DA:2822,2
DA:2823,2
DA:2824,2
DA:2825,2
DA:2827,1
DA:2828,2
DA:2829,2
DA:2830,2
DA:2831,2
DA:2832,2
DA:2833,1
DA:2834,1
DA:2835,2
DA:2836,2
DA:2837,2
DA:2838,2
DA:2840,1
DA:2841,1
DA:2842,1
DA:2844,1
DA:2850,1
DA:2851,2
DA:2852,2
DA:2853,2
DA:2854,2
DA:2855,2
DA:2856,1
DA:2857,1
DA:2858,2
DA:2859,2
DA:2860,2
DA:2861,2
DA:2863,1
DA:2864,2
DA:2865,2
DA:2866,2
DA:2867,2
DA:2868,2
DA:2869,1
DA:2870,1
DA:2871,2
DA:2872,2
DA:2873,2
DA:2874,2
DA:2876,1
DA:2877,1
DA:2881,1
DA:2882,1
DA:2883,2
DA:2884,2
DA:2885,2
DA:2886,2
DA:2887,1
DA:2888,1
DA:2889,2
DA:2890,2
DA:2891,2
DA:2892,2
DA:2894,1
DA:2895,2
DA:2896,2
DA:2897,2
DA:2898,2
DA:2899,2
DA:2900,1
DA:2901,1
DA:2902,2
DA:2903,2
DA:2904,2
DA:2905,2
DA:2907,1
DA:2908,1
DA:2913,1
DA:2914,1
DA:2915,2
DA:2916,2
DA:2917,2
DA:2918,2
DA:2919,1
DA:2920,1
DA:2921,2
DA:2922,2
DA:2923,2
DA:2924,2
DA:2926,1
DA:2927,2
DA:2928,2
DA:2929,2
DA:2930,2
DA:2931,2
DA:2932,1
DA:2933,1
DA:2934,2
DA:2935,2
DA:2936,2
DA:2937,2
DA:2939,1
DA:2940,1
DA:2944,1
DA:2945,1
DA:2946,2
DA:2947,2
DA:2948,2
DA:2949,2
DA:2950,1
DA:2951,1
DA:2952,2
DA:2953,2
DA:2954,2
DA:2955,2
DA:2957,1
DA:2958,2
DA:2959,2
DA:2960,2
DA:2961,2
DA:2962,2
DA:2963,1
DA:2964,1
DA:2965,2
DA:2966,2
DA:2967,2
DA:2968,2
DA:2970,1
DA:2971,1
DA:2972,1
DA:2974,1
DA:2975,1
DA:2977,1
DA:2981,1
DA:2982,1
DA:2984,1
DA:2985,1
DA:2986,2
DA:2987,2
DA:2988,2
DA:2989,2
DA:2990,1
DA:2991,1
DA:2992,2
DA:2993,2
DA:2994,2
DA:2995,2
DA:2996,2
DA:2998,1
DA:2999,2
DA:3000,2
DA:3001,2
DA:3002,2
DA:3003,2
DA:3004,1
DA:3005,1
DA:3006,2
DA:3007,2
DA:3008,2
DA:3009,2
DA:3010,2
DA:3012,1
DA:3013,1
DA:3019,1
DA:3020,1
DA:3021,2
DA:3022,2
DA:3023,2
DA:3024,2
DA:3025,1
DA:3026,1
DA:3027,2
DA:3028,2
DA:3029,2
DA:3030,2
DA:3031,2
DA:3033,1
DA:3034,2
DA:3035,2
DA:3036,2
DA:3037,2
DA:3038,2
DA:3039,1
DA:3040,1
DA:3041,2
DA:3042,2
DA:3043,2
DA:3044,2
DA:3045,2
DA:3047,1
DA:3048,1
DA:3052,1
DA:3053,1
DA:3054,2
DA:3055,2
DA:3056,2
DA:3057,2
DA:3058,1
DA:3059,1
DA:3060,2
DA:3061,2
DA:3062,2
DA:3063,2
DA:3064,2
DA:3066,1
DA:3067,2
DA:3068,2
DA:3069,2
DA:3070,2
DA:3071,2
DA:3072,1
DA:3073,1
DA:3074,2
DA:3075,2
DA:3076,2
DA:3077,2
DA:3078,2
DA:3080,1
DA:3081,1
DA:3087,1
DA:3088,1
DA:3089,2
DA:3090,2
DA:3091,2
DA:3092,2
DA:3093,1
DA:3094,1
DA:3095,2
DA:3096,2
DA:3097,2
DA:3098,2
DA:3099,2
DA:3101,1
DA:3102,2
DA:3103,2
DA:3104,2
DA:3105,2
DA:3106,2
DA:3107,1
DA:3108,1
DA:3109,2
DA:3110,2
DA:3111,2
DA:3112,2
DA:3113,2
DA:3115,1
DA:3116,1
DA:3117,1
DA:3119,1
DA:3124,1
DA:3125,2
DA:3126,2
DA:3127,2
DA:3128,2
DA:3129,2
DA:3130,1
DA:3131,1
DA:3132,2
DA:3133,2
DA:3134,2
DA:3135,2
DA:3136,2
DA:3138,1
DA:3139,2
DA:3140,2
DA:3141,2
DA:3142,2
DA:3143,2
DA:3144,1
DA:3145,1
DA:3146,2
DA:3147,2
DA:3148,2
DA:3149,2
DA:3150,2
DA:3152,1
DA:3153,1
DA:3159,1
DA:3160,1
DA:3161,2
DA:3162,2
DA:3163,2
DA:3164,2
DA:3165,1
DA:3166,1
DA:3167,2
DA:3168,2
DA:3169,2
DA:3170,2
DA:3171,2
DA:3173,1
DA:3174,2
DA:3175,2
DA:3176,2
DA:3177,2
DA:3178,2
DA:3179,1
DA:3180,1
DA:3181,2
DA:3182,2
DA:3183,2
DA:3184,2
DA:3185,2
DA:3187,1
DA:3188,1
DA:3192,1
DA:3193,1
DA:3194,2
DA:3195,2
DA:3196,2
DA:3197,2
DA:3198,1
DA:3199,1
DA:3200,2
DA:3201,2
DA:3202,2
DA:3203,2
DA:3204,2
DA:3206,1
DA:3207,2
DA:3208,2
DA:3209,2
DA:3210,2
DA:3211,2
DA:3212,1
DA:3213,1
DA:3214,2
DA:3215,2
DA:3216,2
DA:3217,2
DA:3218,2
DA:3220,1
DA:3221,1
DA:3227,1
DA:3228,1
DA:3229,2
DA:3230,2
DA:3231,2
DA:3232,2
DA:3233,1
DA:3234,1
DA:3235,2
DA:3236,2
DA:3237,2
DA:3238,2
DA:3239,2
DA:3241,1
DA:3242,2
DA:3243,2
DA:3244,2
DA:3245,2
DA:3246,2
DA:3247,1
DA:3248,1
DA:3249,2
DA:3250,2
DA:3251,2
DA:3252,2
DA:3253,2
DA:3255,1
DA:3256,1
DA:3257,1
DA:3259,1
DA:3260,1
DA:3261,1
DA:3267,1
DA:3268,1
DA:3270,1
DA:3271,1
DA:3272,2
DA:3273,2
DA:3274,2
DA:3275,2
DA:3276,1
DA:3277,1
DA:3278,2
DA:3279,2
DA:3280,2
DA:3281,2
DA:3282,2
DA:3284,1
DA:3285,2
DA:3286,2
DA:3287,2
DA:3288,2
DA:3289,2
DA:3290,1
DA:3291,1
DA:3292,2
DA:3293,2
DA:3294,2
DA:3295,2
DA:3296,2
DA:3298,1
DA:3299,1
DA:3303,1
DA:3304,1
DA:3305,2
DA:3306,2
DA:3307,2
DA:3308,2
DA:3309,1
DA:3310,1
DA:3311,2
DA:3312,2
DA:3313,2
DA:3314,2
DA:3315,2
DA:3317,1
DA:3318,2
DA:3319,2
DA:3320,2
DA:3321,2
DA:3322,2
DA:3323,1
DA:3324,1
DA:3325,2
DA:3326,2
DA:3327,2
DA:3328,2
DA:3329,2
DA:3331,1
DA:3332,1
DA:3338,1
DA:3339,1
DA:3340,2
DA:3341,2
DA:3342,2
DA:3343,2
DA:3344,1
DA:3345,1
DA:3346,2
DA:3347,2
DA:3348,2
DA:3349,2
DA:3350,2
DA:3352,1
DA:3353,2
DA:3354,2
DA:3355,2
DA:3356,2
DA:3357,2
DA:3358,1
DA:3359,1
DA:3360,2
DA:3361,2
DA:3362,2
DA:3363,2
DA:3364,2
DA:3366,1
DA:3367,1
DA:3371,1
DA:3372,1
DA:3373,2
DA:3374,2
DA:3375,2
DA:3376,2
DA:3377,1
DA:3378,1
DA:3379,2
DA:3380,2
DA:3381,2
DA:3382,2
DA:3383,2
DA:3385,1
DA:3386,2
DA:3387,2
DA:3388,2
DA:3389,2
DA:3390,2
DA:3391,1
DA:3392,1
DA:3393,2
DA:3394,2
DA:3395,2
DA:3396,2
DA:3397,2
DA:3399,1
DA:3400,1
DA:3401,1
DA:3403,1
DA:3409,1
DA:3410,2
DA:3411,2
DA:3412,2
DA:3413,2
DA:3414,2
DA:3415,1
DA:3416,1
DA:3417,2
DA:3418,2
DA:3419,2
DA:3420,2
DA:3421,2
DA:3423,1
DA:3424,2
DA:3425,2
DA:3426,2
DA:3427,2
DA:3428,2
DA:3429,1
DA:3430,1
DA:3431,2
DA:3432,2
DA:3433,2
DA:3434,2
DA:3435,2
DA:3437,1
DA:3438,1
DA:3442,1
DA:3443,1
DA:3444,2
DA:3445,2
DA:3446,2
DA:3447,2
DA:3448,1
DA:3449,1
DA:3450,2
DA:3451,2
DA:3452,2
DA:3453,2
DA:3454,2
DA:3456,1
DA:3457,2
DA:3458,2
DA:3459,2
DA:3460,2
DA:3461,2
DA:3462,1
DA:3463,1
DA:3464,2
DA:3465,2
DA:3466,2
DA:3467,2
DA:3468,2
DA:3470,1
DA:3471,1
DA:3477,1
DA:3478,1
DA:3479,2
DA:3480,2
DA:3481,2
DA:3482,2
DA:3483,1
DA:3484,1
DA:3485,2
DA:3486,2
DA:3487,2
DA:3488,2
DA:3489,2
DA:3491,1
DA:3492,2
DA:3493,2
DA:3494,2
DA:3495,2
DA:3496,2
DA:3497,1
DA:3498,1
DA:3499,2
DA:3500,2
DA:3501,2
DA:3502,2
DA:3503,2
DA:3505,1
DA:3506,1
DA:3510,1
DA:3511,1
DA:3512,2
DA:3513,2
DA:3514,2
DA:3515,2
DA:3516,1
DA:3517,1
DA:3518,2
DA:3519,2
DA:3520,2
DA:3521,2
DA:3522,2
DA:3524,1
DA:3525,2
DA:3526,2
DA:3527,2
DA:3528,2
DA:3529,2
DA:3530,1
DA:3531,1
DA:3532,2
DA:3533,2
DA:3534,2
DA:3535,2
DA:3536,2
DA:3538,1
DA:3539,1
DA:3540,1
DA:3542,1
DA:3543,4
BA:41,0
BA:41,0
BA:41,1
BA:41,2
BA:41,0
BA:41,0
BA:60,1
BA:60,2
BA:61,1
BA:61,2
BA:80,1
BA:80,2
BA:86,2
BA:86,2
BA:88,1
BA:88,2
BA:93,2
BA:93,2
BA:95,2
BA:95,2
BA:98,2
BA:98,2
BA:100,1
BA:100,2
BA:114,2
BA:114,2
BA:134,2
BA:134,2
BA:157,1
BA:157,2
BA:167,2
BA:167,2
BA:190,2
BA:190,2
BA:208,2
BA:208,1
BA:213,1
BA:213,2
BA:366,2
BA:366,2
BA:368,2
BA:368,2
BA:371,2
BA:371,2
BA:385,1
BA:385,2
BA:389,2
BA:389,2
BA:396,2
BA:396,2
BA:405,1
BA:405,2
BA:437,1
BA:437,2
BA:438,1
BA:438,2
BA:439,2
BA:439,1
BA:440,2
BA:440,1
BA:441,2
BA:441,1
BA:442,2
BA:442,1
BA:445,2
BA:445,1
BA:446,1
BA:446,2
BA:447,1
BA:447,2
BA:448,1
BA:448,2
BA:449,1
BA:449,2
BA:450,1
BA:450,2
BA:455,1
BA:455,2
BA:456,1
BA:456,2
BA:468,1
BA:468,2
BA:469,1
BA:469,2
BA:470,1
BA:470,2
BA:471,2
BA:471,1
BA:472,2
BA:472,1
BA:473,2
BA:473,1
BA:474,2
BA:474,1
BA:477,2
BA:477,1
BA:478,2
BA:478,1
BA:479,1
BA:479,2
BA:480,1
BA:480,2
BA:481,1
BA:481,2
BA:482,1
BA:482,2
BA:483,1
BA:483,2
BA:487,1
BA:487,2
BA:492,1
BA:492,2
BA:493,1
BA:493,2
BA:494,1
BA:494,2
BA:495,2
BA:495,1
BA:496,2
BA:496,1
BA:497,2
BA:497,1
BA:498,2
BA:498,1
BA:501,2
BA:501,1
BA:502,2
BA:502,1
BA:503,1
BA:503,2
BA:504,1
BA:504,2
BA:505,1
BA:505,2
BA:506,1
BA:506,2
BA:507,1
BA:507,2
BA:511,1
BA:511,2
BA:512,1
BA:512,2
BA:524,1
BA:524,2
BA:525,1
BA:525,2
BA:526,1
BA:526,2
BA:527,1
BA:527,2
BA:528,2
BA:528,1
BA:529,2
BA:529,1
BA:530,2
BA:530,1
BA:531,2
BA:531,1
BA:534,2
BA:534,1
BA:535,2
BA:535,1
BA:536,2
BA:536,1
BA:537,1
BA:537,2
BA:538,1
BA:538,2
BA:539,1
BA:539,2
BA:540,1
BA:540,2
BA:541,1
BA:541,2
BA:545,1
BA:545,2
BA:551,1
BA:551,2
BA:552,1
BA:552,2
BA:553,1
BA:553,2
BA:554,1
BA:554,2
BA:555,2
BA:555,1
BA:556,2
BA:556,1
BA:557,2
BA:557,1
BA:558,2
BA:558,1
BA:561,2
BA:561,1
BA:562,2
BA:562,1
BA:563,2
BA:563,1
BA:564,1
BA:564,2
BA:565,1
BA:565,2
BA:566,1
BA:566,2
BA:567,1
BA:567,2
BA:568,1
BA:568,2
BA:572,1
BA:572,2
BA:573,1
BA:573,2
BA:585,1
BA:585,2
BA:586,1
BA:586,2
BA:587,1
BA:587,2
BA:588,1
BA:588,2
BA:589,2
BA:589,1
BA:590,2
BA:590,1
BA:591,2
BA:591,1
BA:592,2
BA:592,1
BA:593,2
BA:593,1
BA:596,2
BA:596,1
BA:597,2
BA:597,1
BA:598,2
BA:598,1
BA:599,1
BA:599,2
BA:600,1
BA:600,2
BA:601,1
BA:601,2
BA:602,1
BA:602,2
BA:603,1
BA:603,2
BA:604,1
BA:604,2
BA:608,1
BA:608,2
BA:613,1
BA:613,2
BA:614,1
BA:614,2
BA:615,1
BA:615,2
BA:616,1
BA:616,2
BA:617,2
BA:617,1
BA:618,2
BA:618,1
BA:619,2
BA:619,1
BA:620,2
BA:620,1
BA:621,2
BA:621,1
BA:624,2
BA:624,1
BA:625,2
BA:625,1
BA:626,2
BA:626,1
BA:627,1
BA:627,2
BA:628,1
BA:628,2
BA:629,1
BA:629,2
BA:630,1
BA:630,2
BA:631,1
BA:631,2
BA:632,1
BA:632,2
BA:636,1
BA:636,2
BA:641,1
BA:641,2
BA:642,1
BA:642,2
BA:643,1
BA:643,2
BA:644,1
BA:644,2
BA:645,2
BA:645,1
BA:646,2
BA:646,1
BA:647,2
BA:647,1
BA:648,2
BA:648,1
BA:649,2
BA:649,1
BA:652,2
BA:652,1
BA:653,2
BA:653,1
BA:654,2
BA:654,1
BA:655,1
BA:655,2
BA:656,1
BA:656,2
BA:657,1
BA:657,2
BA:658,1
BA:658,2
BA:659,1
BA:659,2
BA:660,1
BA:660,2
BA:664,1
BA:664,2
BA:669,1
BA:669,2
BA:670,1
BA:670,2
BA:671,1
BA:671,2
BA:672,1
BA:672,2
BA:673,2
BA:673,1
BA:674,2
BA:674,1
BA:675,2
BA:675,1
BA:676,2
BA:676,1
BA:677,2
BA:677,1
BA:680,2
BA:680,1
BA:681,2
BA:681,1
BA:682,2
BA:682,1
BA:683,1
BA:683,2
BA:684,1
BA:684,2
BA:685,1
BA:685,2
BA:686,1
BA:686,2
BA:687,1
BA:687,2
BA:688,1
BA:688,2
BA:692,1
BA:692,2
BA:693,1
BA:693,2
BA:704,1
BA:704,2
BA:705,1
BA:705,2
BA:706,1
BA:706,2
BA:707,1
BA:707,2
BA:708,1
BA:708,2
BA:709,2
BA:709,1
BA:710,2
BA:710,1
BA:711,2
BA:711,1
BA:712,2
BA:712,1
BA:715,2
BA:715,1
BA:716,2
BA:716,1
BA:717,2
BA:717,1
BA:718,2
BA:718,1
BA:719,1
BA:719,2
BA:720,1
BA:720,2
BA:721,1
BA:721,2
BA:722,1
BA:722,2
BA:723,1
BA:723,2
BA:726,1
BA:726,2
BA:733,1
BA:733,2
BA:734,1
BA:734,2
BA:735,1
BA:735,2
BA:736,1
BA:736,2
BA:737,1
BA:737,2
BA:738,2
BA:738,1
BA:739,2
BA:739,1
BA:740,2
BA:740,1
BA:741,2
BA:741,1
BA:744,2
BA:744,1
BA:745,2
BA:745,1
BA:746,2
BA:746,1
BA:747,2
BA:747,1
BA:748,1
BA:748,2
BA:749,1
BA:749,2
BA:750,1
BA:750,2
BA:751,1
BA:751,2
BA:752,1
BA:752,2
BA:755,1
BA:755,2
BA:756,1
BA:756,2
BA:768,1
BA:768,2
BA:769,1
BA:769,2
BA:770,1
BA:770,2
BA:771,1
BA:771,2
BA:772,1
BA:772,2
BA:773,2
BA:773,1
BA:774,2
BA:774,1
BA:775,2
BA:775,1
BA:776,2
BA:776,1
BA:777,2
BA:777,1
BA:778,2
BA:778,1
BA:781,2
BA:781,1
BA:782,2
BA:782,1
BA:783,2
BA:783,1
BA:784,2
BA:784,1
BA:785,1
BA:785,2
BA:786,1
BA:786,2
BA:787,1
BA:787,2
BA:788,1
BA:788,2
BA:789,1
BA:789,2
BA:790,1
BA:790,2
BA:791,1
BA:791,2
BA:794,1
BA:794,2
BA:800,1
BA:800,2
BA:801,1
BA:801,2
BA:802,1
BA:802,2
BA:803,1
BA:803,2
BA:804,1
BA:804,2
BA:805,2
BA:805,1
BA:806,2
BA:806,1
BA:807,2
BA:807,1
BA:808,2
BA:808,1
BA:809,2
BA:809,1
BA:810,2
BA:810,1
BA:813,2
BA:813,1
BA:814,2
BA:814,1
BA:815,2
BA:815,1
BA:816,2
BA:816,1
BA:817,1
BA:817,2
BA:818,1
BA:818,2
BA:819,1
BA:819,2
BA:820,1
BA:820,2
BA:821,1
BA:821,2
BA:822,1
BA:822,2
BA:823,1
BA:823,2
BA:827,1
BA:827,2
BA:830,2
BA:830,1
BA:836,1
BA:836,2
BA:837,1
BA:837,2
BA:838,1
BA:838,2
BA:839,1
BA:839,2
BA:840,1
BA:840,2
BA:841,2
BA:841,1
BA:842,2
BA:842,1
BA:843,2
BA:843,1
BA:844,2
BA:844,1
BA:845,2
BA:845,1
BA:846,2
BA:846,1
BA:849,2
BA:849,1
BA:850,2
BA:850,1
BA:851,2
BA:851,1
BA:852,2
BA:852,1
BA:853,1
BA:853,2
BA:854,1
BA:854,2
BA:855,1
BA:855,2
BA:856,1
BA:856,2
BA:857,1
BA:857,2
BA:858,1
BA:858,2
BA:859,1
BA:859,2
BA:863,1
BA:863,2
BA:869,1
BA:869,2
BA:870,1
BA:870,2
BA:871,1
BA:871,2
BA:872,1
BA:872,2
BA:873,1
BA:873,2
BA:874,2
BA:874,1
BA:875,2
BA:875,1
BA:876,2
BA:876,1
BA:877,2
BA:877,1
BA:878,2
BA:878,1
BA:879,2
BA:879,1
BA:882,2
BA:882,1
BA:883,2
BA:883,1
BA:884,2
BA:884,1
BA:885,2
BA:885,1
BA:886,1
BA:886,2
BA:887,1
BA:887,2
BA:888,1
BA:888,2
BA:889,1
BA:889,2
BA:890,1
BA:890,2
BA:891,1
BA:891,2
BA:892,1
BA:892,2
BA:895,1
BA:895,2
BA:896,1
BA:896,2
BA:908,1
BA:908,2
BA:909,1
BA:909,2
BA:910,1
BA:910,2
BA:911,1
BA:911,2
BA:912,1
BA:912,2
BA:913,2
BA:913,1
BA:914,2
BA:914,1
BA:915,2
BA:915,1
BA:916,2
BA:916,1
BA:917,2
BA:917,1
BA:918,2
BA:918,1
BA:921,2
BA:921,1
BA:922,2
BA:922,1
BA:923,2
BA:923,1
BA:924,2
BA:924,1
BA:925,1
BA:925,2
BA:926,1
BA:926,2
BA:927,1
BA:927,2
BA:928,1
BA:928,2
BA:929,1
BA:929,2
BA:930,1
BA:930,2
BA:931,1
BA:931,2
BA:934,1
BA:934,2
BA:940,1
BA:940,2
BA:941,1
BA:941,2
BA:942,1
BA:942,2
BA:943,1
BA:943,2
BA:944,1
BA:944,2
BA:945,2
BA:945,1
BA:946,2
BA:946,1
BA:947,2
BA:947,1
BA:948,2
BA:948,1
BA:949,2
BA:949,1
BA:950,2
BA:950,1
BA:953,2
BA:953,1
BA:954,2
BA:954,1
BA:955,2
BA:955,1
BA:956,2
BA:956,1
BA:957,1
BA:957,2
BA:958,1
BA:958,2
BA:959,1
BA:959,2
BA:960,1
BA:960,2
BA:961,1
BA:961,2
BA:962,1
BA:962,2
BA:963,1
BA:963,2
BA:966,1
BA:966,2
BA:971,1
BA:971,2
BA:972,1
BA:972,2
BA:973,1
BA:973,2
BA:974,1
BA:974,2
BA:975,1
BA:975,2
BA:976,2
BA:976,1
BA:977,2
BA:977,1
BA:978,2
BA:978,1
BA:979,2
BA:979,1
BA:980,2
BA:980,1
BA:981,2
BA:981,1
BA:984,2
BA:984,1
BA:985,2
BA:985,1
BA:986,2
BA:986,1
BA:987,2
BA:987,1
BA:988,1
BA:988,2
BA:989,1
BA:989,2
BA:990,1
BA:990,2
BA:991,1
BA:991,2
BA:992,1
BA:992,2
BA:993,1
BA:993,2
BA:994,1
BA:994,2
BA:997,1
BA:997,2
BA:1003,1
BA:1003,2
BA:1004,1
BA:1004,2
BA:1005,1
BA:1005,2
BA:1006,1
BA:1006,2
BA:1007,1
BA:1007,2
BA:1008,2
BA:1008,1
BA:1009,2
BA:1009,1
BA:1010,2
BA:1010,1
BA:1011,2
BA:1011,1
BA:1012,2
BA:1012,1
BA:1013,2
BA:1013,1
BA:1016,2
BA:1016,1
BA:1017,2
BA:1017,1
BA:1018,2
BA:1018,1
BA:1019,2
BA:1019,1
BA:1020,1
BA:1020,2
BA:1021,1
